uc:_glClearStencil
aQh:_UInt16_System_IConvertible_ToChar_m2096055221_AdjustorThunk
jTf:_MaskableGraphic_OnCanvasHierarchyChanged_m1780820310
heh:_Array_TrueForAll_TisRuntimeObject_m1084992726_gshared
Gxe:__ZL95CanvasRenderer_t2598313366_CustomAttributesCacheGenerator_CanvasRenderer_SetMaterial_m824577244P21CustomAttributesCache
W5j:__ZN6il2cpp2vm5Array13GetByteLengthEP11Il2CppArray
FFi:_Array_InternalArray__set_Item_TisDateTime_t3738529785_m1331437427_gshared
qij:_KeyBuilder_get_Rng_m3373220441
hod:__ZN15DownloadHandler7OnAbortEv
QDi:__Z37RuntimeInvoker_Enumerator_t1666852615PFvvEPK10MethodInfoPvPS4_
Cke:__ZL51AIUpdate_t2336814084_CustomAttributesCacheGeneratorP21CustomAttributesCache
yya:__Z30GetIntermediateRendererManagerv
d5h:_U3CCreateWhereIteratorU3Ec__Iterator1D_1_System_Collections_Generic_IEnumeratorU3CTSourceU3E_get_Current_m1909387290_gshared
gSa:__Z21SourceMipLevelForBlitiiii
rEa:__ZN31CanvasBatchIntermediateRenderer15AddAsRenderNodeER15RenderNodeQueueRK20DeprecatedSourceData
oNh:_TimeSpan_get_Hours_m550761902
Eve:__ZL72GUISkin_t1244372282_CustomAttributesCacheGenerator_m_verticalSliderThumbP21CustomAttributesCache
Hic:__ZN9ShaderLab9SubShader15FindNamedPassesERKN4core12basic_stringIcNS1_20StringStorageDefaultIcEEEER13dynamic_arrayIPNS_4PassELj0EE
V6f:_Capture_get_Index_m745081289
zoe:__ZL63PlayableOutputHandle_t4208053793_CustomAttributesCacheGeneratorP21CustomAttributesCache
C_:__ZN11UnityEngine15CloudWebService26CloudServiceEventWithParam12ToJsonStringER9JSONWrite
rJe:_UnmanagedMemoryStream_Write_m930787521
Rjd:__ZN11UnityEngine7Connect14AppUpdateEventD0Ev
$oc:__Z59Register_UnityEngine_PlayerConnectionInternal_DisconnectAllv
_Yd:__ZL66RuntimeArray_CustomAttributesCacheGenerator_Array_Sort_m3287581440P21CustomAttributesCache
Fjj:_AnalyticsEventTracker_SendEvent_m1365958832
m2:__ZdlPv
bs:__ZN11UnityEngine9Animation28GenericAnimationBindingCacheD2Ev
MKh:_UTF8Encoding_GetHashCode_m641510078
X8i:_X509Store_LoadCrl_m1881903843
eIi:_Array_Sort_TisUICharInfo_t75501106_TisUICharInfo_t75501106_m722747892_gshared
HIg:_CaseInsensitiveComparer__ctor_m2101975011
Agi:__Z67RuntimeInvoker_Byte_t1134296376_Int32_t2950945753_Int32_t2950945753PFvvEPK10MethodInfoPvPS4_
dfi:__Z53RuntimeInvoker_UInt32_t2560061978_Decimal_t2948259380PFvvEPK10MethodInfoPvPS4_
Vsj:__ZL25UnresolvedVirtualCall_242P12Il2CppObjecti22OrderBlock_t1585977831PK10MethodInfo
B8b:__Z18RestoreRenderStateR20CameraRenderOldStateR17ShaderPassContext
Qyb:__Z18Transfer_BlittableI18StreamedBinaryReadILb1EELb1E5RectTIfEEvRK29SerializationCommandArgumentsR31RuntimeSerializationCommandInfo
Dub:__Z18Transfer_BlittableI24GenerateTypeTreeTransferLb0E11ColorRGBA32EvRK29SerializationCommandArgumentsR31RuntimeSerializationCommandInfo
IDb:__Z25scripting_class_from_name17ScriptingImagePtrPKcS1_
VEi:_Array_InternalArray__Insert_TisSingle_t1397266774_m3161726127_gshared
wSj:__ZN14dense_hash_mapI10KeyWrapperINSt3__24pairIPK12PropertyInfoP11Il2CppClassEEEj17ReflectionMapHashIS8_ENS9_14EqualsComparerINS1_8equal_toIS8_EEEENS1_9allocatorINS2_IKS9_jEEEEE15set_deleted_keyERSH_
AFb:__Z29scripting_class_enum_basetype17ScriptingClassPtr
NUi:_List_1_Clear_m3097985365_gshared
q3f:_OidCollection_get_SyncRoot_m3531934854
hJc:__ZN6IDList10BeginOnGUIEv
Axa:__ZNK12BaseRenderer18GetRenderNodeCountEv
t_j:__ZN6il2cpp2vm9Exception25RaiseOutOfMemoryExceptionERKNS_5utils10StringViewIDsEEP19Il2CppSequencePoint
Bmj:__ZN30GenericInterfaceActionInvoker1IP24SingleU5BU5D_t1444911251E6InvokeEPK10MethodInfoP12Il2CppObjectS1_
SGd:_PropertyBuilder_get_CanWrite_m2657562188
yka:__ZL43__ManagedRegistrationHelperFunction_TexturePv
K5e:_InternalEnumerator_1_get_Current_m1477715453_gshared
TCh:_Enumerator__ctor_m2827156589_AdjustorThunk
rcb:__ZNK20LocalFileSystemPosix6ParentERK13FileEntryDataRN4core12basic_stringIcNS3_20StringStorageDefaultIcEEEE
Hie:__ZL118TouchScreenKeyboard_t731888065_CustomAttributesCacheGenerator_TouchScreenKeyboard_Open_m3609399077____textPlaceholder6P21CustomAttributesCache
B$i:_Collection_1_System_Collections_IList_Remove_m1476284619_gshared
dlh:_ContractionComparer__ctor_m3439667810
DLe:_MonoType_IsPrimitiveImpl_m2401722705
Hlg:_SHA1CryptoServiceProvider__ctor_m4195188793
Mna:__ZN9Scripting11UnityEngine9Profiling8Recorder12CleanupProxyEv
rce:__ZL64MissingFieldException_t1989070983_CustomAttributesCacheGeneratorP21CustomAttributesCache
QCb:__ZN18StreamedBinaryReadILb0EE21TransferSTLStyleArrayI13dynamic_arrayI11ColorRGBA32Lj0EEEEvRT_17TransferMetaFlags
vCd:_Dropdown_Hide_m504034854
VSa:__ZN9Texture2D25CreateScaledAndPaddedDataEPP17SharedTextureDataS2_
idh:_Array_InternalArray__ICollection_Remove_TisLink_t3209266973_m897088622_gshared
ALf:_Vector2_get_up_m2647420593
pPb:__ZN7ApiGLES17CopyBufferSubDataEjjlll
fkh:_Array_InternalArray__ICollection_CopyTo_TisUInt64_t4134040092_m691431926_gshared
g$i:__ZN23InterfaceActionInvoker2Ii22OrderBlock_t1585977831E6InvokeEjP11Il2CppClassP12Il2CppObjectiS0_
t1f:_IPAddress_ToString_m1181734207
LIh:_StringBuilder_Append_m1965104174
iLc:__ZN5Unity9rapidjson15GenericDocumentINS0_4UTF8IcEE13JSONAllocatorS4_E11ParseStreamILj1ES3_NS0_25GenericInsituStringStreamIS3_EEEERS5_RT1_
bBj:__ZNSt3__26vectorIPK10Il2CppTypeNS_9allocatorIS3_EEE7reserveEj
Qwh:_EqualityComparer_1__cctor_m3766928733_gshared
U8h:_UnityAction_1_Invoke_m610765085_gshared
oBg:_Array_GetValue_m116098292
K9f:_Kernel_modInverse_m652700340
AOa:__ZNK14Texture2DArray26CanReuploadDataToGfxDeviceEv
yxe:__ZL57CanvasRenderer_t2598313366_CustomAttributesCacheGeneratorP21CustomAttributesCache
Yva:__ZN17GlobalGameManager23VirtualRedirectTransferER17RemapPPtrTransfer
h5c:_sfnt_stream_close
wAb:__ZN18StreamedBinaryReadILb1EE8TransferI13dynamic_arrayIsLj0EEEEvRT_PKc17TransferMetaFlags
Jqj:__ZL25UnresolvedVirtualCall_122P12Il2CppObject29CullingGroupEvent_t1722745023PK10MethodInfo
pKc:__ZN5IMGUI18RepaintModalWindowER8GUIState
L_f:_HybridDictionary_get_IsSynchronized_m2987560362
_qj:__ZL25UnresolvedVirtualCall_139P12Il2CppObject17Color_t2555686324PK10MethodInfo
lBa:__ZNK15dense_hashtableINSt3__24pairIKN9ShaderLab7Program23ShaderKeywordSetAndHashEPKNS2_10SubProgramEEES4_NS3_24ShaderKeywordHashFunctorEN14dense_hash_mapIS4_S8_SA_NS0_8equal_toIS4_EE13stl_allocatorIS9_L18MemLabelIdentifier67ELi16EEE9SelectKeyESD_SG_E23find_position_with_hashERS5_j
gMg:_CompareInfo_Finalize_m404687489
aXa:__Z23SetSpriteMeshIndexCountP14SharedMeshDataj
PKh:_UTF8Decoder_GetChars_m1236346907
cFf:_Quaternion_GetHashCode_m2636680144_AdjustorThunk
xue:__ZL99AudioSource_t3935305588_CustomAttributesCacheGenerator_AudioSource_t3935305588____clip_PropertyInfoP21CustomAttributesCache
I9j:__ZN6il2cpp8metadata13GenericMethod9GetMethodEPK19Il2CppGenericMethod
Nq:__ZNSt3__26vectorIN4core12basic_stringIcNS1_20StringStorageDefaultIcEEEENS_9allocatorIS5_EEE7reserveEj
gQe:_Default_SelectProperty_m1220817815
qjf:_RemotingConfiguration_IsRemotelyActivatedClientType_m4117048589
AHf:_Transform_TransformPoint_m226827784
Hbi:_ListPool_1_Get_m738675669_gshared
oLb:__ZN13GfxDeviceGLES11SetViewportERK5RectTIiE
_Fc:__Z24Time_Get_Custom_PropTimev
Nd:_emscripten_glDepthRange
v3i:_SslStreamBase_BeginNegotiateHandshake_m4180435790
AWc:__ZN9Scripting11UnityEngine10UILineInfo12CleanupProxyEv
Uac:__ZNSt3__26vectorINS_4pairIN4core12basic_stringIcNS2_20StringStorageDefaultIcEEEES6_EE13stl_allocatorIS7_L18MemLabelIdentifier38ELi16EEE12__move_rangeEPS7_SC_SC_
gfc:__Z14resize_trimmedINSt3__26vectorIN9ShaderLab20SerializedSubProgram12UAVParameterENS0_9allocatorIS4_EEEEEvRT_j
oLc:__ZN5Unity9rapidjson13GenericReaderINS0_4UTF8IcEES3_13JSONAllocatorE11ParseObjectILj1ENS0_25GenericInsituStringStreamIS3_EENS0_15GenericDocumentIS3_S4_S4_EEEEvRT0_RT1_
Vwd:_StandaloneInputModule_GetRawMoveVector_m2737091079
WDe:__ZL62Selectable_t3250028441_CustomAttributesCacheGenerator_m_ColorsP21CustomAttributesCache
O0g:_Convert_ToDateTime_m2616935982
BNb:__ZThn10632_N13GfxDeviceGLES22SetScissorRectPlatformERK5RectTIiE
d4i:_SslStreamBase_EndWrite_m4073224031
saa:__ZNSt3__218__insertion_sort_3IRNS_6__lessI14ObjectLoadDataS2_EEPS2_EEvT0_S6_T_
Fue:__ZL92Event_t2956885303_CustomAttributesCacheGenerator_Event_Internal_GetMousePosition_m1101229675P21CustomAttributesCache
bOi:_List_1_System_Collections_ICollection_get_SyncRoot_m1244917400_gshared
Uka:__ZL50__ManagedRegistrationHelperFunction_PostLateUpdatePv
JRa:__ZN4crndL20crnd_default_reallocEPvjPjbS0_
iCi:__Z54RuntimeInvoker_CustomAttributeNamedArgument_t287865710PFvvEPK10MethodInfoPvPS4_
tpe:__ZL122SupportedRenderingFeatures_t353898663_CustomAttributesCacheGenerator_U3CrendererSupportsReflectionProbesU3Ek__BackingFieldP21CustomAttributesCache
NRj:__ZN15dense_hashtableINSt3__24pairIK10KeyWrapperIPK22Il2CppGenericParameterEPK24MonoGenericParameterInfoEES6_N6il2cpp5utils11PointerHashIS4_EEN14dense_hash_mapIS6_SA_SF_NS6_14EqualsComparerINS0_8equal_toIS5_EEEENS0_9allocatorISB_EEE9SelectKeyESK_SM_E13set_empty_keyERKSB_
iYa:__ZN18SpriteAtlasManager19AddRequestingSpriteE4PPtrI6SpriteE
g6h:_Predicate_1_EndInvoke_m3987519925_gshared
Wve:__ZL102GUIStyle_t3956901511_CustomAttributesCacheGenerator_GUIStyle_INTERNAL_CALL_GetRectOffsetPtr_m152975056P21CustomAttributesCache
xQ:__ZNK4PPtrI9AudioClipEptEv
Hyd:_CanvasScaler_get_defaultSpriteDPI_m871626936
G7b:__ZN23ScriptableRenderContextC2Ev
jFd:_GridLayoutGroup_get_spacing_m2409263614
Rya:__ZN4PPtrI13RenderTextureE8TransferI18StreamedBinaryReadILb0EEEEvRT_
SGh:_List_1_CheckIndex_m581273900_gshared
Y6c:_UNITY_FT_Stream_GetChar
sMf:_WaitForSeconds_t1699091251_marshal_pinvoke
Xbi:_ObjectPool_1_get_countAll_m819305395_gshared
pzb:__Z18Transfer_BlittableI18StreamedBinaryReadILb1EELb1EdEvRK29SerializationCommandArgumentsR31RuntimeSerializationCommandInfo
xQi:_List_1_ToArray_m190175978_gshared
HFb:__Z26BuildSerializationCacheFor17ScriptingClassPtrRb
_sd:_EventSystem_get_firstSelectedGameObject_m1576206896
lRb:__ZN7ApiGLES15BlitFramebufferEN2gl6HandleILNS0_10ObjectTypeE9EEENS0_15FramebufferReadES3_S3_iiiiiiiiNS0_15FramebufferTypeE
LUj:_il2cpp_class_get_name
Loi:__Z112RuntimeInvoker_RuntimeObject_RuntimeObject_RuntimeObject_RuntimeObject_RuntimeObject_RuntimeObject_RuntimeObjectPFvvEPK10MethodInfoPvPS4_
Z4e:_InternalEnumerator_1_System_Collections_IEnumerator_get_Current_m3553395619_AdjustorThunk
B$d:__ZL70AssemblyVersionCompatibility_t766556580_CustomAttributesCacheGeneratorP21CustomAttributesCache
Tne:__ZL60ReadOnlyAttribute_t3518714744_CustomAttributesCacheGeneratorP21CustomAttributesCache
fBg:_Array_SetValue_m3998268557
JRc:__ZN8JSONRead8TransferI8Vector4fEEvRT_PKc17TransferMetaFlagsb
Ezd:_ColorBlock_set_highlightedColor_m2089444414_AdjustorThunk
iyi:__Z59RuntimeInvoker_Boolean_t97287965_X509ChainStatus_t133602714PFvvEPK10MethodInfoPvPS4_
gHf:_RectTransform_INTERNAL_set_anchoredPosition_m939517950
Ihg:_Context_EndSwitchingSecurityParameters_m4148956166
h2c:_otv_PairPos_validate
v9d:__ZL63ThreadStateException_t3003788475_CustomAttributesCacheGeneratorP21CustomAttributesCache
qy:__ZN7mecanim9animation14CopyHumanPosesEPKNS0_18AnimationNodeStateEPS1_RKNS_6bitsetILj83EEE
DKj:__ZN6il2cpp6icalls8mscorlib6SystemL8IsStaticEPK12PropertyInfo
MGb:__Z9InitInputv
IRj:__ZN30dense_hashtable_const_iteratorINSt3__24pairIK10KeyWrapperIPK22Il2CppGenericParameterEPK24MonoGenericParameterInfoEES6_N6il2cpp5utils11PointerHashIS4_EEN14dense_hash_mapIS6_SA_SF_NS6_14EqualsComparerINS0_8equal_toIS5_EEEENS0_9allocatorISB_EEE9SelectKeyESK_SM_E30advance_past_empty_and_deletedEv
b4c:_UNITY_tt_face_build_cmaps
UNj:__ZN6il2cpp2gc19AppendOnlyGCHashMapINSt3__24pairIPK10MethodInfoP11Il2CppClassEEP22Il2CppReflectionMethod17ReflectionMapHashIS9_ENS2_8equal_toIS9_EEE3AddERKS9_SB_
qgb:__ZN16MemoryFileSystem6DeleteER13FileEntryDatab
uji:__Z81RuntimeInvoker_Void_t1185182177_RuntimeObject_Int64_t3736567304_Int32_t2950945753PFvvEPK10MethodInfoPvPS4_
bIh:_List_1_set_Item_m1979164443_gshared
uih:_Array_InternalArray__ICollection_Add_TisLink_t3209266973_m77922316_gshared
ROa:__ZL21BlitScaleStbImageImplRK14ImageReferenceRS_NS_10ColorSpaceE
uDg:_Boolean_System_IConvertible_ToUInt16_m3465173538_AdjustorThunk
Is:__ZL48__ManagedRegistrationHelperFunction_SkeletonBonePv
stj:__ZL25UnresolvedVirtualCall_267P12Il2CppObjectiiPK10MethodInfo
bOf:_InputField_get_keyboardType_m1248105267
tqb:__Z29Transfer_Blittable_ArrayFieldI14SafeBinaryReadyEvRT_R9ArrayInfoRK23StaticTransferFieldInfo
EQ:__ZN20SoundChannelInstance15setChannelGroupEPN4FMOD12ChannelGroupE
w9i:_Match__ctor_m2425511580
uqh:_KeyPairPersistence_Remove_m1876145547
A0d:__ZL63FileNotFoundException_t225391025_CustomAttributesCacheGeneratorP21CustomAttributesCache
ic:invoke_vifffii
cCb:__Z35Transfer_Blittable_FixedBufferFieldI18StreamedBinaryReadILb0EEaEvRK29SerializationCommandArgumentsR31RuntimeSerializationCommandInfo
Keb:__ZNK25MultiBlocksMemoryFileData5CloneEv
wCg:_AsyncCallback_BeginInvoke_m2710486612
tfk:_GC_add_ext_descriptor
jMj:__ZNK15dense_hashtableINSt3__24pairIK10KeyWrapperINS1_IPK14Il2CppAssemblyP11Il2CppClassEEEjEES9_17ReflectionMapHashIS8_EN14dense_hash_mapIS9_jSD_NS9_14EqualsComparerINS0_8equal_toIS8_EEEENS0_9allocatorISB_EEE9SelectKeyESI_SK_E23find_position_with_hashERSA_j
bKi:_LayoutGroup_SetProperty_TisSingle_t1397266774_m793506911_gshared
ygk:__ZN6il2cpp2os14WindowsRuntime22GetRestrictedErrorInfoEv
Vof:_CryptoConfig_CreateFromName_m1538277313
Udb:__ZN17ArchiveFileSystem11CreateAsDirER13FileEntryData
Jqk:dynCall_iiiiiiiiiiii
op:__ZN9Scripting11UnityEngine2AI18NavMeshBuildSource9InitProxyEv
mOf:_InputField_set_caretPositionInternal_m3823580651
Qid:__ZN18UnityConnectClient16IsServiceEnabledEv
zqa:__ZN9Scripting11UnityEngine10ColorGamut9InitProxyEv
Qgb:__ZN22VertexDeclarationCacheD0Ev
gYf:_Selectable_set_interactable_m3105888815
GEa:__ZL26KeywordSetToStringDontSortRKNSt3__26vectorIN4core12basic_stringIcNS1_20StringStorageDefaultIcEEEENS_9allocatorIS5_EEEERS5_
nha:__ZN6prcoreL17RemapGenericFloatI16TexFormatRGFloat17TexFormatRGBAHalfEEvPKNS_9InnerInfoE
FS:__ZN12AudioManager22CreateFMODSoundFromWWWEP10IWWWStream15FMOD_SOUND_TYPE17FMOD_SOUND_FORMATjjbbP10SampleClip
Wwc:__ZNK32RendererMaterialAnimationBinding15GenerateBindingERKN4core12basic_stringIcNS0_20StringStorageDefaultIcEEEEbRN11UnityEngine9Animation14GenericBindingE
aNd:_TargetException__ctor_m4172127019
uPi:_List_1_CheckCollection_m274117203_gshared
xye:__ZL70EventSystem_t1003666588_CustomAttributesCacheGenerator_m_FirstSelectedP21CustomAttributesCache
F8:__ZN8Remapper23GetOrGenerateInstanceIDERK26SerializedObjectIdentifier
qAd:_ColorTween_get_startColor_m3792586410_AdjustorThunk
bbb:__ZN17FileSystemHandler10AtomicMoveER13FileEntryDataS1_
UGe:__ZL105TrackableField_t1772682203_CustomAttributesCacheGenerator_TrackableField__ctor_m3758796351____validTypes0P21CustomAttributesCache
clf:_BinaryFormatter_get_SurrogateSelector_m2111882017
iwg:_X509CertificateCollection__ctor_m3365535796
blb:__ZN11TextureData17GetImageReferenceEii
lOe:_CustomInfo__ctor_m426096741
qtd:_EventSystem_ToString_m3779610692
sXa:__ZN6Sprite8TransferI24GenerateTypeTreeTransferEEvRT_
kif:_SoapTypeAttribute_get_IsInteropXmlType_m629667929
Cqc:__Z48Register_UnityEngine_Transform_SetAsFirstSiblingv
hOa:__ZNK18DelayedCallManager22GetTypeVirtualInternalEv
xXa:__ZN7SubMesh8TransferI24GenerateTypeTreeTransferEEvRT_
Hdj:_Literal_IsComplex_m4067122560
Ayj:_NativeTypeAttribute__ctor_m133676646
oUb:__ZN19GfxThreadableDevice20SetShadersThreadableEPP10GpuProgramPPK20GpuProgramParametersPKPKh
STh:_Collection_1_System_Collections_IList_Contains_m296643274_gshared
HUg:_DirectoryInfo__ctor_m126519516
sJd:_MethodBase_GetMethodFromIntPtr_m3014201362
F_h:__ZN21InterfaceFuncInvoker1I19Color32_t2600501292iE6InvokeEjP11Il2CppClassP12Il2CppObjecti
Lcj:_Reference_get_CapturingGroup_m3861468528
$fi:__Z40RuntimeInvoker_TypeAttributes_t113483779PFvvEPK10MethodInfoPvPS4_
iqc:__ZN9Transform23SetSiblingIndexInternalEib
fQi:_List_1_Clear_m1143167521_gshared
pOc:__ZN9JSONWrite8TransferI13dynamic_arrayIaLj0EEEEvRT_PKc17TransferMetaFlags
SVh:_Collection_1_SetItem_m794903769_gshared
l_g:_Enumerator_MoveNext_m635366482
$xg:_X509Extension_Equals_m1222951829
Gw:__ZN7mecanim5human12HumanPoseSubERNS0_9HumanPoseERKS1_S4_
MDi:__Z37RuntimeInvoker_Enumerator_t1789501480PFvvEPK10MethodInfoPvPS4_
p3j:__ZN6il2cpp8metadata15GenericMetadata15GetGenericClassEiPK17Il2CppGenericInst
QFg:_Char_GetTypeCode_m2433327340_AdjustorThunk
Uob:__Z18Transfer_BlittableI14SafeBinaryReadLb0E10Matrix4x4fEvRK29SerializationCommandArgumentsR31RuntimeSerializationCommandInfo
YEb:__Z24GetFixedBehaviourManagerv
LXd:__ZL69IntPtr_t_CustomAttributesCacheGenerator_IntPtr_op_Equality_m408849716P21CustomAttributesCache
zJj:__ZN6il2cpp2vm10ThreadPool4WaitEP17Il2CppAsyncResultPPv
uxg:_PKCS12_Encrypt_m2617413749
H8i:_X509Crl_VerifySignature_m1377612461
Xlk:_vfprintf
RKc:__ZN10GUIManager12AddGUIScriptER8ListNodeI13MonoBehaviourE
hma:__ZL53__ManagedRegistrationHelperFunction_StackTraceUtilityPv
B_g:_Stack_Clear_m2010200235
GNa:__ZL13SortTexByNameRKNSt3__24pairIN9ShaderLab16FastPropertyNameEN18UnityPropertySheet11UnityTexEnvEEES7_
T_c:_cf2_getVStore
gvd:_PointerEventData_set_pointerPressRaycast_m1363193059
EZb:__ZN20DynamicPropertySheetD0Ev
BPd:_SafeHandle_Dispose_m4229010569
Yac:__ZN14SafeBinaryRead17RegisterConverterEPKcS1_PFbPvRS_E
lhe:__ZL77RuntimePlatform_t4159857903_CustomAttributesCacheGenerator_OSXDashboardPlayerP21CustomAttributesCache
Y0:__ZN35RegisterRuntimeInitializeAndCleanup8RegisterEPFvPvES2_iS0_
l6i:_SubjectAltNameExtension_get_IPAddresses_m1641002124
hTe:_FieldBuilder_SetValue_m828035213
s0h:_ReadOnlyCollection_1_System_Collections_IList_get_IsFixedSize_m733459177_gshared
Q4h:__ZN28GenericInterfaceFuncInvoker0IfE6InvokeEPK10MethodInfoP12Il2CppObject
gYd:__ZL72Enum_t4135868527_CustomAttributesCacheGenerator_Enum_ToObject_m121962870P21CustomAttributesCache
BHh:__ZN23InterfaceActionInvoker2IP24ObjectU5BU5D_t2843939325iE6InvokeEjP11Il2CppClassP12Il2CppObjectS1_i
mGc:__Z21Object_CUSTOM_DestroyP12Il2CppObjectf
cie:__ZL99SetupCoroutine_t2062820429_CustomAttributesCacheGenerator_SetupCoroutine_InvokeMoveNext_m3199342729P21CustomAttributesCache
nWb:__ZN8Material26ResetAllCachedMaterialDataEP6Shader
nni:__Z63RuntimeInvoker_Void_t1185182177_RuntimeObject_Int16_t2552820387PFvvEPK10MethodInfoPvPS4_
i7c:_UNITY_TT_Get_MM_Var
qmf:_ObjectManager_AddFixup_m2154325362
g7e:_Comparer_1__cctor_m3761458313_gshared
H6g:_DateTimeOffset_CompareTo_m1350732322_AdjustorThunk
aa:invoke_diddi
Vbd:__ZNK2UI6Canvas13GetRenderModeEv
bxf:_PersistentCall__ctor_m1217622171
jgh:_Array_compare_TisCustomAttributeTypedArgument_t2723150157_m1384644047_gshared
esh:_StrongName_get_TokenAlgorithm_m1794722022
dob:__Z18Transfer_BlittableI14SafeBinaryReadLb0EiEvRK29SerializationCommandArgumentsR31RuntimeSerializationCommandInfo
lHj:__ZN6il2cpp2vm13MetadataCache30GetPropertyDefinitionFromIndexEi
yij:_SymmetricTransform_Transform_m1683494363
nGf:_Rect_Contains_m1232228501
Tld:__ZN22BaseUnityConnectClient17InitializeSessionERKN4core12basic_stringIcNS0_20StringStorageDefaultIcEEEES6_N19CloudServiceHandler13InitModeFlagsE
P_d:__ZL56KeyCollection_t4251528776_CustomAttributesCacheGeneratorP21CustomAttributesCache
uti:__Z74RuntimeInvoker_RuntimeObject_Int32_t2950945753_RuntimeObject_RuntimeObjectPFvvEPK10MethodInfoPvPS4_
iVi:_List_1_get_Item_m200663048_gshared
VVd:_ReturnMessage_get_Exception_m3375728265
Awk:_emscripten_glDeleteBuffers__wrapper
E0e:_InternalEnumerator_1_MoveNext_m3664960764_AdjustorThunk
cDc:__ZN13MonoBehaviour34StopCoroutineFromEnumeratorManagedE18ScriptingObjectPtr
eie:__ZL57DebugLogHandler_t826086171_CustomAttributesCacheGeneratorP21CustomAttributesCache
QNi:_List_1__ctor_m1345008423_gshared
j5c:_gray_raster_reset
Rs:__ZN9Scripting11UnityEngine9HumanBone12CleanupProxyEv
jTc:__ZN11UnityEngine9Analytics18SceneLoadTimeEvent12SetSceneLoadERKN4core12basic_stringIcNS2_20StringStorageDefaultIcEEEEiyyyy
x4a:__ZN30RuntimeInitializeOnLoadManager8TransferI18StreamedBinaryReadILb0EEEEvRT_
v0g:_DateTimeOffset__ctor_m2084804982
E3c:_UNITY_tt_face_load_pclt
Rnb:__ZN9profiling17ScriptingProfiler31UpdateRegisteredScriptingEventsEv
Xmc:__ZL34GetComponentsImplementationRecurseILb1ELi0ELi2EEbR10GameObjectbRK17CompareParametersRK39GetComponentsImplementation_ReturnValue
HBg:_Array_Sort_m3698291233
Xzf:_Material_GetTexture_m3545614349
AYa:__ZN13ScreenManager22SetResolutionImmediateEii14FullscreenModei
eei:__Z64RuntimeInvoker_RuntimeObject_Int32_t2950945753_Int16_t2552820387PFvvEPK10MethodInfoPvPS4_
Toh:_ASN1_get_Length_m1923878580
Hxh:_EqualityComparer_1__cctor_m4244842342_gshared
ZYb:__ZNK6Camera18WorldToScreenPointERK8Vector3fPb
tIf:_SendMouseEvents_DoSendMouseEvents_m2140870850
Egd:__ZN14UnityAnalyticsD0Ev
waj:_PatternCompiler_EmitJump_m3915926156
MKb:__Z18IsCompressedFormat14GraphicsFormat
_w:__ZN7mecanim9animation19AdjustPoseForMotionERKNS0_14AvatarConstantERKNS0_14SkeletonTQSMapERKN4math4trsXERNS_10ValueArrayERNS_8skeleton13SkeletonPoseTIS8_EESG_
Kmf:_SerializationEntry_get_Name_m1530029541_AdjustorThunk
fLd:_MonoMethod_GetBaseDefinition_m2844667474
DNh:__Z33il2cpp_codegen_check_add_overflowxx
J6:__ZNSt3__227__insertion_sort_incompleteIRPFbRKN18AwakeFromLoadQueue4ItemES4_EPS2_EEbT0_S9_T_
mti:__Z71RuntimeInvoker_Boolean_t97287965_AnimatorControllerPlayable_t1015767841PFvvEPK10MethodInfoPvPS4_
the:__ZL73RuntimePlatform_t4159857903_CustomAttributesCacheGenerator_MetroPlayerARMP21CustomAttributesCache
_Tg:_InvalidOperationException__ctor_m1685032583
lFj:__ZN14dense_hash_mapI10KeyWrapperIN6il2cpp5utils13dynamic_arrayIPK10Il2CppTypeLj4EEEEPFvvENS1_8metadata19Il2CppSignatureHashENS8_14EqualsComparerINSB_22Il2CppSignatureCompareEEENSt3__29allocatorINSG_4pairIKS8_SA_EEEEE15set_deleted_keyERSJ_
jOh:_TimeSpan_op_Subtraction_m3592306516
Fzh:_EqualityComparer_1_System_Collections_IEqualityComparer_GetHashCode_m1517903420_gshared
$Va:__ZN26EnlightenSystemInformation8TransferI14SafeBinaryReadEEvRT_
l5a:__ZN24GenerateTypeTreeTransfer8TransferINSt3__26vectorIN15ResourceManager10DependencyE13stl_allocatorIS4_L18MemLabelIdentifier52ELi16EEEEEEvRT_PKc17TransferMetaFlags
zvj:_CanvasRenderer_SplitUIVertexStreams_m2753637362
Vui:__Z119RuntimeInvoker_Void_t1185182177_RuntimeObject_Single_t1397266774_Single_t1397266774_SByte_t1669577662_Int32_t2950945753PFvvEPK10MethodInfoPvPS4_
Yza:__ZN27PerObjectLightCullingOutputD2Ev
Q0a:__ZN12MeshRendererD0Ev
QT:__ZN12AudioManager35GetCurrentSpatializerDefinitionNameEv
PJf:_TouchScreenKeyboard_get_active_m4267591905
wma:__ZN9Scripting11UnityEngine14WaitForSeconds9InitProxyEv
eRj:__ZNK15dense_hashtableINSt3__24pairIK10KeyWrapperIPK14Il2CppAssemblyEPK22Il2CppMonoAssemblyNameEES6_N6il2cpp5utils11PointerHashIS4_EEN14dense_hash_mapIS6_SA_SF_NS6_14EqualsComparerINS0_8equal_toIS5_EEEENS0_9allocatorISB_EEE9SelectKeyESK_SM_E8min_sizeEjj
yh:_utime
uoe:__ZL56PlayableGraph_t3515989261_CustomAttributesCacheGeneratorP21CustomAttributesCache
Pcj:_BalancingGroup_Compile_m2575117193
GTj:__ZNSt3__26vectorIN6il2cpp2vm17TypeNameParseInfoENS_9allocatorIS3_EEE8allocateEj
Ws:__ZN9Scripting11UnityEngine22AnimatorTransitionInfo9InitProxyEv
r9i:_Mark_get_Index_m3048692661_AdjustorThunk
d5i:_TlsServerSettings_get_CertificateRequest_m842655670
on:FUNCTION_TABLE_viiiiif
I6e:_DefaultComparer_Compare_m3931992727_gshared
tn:FUNCTION_TABLE_viiiiii
B5e:_InternalEnumerator_1_System_Collections_IEnumerator_get_Current_m1847780851_AdjustorThunk
ohj:_GUILayoutUtility_get_spaceStyle_m3392862907
eqg:_SecurityException_ToString_m3228070608
w0g:_DateTimeOffset__ctor_m74032857
oyg:_SmallXmlParser_Error_m3899025466
XF:__ZN7mecanim9animation22DestroyAvatarWorkspaceEPNS0_15AvatarWorkspaceERNS_6memory9AllocatorE
dPh:_Type_type_is_assignable_from_m76737532
QHc:__ZN9Scripting11UnityEngine14GUILayoutGroup12CleanupProxyEv
iTf:_MaskableGraphic_ParentMaskStateChanged_m1092090553
$Na:__ZN14PlayableOutput17SetSourcePlayableEP8Playable
p4a:__ZNSt3__26vectorIN4core12basic_stringIcNS1_20StringStorageDefaultIcEEEE13stl_allocatorIS5_L18MemLabelIdentifier13ELi16EEE8__appendEj
yF:__ZN7mecanim9animation29MotionOutputGetDeltaTransformEPKNS0_12MotionOutputE
iTc:__ZN27PerformanceReportingManager21OnSceneTimingCallbackERK15SceneLoadTimingRKN4core12basic_stringIcNS3_20StringStorageDefaultIcEEEE
G5i:_ValidationResult_get_ErrorCode_m1533688152
Qpc:__Z43Transform_CUSTOM_INTERNAL_get_localRotationP12Il2CppObjectP11Quaternionf
PMg:_CultureInfo_get_Parent_m672689885
Qfk:__ZN6il2cpp6icalls8mscorlib6System10Reflection4Emit13ModuleBuilder13RegisterTokenEP29Il2CppReflectionModuleBuilderP12Il2CppObjecti
Tli:__Z50RuntimeInvoker_Int64_t3736567304_SByte_t1669577662PFvvEPK10MethodInfoPvPS4_
Fuk:_glGetShaderInfoLog__wrapper
Ope:__ZL63SpriteBone_t303320096_CustomAttributesCacheGenerator_m_ParentIdP21CustomAttributesCache
Kdf:_Transform_1_EndInvoke_m2716226219_gshared
bi:_emscripten_glGetTexParameteriv
uka:__ZL49__ManagedRegistrationHelperFunction_ComputeBufferPv
cjd:__ZN11UnityEngine7Connect15DeviceInfoEvent7GFXInfoD2Ev
bwk:_glGenTextures__wrapper
wXj:__ZN15dense_hashtableINSt3__24pairIK10KeyWrapperINS1_IP11Il2CppClassjEEES4_EES6_N6il2cpp8metadata14ArrayClassHashEN14dense_hash_mapIS6_S4_SB_NS6_14EqualsComparerINSA_17ArrayClassCompareEEENS0_9allocatorIS8_EEE9SelectKeyESF_SH_EC2EjRKSB_RKSF_RKSJ_
vJh:_UnicodeEncoding_GetHashCode_m354003420
Dfc:__ZN9ShaderLab20SerializedSubProgram14ConstantBufferaSERKS1_
ubh:_Enum_Equals_m3617313991
yYd:__ZL69RuntimeArray_CustomAttributesCacheGenerator_Array_SetValue_m394135409P21CustomAttributesCache
uxi:__Z74RuntimeInvoker_Boolean_t97287965_LineTypeU26_t2430394419_Int32_t2950945753PFvvEPK10MethodInfoPvPS4_
YKa:__ZN8PlayableD0Ev
vg:emscriptenWebGLGetBufferBinding
eM:__ZN12AudioManager8TransferI19StreamedBinaryWriteILb0EEEEvRT_
JYf:_Slider_UpdateCachedReferences_m3259451627
Nee:__ZL63X509ChainStatusFlags_t1026973125_CustomAttributesCacheGeneratorP21CustomAttributesCache
Ili:__Z50RuntimeInvoker_Double_t594665363_Double_t594665363PFvvEPK10MethodInfoPvPS4_
pki:__Z60RuntimeInvoker_Void_t1185182177_StreamingContext_t3711869237PFvvEPK10MethodInfoPvPS4_
sGe:__ZL62Shadow_t773074319_CustomAttributesCacheGenerator_m_EffectColorP21CustomAttributesCache
oYj:__ZN15dense_hashtableINSt3__24pairIK10KeyWrapperINS1_IP11Il2CppClassjEEES4_EES6_N6il2cpp8metadata14ArrayClassHashEN14dense_hash_mapIS6_S4_SB_NS6_14EqualsComparerINSA_17ArrayClassCompareEEENS0_9allocatorIS8_EEE9SelectKeyESF_SH_E6insertERKS8_
SCd:_U3CShowU3Ec__AnonStorey1_U3CU3Em__0_m2340880019
Wld:__ZN22BaseUnityConnectClient38PrepareConfigRequestOnMainThreadStaticEPS_
WXf:_Selectable_OnSetProperty_m1693943217
OGh:_List_1_GetIndex_m2300811709_gshared
Vwc:__ZNK32RendererMaterialAnimationBinding12GetPPtrValueERKN11UnityEngine9Animation10BoundCurveE
nBb:__Z18Transfer_BlittableI18StreamedBinaryReadILb0EELb0E8Vector2fEvRK29SerializationCommandArgumentsR31RuntimeSerializationCommandInfo
efd:__ZN2UI11CanvasGroup12CleanupClassEv
A5i:_TlsStream_Flush_m3793197834
KHh:_List_1_GetIndex_m2832472557_gshared
dbb:__ZN22LocalFileSystemHandler9MakeLocalER13FileEntryDatab
jbk:__ZN6il2cpp2vm8Profiler10AllocationEP12Il2CppObjectP11Il2CppClass
PBe:__ZL61Graphic_t1660335611_CustomAttributesCacheGenerator_m_MaterialP21CustomAttributesCache
Ega:__Z13FormatOrderedPKcz
_Kj:__ZN6il2cpp2vm8basepathEPKc
D3e:_InternalEnumerator_1_get_Current_m1506120701_AdjustorThunk
S4f:_X509Chain_GetAuthorityKeyIdentifier_m614536199
XWc:__ZN14SafeBinaryRead21TransferSTLStyleArrayI10vector_mapINSt3__24pairIttEEfN20TextRenderingPrivate8FontImpl14KerningCompareENS2_9allocatorINS3_IS4_fEEEEEEEvRT_17TransferMetaFlags
vgg:_TlsServerFinished__ctor_m1445633918
dOe:_NumberFormatter_FastIntegerToString_m390846811
nSf:__ZN21InterfaceFuncInvoker0IfE6InvokeEjP11Il2CppClassP12Il2CppObject
h0a:__ZN14CompressedMesh10GetQualityE15MeshCompression
v4b:__ZN25DeferredRenderLoopScratchD0Ev
gz:__ZN27AnimationLayerMixerPlayable14SetInputWeightEif
eri:__Z83RuntimeInvoker_Void_t1185182177_RuntimeObject_Single_t1397266774_Single_t1397266774PFvvEPK10MethodInfoPvPS4_
Lud:_PhysicsRaycaster_Raycast_m776323695
$Kf:_UnityException__ctor_m1456865679
Cw:__ZN7mecanim9animation17EvaluateHumanPoseERKNS0_18ClipMuscleConstantERKNS0_15ClipMuscleInputEPKfRKNS0_12MotionOutputERNS_5human9HumanPoseE
qze:__ZL92PointerEventData_t3807901092_CustomAttributesCacheGenerator_U3CscrollDeltaU3Ek__BackingFieldP21CustomAttributesCache
Oec:__ZN15dense_hashtableINSt3__24pairIKiN4core17string_with_labelILi1EEEEEi18SInt32HashFunctionN14dense_hash_mapIiS5_S7_NS0_8equal_toIiEE13stl_allocatorIS6_L18MemLabelIdentifier1ELi16EEE9SelectKeyESA_SD_E9copy_fromERKSG_j
FQe:_CustomAttributeNamedArgument_GetHashCode_m2317130892
I4a:__ZN15ResourceManagerD0Ev
Fxh:_EqualityComparer_1_get_Default_m990790318_gshared
wUf:_GetRayIntersectionAllCallback__ctor_m391992746
yBa:__ZN22CreateGpuProgramOutputD2Ev
mUi:_List_1_get_Item_m1378751541_gshared
zwb:__Z18Transfer_BlittableI19StreamedBinaryWriteILb0EELb1EsEvRK29SerializationCommandArgumentsR31RuntimeSerializationCommandInfo
N6d:__ZL52HMACSHA512_t923916539_CustomAttributesCacheGeneratorP21CustomAttributesCache
vgf:_ValueCollection_CopyTo_m2188334703_gshared
vHf:__ZN23InterfaceActionInvoker1IP25RectTransform_t3704657025E6InvokeEjP11Il2CppClassP12Il2CppObjectS1_
Jlg:_SHA1CryptoServiceProvider_Finalize_m1793183797
B$g:_Convert_ToByte_m4146281512
mBh:_HashSet_1_System_Collections_Generic_ICollectionU3CTU3E_CopyTo_m408073502_gshared
Gcg:_EncryptedPrivateKeyInfo_get_EncryptedData_m491452551
sbb:__ZN12HandlerChain4OpenER13FileEntryData14FilePermission16FileAutoBehavior
fjh:_Array_InternalArray__ICollection_Add_TisPlayerLoopSystem_t105772105_m1930641144_gshared
WAi:__Z72RuntimeInvoker_Void_t1185182177_Int32_t2950945753_RaycastHit_t1056001966PFvvEPK10MethodInfoPvPS4_
dbe:__ZL79Convert_t2465617642_CustomAttributesCacheGenerator_Convert_ToUInt16_m1147931813P21CustomAttributesCache
YNj:__ZN15dense_hashtableINSt3__24pairIK10KeyWrapperINS1_IPK10MethodInfoP11Il2CppClassEEEjEES9_17ReflectionMapHashIS8_EN14dense_hash_mapIS9_jSD_NS9_14EqualsComparerINS0_8equal_toIS8_EEEENS0_9allocatorISB_EEE9SelectKeyESI_SK_E6insertERKSB_
TK:__ZL55__ManagedRegistrationHelperFunction_AudioPlayableOutputPv
uTc:__ZN27PerformanceReportingManager29OnSceneLoadedAfterAwakeStaticEPS_iR18AwakeFromLoadQueueN19RuntimeSceneManager11LoadingModeE
dBg:_Array_SetValue_m394135409
N9:__ZN14FileCacherReadD2Ev
C7a:__ZN13RendererScene23UpdatePreviousFrameDataEii
XBf:_MonoBehaviour_StopCoroutine_m615723318
Fmc:__Z50Register_UnityEngine_CullingGroup_FinalizerFailurev
LLi:_Mesh_GetAllocArrayFromChannel_TisVector2_t2156229523_m1057679375_gshared
xog:_SecurityPermission_IsSubsetOf_m545000671
AAa:__ZNK4PPtrI5FlareEcvPS0_Ev
Zz:__ZN26AnimatorControllerPlayable6MemoryD2Ev
DDi:__Z56RuntimeInvoker_Int32_t2950945753_SpriteState_t1362986479PFvvEPK10MethodInfoPvPS4_
Fjc:__ZN12ShaderErrors11ShaderErrorC2EOS0_
Hok:__ZNKSt3__221__basic_string_commonILb1EE20__throw_out_of_rangeEv
Cvf:_Cursor_get_lockState_m2828192107
Lgi:__Z78RuntimeInvoker_Boolean_t97287965_RuntimeObject_RuntimeObject_Int32_t2950945753PFvvEPK10MethodInfoPvPS4_
EIj:_UpdatedEventHandler_Invoke_m1320302085
otg:_String_Format_m630303134
c1j:__ZNK15dense_hashtableINSt3__24pairIK10KeyWrapperIP14Il2CppIUnknownEjEES5_N6il2cpp5utils11PointerHashIS3_EEN14dense_hash_mapIS5_jSB_NS5_14EqualsComparerINS0_8equal_toIS4_EEEENS0_9allocatorIS7_EEE9SelectKeyESG_SI_E12test_deletedERK24dense_hashtable_iteratorIS7_S5_SB_SK_SG_SI_E
sS:__ZN9AudioClip23VirtualRedirectTransferER18StreamedBinaryReadILb0EE
TG:__ZN26AnimatorOverrideController23VirtualRedirectTransferER24GenerateTypeTreeTransfer
JUi:_List_1_AddEnumerable_m2724989594_gshared
KVi:_List_1_Contains_m2043463915_gshared
Nti:__Z82RuntimeInvoker_Vector2_t2156229523_Vector2_t2156229523_RuntimeObject_RuntimeObjectPFvvEPK10MethodInfoPvPS4_
PEc:__Z70Register_UnityEngine_Playables_PlayableHandle_GetPlayableType_Injectedv
jJb:__ZNK4PPtrI23ShaderVariantCollectionEcvPS0_Ev
zbg:_ARC4Managed_TransformBlock_m1687647868
Cj:_glCopyTexSubImage2D
bxc:__ZNK24RendererAnimationBinding13GetFloatValueERKN11UnityEngine9Animation10BoundCurveE
YZ:__ZNK15DownloadHandler14HasPendingDataEv
eLf:_UnitySynchronizationContext_ExecuteTasks_m1310741010
K2i:_RIPEMD160Managed_CompressFinal_m497690796
rGb:__ZN18ScreenManagerWebGL13SetShowCursorEb
bZe:_InternalEnumerator_1_MoveNext_m1773160976_gshared
pUb:__ZN13DrawImmediateC2ER9GfxDevice
YDa:__ZN18VertexChannelsInfoC2ERA12_K11ChannelInfo
Ecd:__ZN2UI13CanvasManager14GetRenderOrderEPKNS_6CanvasE
Qob:__Z18Transfer_BlittableI14SafeBinaryReadLb0E5RectTIfEEvRK29SerializationCommandArgumentsR31RuntimeSerializationCommandInfo
hOe:_NumberFormatter_NumberToString_m2562899600
Zmg:_SymmetricAlgorithm_get_FeedbackSize_m3666584308
p2c:_otv_u_C_x_Ox
_Uc:__ZL44__ManagedRegistrationHelperFunction_ColliderPv
wYd:__ZL70RuntimeArray_CustomAttributesCacheGenerator_Array_GetValue_m1062368071P21CustomAttributesCache
Rwk:_emscripten_glGenVertexArrays__wrapper
wTh:_Version_Clone_m1749041863
Dcf:_ShimEnumerator_get_Key_m4155849607_gshared
rPa:__ZN6prcoreL21CreateRemapAnyBlitterE13TextureFormatS0_
idg:_RSAManaged_ExportParameters_m1754454264
xBc:__ZN17AnimationCurveTplIfE16StripInvalidKeysEv
GDg:_Boolean_Equals_m535526264_AdjustorThunk
eDi:__Z71RuntimeInvoker_KeyValuePair_2_t71524366_Int32_t2950945753_RuntimeObjectPFvvEPK10MethodInfoPvPS4_
Fnd:__ZN13dynamic_arrayIiLj0EE6insertEPiPKiS3_
Ocd:__ZNK2UI6Canvas17GetSortingLayerIDEv
C3g:_Convert_ToUInt16_m3116648921
rCc:__ZL12HashLen0to16PKcj
EVj:_il2cpp_method_has_attribute
uVa:__ZN8Renderer24SetupNewRendererForSceneEv
ZOh:_Type_internal_from_name_m1721940673
XVj:_il2cpp_type_get_class_or_element_class
EIi:_Array_swap_TisCustomAttributeTypedArgument_t2723150157_TisCustomAttributeTypedArgument_t2723150157_m365781156_gshared
Bbh:_Environment_get_TickCount_m2088073110
Ujf:_RemotingServices_GetMethodBaseFromName_m3194612939
TPc:__Z35Transfer_Blittable_FixedBufferFieldI8JSONReadtEvRK29SerializationCommandArgumentsR31RuntimeSerializationCommandInfo
wAa:__ZN4PPtrI7TextureE8TransferI14SafeBinaryReadEEvRT_
wzc:__ZN14PlayableOutput6HandleEv
GWa:__ZNK6Sprite22GetTypeVirtualInternalEv
Lpa:__ZN9Scripting11UnityEngine12Experimental9Playables22MaterialEffectPlayable9InitProxyEv
Kld:__ZNSt3__26__treeINS_12__value_typeIN4core12basic_stringIcNS2_20StringStorageDefaultIcEEEEN11UnityEngine7Connect19RemoteSettingsValueEEENS_19__map_value_compareIS6_SA_NS_4lessIS6_EELb1EEE13stl_allocatorISA_L18MemLabelIdentifier6ELi16EEE16__construct_nodeIJNS_4pairIS6_S9_EEEEENS_10unique_ptrINS_11__tree_nodeISA_PvEENS_22__tree_node_destructorISF_ISP_LSG_6ELi16EEEEEEDpOT_
nn:FUNCTION_TABLE_iiiiiiiiiiiiii
wyj:_NativePropertyAttribute__ctor_m2033094153
Vnd:__ZN19UnityConnectService18OnPlayerQuitStaticEPS_
g3c:_UNITY_tt_get_cmap_info
Ekg:_SslClientStream_RaiseServerCertificateValidation_m3477149273
Evb:__Z29Transfer_Blittable_ArrayFieldI24GenerateTypeTreeTransfer5RectTIiEEvRT_R9ArrayInfoRK23StaticTransferFieldInfo
vGa:__ZN16ReflectionProbes8ScheduleEN18ReflectionProbeJob7JobTypeEP15ReflectionProbei
zgg:_ClientSessionInfo_KeepAlive_m1020179566
$Vi:_List_1_ToArray_m4056539300_gshared
M$d:__ZL51Calendar_t1661121569_CustomAttributesCacheGeneratorP21CustomAttributesCache
Vaa:__ZN16MessageForwarder13HandleMessageEPviR11MessageData
Tcb:__Z18IsDirectoryCreatedRKN4core12basic_stringIcNS_20StringStorageDefaultIcEEEE
jog:_String_FormatHelper_m3913915042
Mad:__ZN2UI13CanvasManagerD2Ev
kQe:_ConstructorInfo__cctor_m1016079270
ZBj:__ZN15dense_hashtableINSt3__24pairIK10KeyWrapperIPKcEP11Il2CppClassEES5_N6il2cpp5utils11StringUtils12StringHasherIS4_EEN14dense_hash_mapIS5_S8_SE_NS5_14EqualsComparerINSB_13VmStringUtils21CaseSensitiveComparerEEENS0_9allocatorIS9_EEE9SelectKeyESJ_SL_E15set_deleted_keyERKS9_
TTh:__ZN21InterfaceFuncInvoker1Ib20UIVertex_t4057497605E6InvokeEjP11Il2CppClassP12Il2CppObjectS0_
gXh:_ReadOnlyCollection_1_Contains_m1700717617_gshared
azg:_AttrListImpl_get_Names_m977594476
DQe:_CustomAttributeData_GetHashCode_m3727773664
nZc:_UNITY_FT_GlyphLoader_Done
fga:__ZNSt3__23mapIiN11TypeManager18TypeCallbackStructENS_4lessIiEENS_9allocatorINS_4pairIKiS2_EEEEEixERS7_
Zve:__ZL89GUIStyle_t3956901511_CustomAttributesCacheGenerator_GUIStyle_get_stretchWidth_m3556443132P21CustomAttributesCache
UMd:_Pointer_Box_m389276611
nnb:__ZNK17InstancingBatcher15RenderInstancesERK19ShaderPropertySheetRKNS_22RenderInstancesConfigsERK11MeshBuffersRK16DrawBuffersRange16VertexInputMasks
z9g:_StackTrace_get_FrameCount_m344690939
B9:__ZN13dynamic_arrayIcLj0EE6insertEPcPKcS3_
cJe:_UnexceptionalStreamWriter_Write_m363195622
FAe:__ZL108U3CStartU3Ec__Iterator0_t1249263001_CustomAttributesCacheGenerator_U3CStartU3Ec__Iterator0__ctor_m1316384627P21CustomAttributesCache
g4c:_tt_cmap14_char_var_index
lCb:__Z35Transfer_Blittable_FixedBufferFieldI18StreamedBinaryReadILb0EEdEvRK29SerializationCommandArgumentsR31RuntimeSerializationCommandInfo
$Of:_Selectable_OnPointerDown_m1086067264
l8c:_psh_globals_new
kCd:_Dropdown_SetupTemplate_m628218778
VKh:_Thread_GetCompressedStack_m2923422412
Xdg:__ZN28GenericInterfaceFuncInvoker2IbP26X509Certificate_t713131622P22Int32U5BU5D_t385246372E6InvokeEPK10MethodInfoP12Il2CppObjectS1_S3_
KAf:_Matrix4x4_MultiplyPoint3x4_m4145063176
f3f:_X509BasicConstraintsExtension_ToString_m1809935297
Zgb:__ZN9GfxDevice20SetMaxBufferedFramesEi
sbi:_TweenRunner_1_StartTween_m1055628540_gshared
nZh:_ReadOnlyCollection_1_System_Collections_IList_Remove_m4129318771_gshared
PJi:_GameObject_GetComponents_TisRuntimeObject_m1246177135_gshared
jP:__ZN24AudioScriptBufferManagerD2Ev
Zqk:dynCall_vdd
WJe:_MethodAccessException__ctor_m3542088436
rcc:__Z23ConvertIntegerToTypePtrIsEbPvR14SafeBinaryRead
ut:__ZN9Scripting11UnityEngine10Animations26AnimatorControllerPlayable9InitProxyEv
QGg:_ArrayListWrapper_get_Capacity_m51087796
GQf:_LayoutElement_get_minHeight_m4160507569
dmd:__ZN11UnityEngine7Connect13ConfigHandler13ConfigChangedERKN4core12basic_stringIcNS2_20StringStorageDefaultIcEEEEb
$wh:_EqualityComparer_1_System_Collections_IEqualityComparer_GetHashCode_m2230215241_gshared
WEe:__ZL60ContentSizeFitter_t3850442145_CustomAttributesCacheGeneratorP21CustomAttributesCache
hKg:_Hashtable_Contains_m2145146412
yge:__ZL64UnmarshalledAttribute_t1517743549_CustomAttributesCacheGeneratorP21CustomAttributesCache
xja:__ZN6prcoreL29inner_stretch_rgb565_bilinearEPKNS_9InnerInfoE
_xf:_MaterialEffectPlayable_Equals_m3750885802
iDa:__Z26TransformVerticesInnerLoopILb0ELb0ELb1EEvPhRK10Matrix4x4fRK10Matrix3x3fjPKhiS8_ii25GfxTransformVerticesFlagsj
uik:__ZN6il2cpp2os9FastMutex4LockEv
jRg:_Int32_FindCurrency_m3541026887
W8f:_Interval_CompareTo_m3282557545
Pxk:_pthread_cond_wait__wrapper
C3b:__ZNK14RenderSettings19GetFlatAmbientColorEv
DCa:__ZN8DrawUtil24DrawMeshRawFromNodeQueueERK15RenderNodeQueuej16VertexInputMasksi
z3a:__ZN18StreamedBinaryReadILb0EE21TransferSTLStyleArrayI10vector_mapIPKN5Unity4TypeE7Hash128NSt3__24lessIS6_EENS8_9allocatorINS8_4pairIS6_S7_EEEEEEEvRT_17TransferMetaFlags
dB:__ZNK27StateMachineBehaviourPlayer15IsSenderEnabledEv
zOj:__ZN6il2cpp2gc19AppendOnlyGCHashMapINSt3__24pairIPK11Il2CppImageP11Il2CppClassEEP22Il2CppReflectionModule17ReflectionMapHashIS9_ENS2_8equal_toIS9_EEE11TryGetValueERKS9_PSB_
xEe:__ZL58Text_t1901882714_CustomAttributesCacheGenerator_m_FontDataP21CustomAttributesCache
DTe:_GenericTypeParameterBuilder_IsPrimitiveImpl_m1952010459
SYh:_ReadOnlyCollection_1_CopyTo_m3474153465_gshared
t2i:_RijndaelManagedTransform_TransformBlock_m1610137419
xqc:__Z40Register_UnityEngine_Transform_SetParentv
P7d:__ZL94WindowsIdentity_t2948242406_CustomAttributesCacheGenerator_WindowsIdentity_Dispose_m3466258450P21CustomAttributesCache
IOa:__ZN14Texture2DArray17UploadToGfxDeviceEv
aO:__Z14FMODMemoryFreePvjPKc
bse:__ZL100RectTransform_t3704657025_CustomAttributesCacheGenerator_RectTransform_INTERNAL_get_rect_m3130887130P21CustomAttributesCache
uEh:_Enumerator__ctor_m2029608698_gshared
Epa:__ZN9Scripting11UnityEngine12Experimental10PlayerLoop11FixedUpdate12CleanupProxyEv
Wwf:_NetFxCoreExtensions_GetMethodInfo_m444570327
QOh:_Type_get_IsSystemType_m624798880
lBf:_Mesh_SetNormals_m2521889643
a0d:__ZL77RegionInfo_t1090270226_CustomAttributesCacheGenerator_U3CU3Ef__switchU24map1BP21CustomAttributesCache
y$c:_cf2_glyphpath_moveTo
MTi:_List_1_AddCollection_m1469681717_gshared
YDc:__Z51Register_UnityEngine_Texture_get_texelSize_Injectedv
aJf:_StackTraceUtility_SetProjectFolder_m830524047
Dx:__ZN7mecanim23TransformValueArrayLoopEiiiRKN4math4trsXES3_RNS_10ValueArrayEf
Ogg:_ClientSessionInfo_Finalize_m2165787049
qKc:__ZN5IMGUI14GUIWindowStateD2Ev
Lfg:_ClientContext_Clear_m1774063253
QAc:__ZN4Mesh17SetIndicesComplexEPKvjj16GfxPrimitiveTypeij
T5g:_DateTime_AddSeconds_m332574389_AdjustorThunk
NKf:_RequestAtlasCallback_Invoke_m378128467
hEg:_Byte_System_IConvertible_ToSByte_m1869482168
Jji:__Z99RuntimeInvoker_RuntimeObject_RuntimeObject_RuntimeObject_StreamingContext_t3711869237_RuntimeObjectPFvvEPK10MethodInfoPvPS4_
Ojj:_AnalyticsEventTracker_Awake_m2780522130
DE:__ZN7mecanim5human10RetargetToEPKNS0_5HumanEPKNS0_9HumanPoseES6_RKN4math4trsXEPS4_PNS_8skeleton13SkeletonPoseTIS8_EESF_
wx:__ZN7mecanim9animation8SeekClipERKNS0_12StreamedClipERNS0_18StreamedClipMemoryEf
Hyf:_GameObject_Internal_AddComponentWithType_m3797731663
lm:_emscripten_glIsTexture
Sk:_emscripten_glHint
Sij:_Check_SourceAndPredicate_m2332465641
mYd:__ZL70RuntimeArray_CustomAttributesCacheGenerator_Array_get_Length_m21610649P21CustomAttributesCache
W6c:_ft_var_readpackeddeltas
Joe:__ZL80Logger_t274032455_CustomAttributesCacheGenerator_U3ClogEnabledU3Ek__BackingFieldP21CustomAttributesCache
Auh:_Dictionary_2_Clear_m1938428402_gshared
Myb:__Z35Transfer_Blittable_FixedBufferFieldI18StreamedBinaryReadILb1EEtEvRK29SerializationCommandArgumentsR31RuntimeSerializationCommandInfo
iRh:_UInt32_System_IConvertible_ToInt64_m2261037378
om:_SDL_UpperBlit
qGa:__Z35GetTextureDecodeValuesWithIntensity16TextureUsageMode17TextureColorSpace10ColorSpacef
Abj:_Parser_ParseRepetitionBounds_m1246581246
gdh:_Array_InternalArray__ICollection_Remove_TisChar_t3634460470_m4143749387_gshared
DUb:__ZN15dense_hashtableINSt3__24pairIK9TextureIDiEES2_14GfxGenericHashIS2_EN14GfxDoubleCacheIS2_iS6_NS0_8equal_toIS2_EEN31GfxDoubleCacheConcurrencyPolicy11LocklessGetE42GfxDoubleCacheDefaultEmptyDeletedGeneratorIS2_EE9SelectKeyES9_13stl_allocatorIS4_L18MemLabelIdentifier24ELi16EEE14squash_deletedEv
Zrc:__Z13RegisterClassI14Texture2DArrayEvPKc
xPj:__ZN15dense_hashtableINSt3__24pairIK10KeyWrapperINS1_IPK12PropertyInfoP11Il2CppClassEEEjEES9_17ReflectionMapHashIS8_EN14dense_hash_mapIS9_jSD_NS9_14EqualsComparerINS0_8equal_toIS8_EEEENS0_9allocatorISB_EEE9SelectKeyESI_SK_ED2Ev
Uvg:_Encoding_GetBytes_m3823106599
_Lg:_GregorianCalendar__ctor_m979779718
dkg:_SslClientStream__ctor_m2402546929
fFb:__ZN14SafeBinaryRead20OverrideRootTypeNameEPKc
n$f:_DictionaryNodeEnumerator_get_Entry_m2309234501
czj:__ZNK10KeyWrapperIPK22Il2CppGenericParameterE14EqualsComparerINSt3__28equal_toIS2_EEEclERKS3_SA_
R9:__ZN14FileCacherRead16UnlockCacheBlockEj
HDh:_Enumerator_Dispose_m951715887_AdjustorThunk
m_e:_InternalEnumerator_1_System_Collections_IEnumerator_Reset_m521819017_AdjustorThunk
sH:__ZN26AnimatorOverrideController8TransferI24GenerateTypeTreeTransferEEvRT_
XVg:_IsolatedStorageException__ctor_m1022659452
$3:__ZN10InstancingL21OnGraphicsCapsChangedEv
lsb:__Z18Transfer_BlittableI17RemapPPtrTransferLb1E8Vector3fEvRK29SerializationCommandArgumentsR31RuntimeSerializationCommandInfo
i3d:__ZL61ClassInterfaceType_t4029497327_CustomAttributesCacheGeneratorP21CustomAttributesCache
Lme:__ZL101SystemInfo_t3561985952_CustomAttributesCacheGenerator_SystemInfo_GetOperatingSystemFamily_m1440411909P21CustomAttributesCache
YMh:_WaitHandle_get_Handle_m3260446580
CEh:_Enumerator_VerifyState_m1745883925_AdjustorThunk
Gc:_emscripten_glUniform1f
GZg:_SortedList__ctor_m1261191695
SWj:__ZN6il2cpp2vm6Thread28GetThreadStaticDataForThreadEiP12Il2CppThread
G2h:_ReadOnlyCollection_1_System_Collections_IList_get_IsReadOnly_m165706550_gshared
Uei:__Z75RuntimeInvoker_Int32_t2950945753_DecimalU26_t3714369516_Int64U26_t200113976PFvvEPK10MethodInfoPvPS4_
_Zc:__Z20ParseImageParametersR11UTF16StringRiRN20TextRenderingPrivate16TextFormatChangeE
LEe:__ZL55CanvasScaler_t2767979955_CustomAttributesCacheGeneratorP21CustomAttributesCache
aVh:_Collection_1_RemoveItem_m2942561924_gshared
Lc:_emscripten_glUniform1i
$tb:__Z18Transfer_BlittableI24GenerateTypeTreeTransferLb1EN4math12int3_storageEEvRK29SerializationCommandArgumentsR31RuntimeSerializationCommandInfo
LE:__ZN12_GLOBAL__N_119PreProcessAnimationER35AnimationPlayableEvaluationConstantR17AnimationPlayable
kVf:__Z14bankers_roundff
nOj:__ZN15dense_hashtableINSt3__24pairIK10KeyWrapperINS1_IPK10MethodInfoP11Il2CppClassEEEjEES9_17ReflectionMapHashIS8_EN14dense_hash_mapIS9_jSD_NS9_14EqualsComparerINS0_8equal_toIS8_EEEENS0_9allocatorISB_EEE9SelectKeyESI_SK_E12expand_arrayEjN21dense_hash_map_traits17integral_constantIbLb0EEE
rY:__ZN11UnityEngine15CloudWebService16SessionContainer20RestoreSessionHeaderERKN4core12basic_stringIcNS2_20StringStorageDefaultIcEEEES8_RNS0_13SessionHeaderE
nod:__ZN22UnityWebRequestManager13BackendRetainEv
qAc:__ZN8Material28ApplyMaterialPropertyDrawersEv
Ihk:__ZN6il2cpp2os12Cryptography23GetCryptographyProviderEv
Jzj:__ZN24dense_hashtable_iteratorINSt3__24pairIK10KeyWrapperIPK22Il2CppGenericParameterEP11Il2CppClassEES6_N6il2cpp5utils11PointerHashIS4_EEN14dense_hash_mapIS6_S9_SE_NS6_14EqualsComparerINS0_8equal_toIS5_EEEENS0_9allocatorISA_EEE9SelectKeyESJ_SL_E30advance_past_empty_and_deletedEv
pu:__ZN11UnityEngine9Animation27CreateAvatarBindingConstantER9TransformPKN7mecanim9animation14AvatarConstantERNS3_6memory9AllocatorE
k0f:_MonoTODOAttribute__ctor_m1298576268
QSf:_MaskableGraphic_get_onCullStateChanged_m3331479633
Zii:__Z151RuntimeInvoker_RuntimeObject_Int32_t2950945753_RuntimeObject_ObjectU5BU5DU26_t712384779_RuntimeObject_RuntimeObject_RuntimeObject_ObjectU26_t2146539884PFvvEPK10MethodInfoPvPS4_
Qgd:__ZN8JSONRead19TransferSTLStyleMapINSt3__23mapIN4core12basic_stringIcNS3_20StringStorageDefaultIcEEEEN11UnityEngine9Analytics16LimitEventConfigENS1_4lessIS7_EE13stl_allocatorINS1_4pairIKS7_SA_EEL18MemLabelIdentifier6ELi16EEEEEEvRT_17TransferMetaFlags
nDc:__ZN9BlobWriteC2ER13dynamic_arrayIhLj16EE24TransferInstructionFlags19BuildTargetPlatform
Vyd:_CanvasUpdateRegistry__ctor_m2005397069
Qqe:__ZL77Input_t1431474628_CustomAttributesCacheGenerator_Input_GetAxisRaw_m2316819917P21CustomAttributesCache
Z7:__ZN14MessageHandler3GetEv
jKd:_MonoMethodInfo_GetCallingConvention_m3156036493
qyf:_SupportedRenderingFeatures_FallbackMixedLightingModeByRef_m3859171964
_c:_emscripten_glAttachShader
$1:__Z40DebugStringToFilePostprocessedStacktraceRK21DebugStringToFileData
MGd:_Image__cctor_m1927508576
GLh:_SendOrPostCallback_EndInvoke_m2485163446
Wgc:__ZNSt3__26vectorIN4core12basic_stringIcNS1_20StringStorageDefaultIcEEEENS_9allocatorIS5_EEE6assignIPS5_EENS_9enable_ifIXaasr21__is_forward_iteratorIT_EE5valuesr16is_constructibleIS5_NS_15iterator_traitsISC_E9referenceEEE5valueEvE4typeESC_SC_
IUa:__ZThn32_N8Renderer15AddAsRenderNodeER15RenderNodeQueueRK20DeprecatedSourceData
_Qb:__ZN13dynamic_arrayIN18GlslGpuProgramGLES9GLProgramELj0EE6insertEPS1_jRKS1_
F5e:_InternalEnumerator_1_get_Current_m3331252162_AdjustorThunk
gXd:__ZL76String_t_CustomAttributesCacheGenerator_String_Concat_m1809518182____values0P21CustomAttributesCache
xob:__Z18Transfer_BlittableI14SafeBinaryReadLb0E11QuaternionfEvRK29SerializationCommandArgumentsR31RuntimeSerializationCommandInfo
VBb:__Z18Transfer_BlittableI18StreamedBinaryReadILb0EELb1E12PropertyNameEvRK29SerializationCommandArgumentsR31RuntimeSerializationCommandInfo
J1:_tlsf_walk_heap
Oii:__Z49RuntimeInvoker_Void_t1185182177_OpCode_t123070264PFvvEPK10MethodInfoPvPS4_
DYj:__ZNK15dense_hashtableINSt3__24pairIK10KeyWrapperIP11Il2CppClassES4_EES5_N6il2cpp8metadata16SZArrayClassHashEN14dense_hash_mapIS5_S4_SA_NS5_14EqualsComparerINS9_19SZArrayClassCompareEEENS0_9allocatorIS7_EEE9SelectKeyESE_SG_E10test_emptyERK24dense_hashtable_iteratorIS7_S5_SA_SI_SE_SG_E
hri:__Z69RuntimeInvoker_Void_t1185182177_Int32_t2950945753_HitInfo_t3229609740PFvvEPK10MethodInfoPvPS4_
Yse:__ZL59AnimatorClipInfo_t3156717155_CustomAttributesCacheGeneratorP21CustomAttributesCache
$3g:_Convert_ToUInt32_m3592050311
gb:invoke_vif
EJi:_Component_GetComponents_TisRuntimeObject_m2416546752_gshared
hb:invoke_vid
f2e:_InternalEnumerator_1__ctor_m2202456613_AdjustorThunk
Zok:__ZNSt3__212basic_stringIcNS_11char_traitsIcEENS_9allocatorIcEEE6insertEjPKc
jb:invoke_vii
POe:_Random_Sample_m2289397474
Jua:__ZN12TLSAllocatorI14StackAllocatorE16ThreadInitializeEP13BaseAllocator
mki:__Z82RuntimeInvoker_Boolean_t97287965_SByte_t1669577662_RuntimeObject_SByte_t1669577662PFvvEPK10MethodInfoPvPS4_
ihb:__ZN9GfxDevice32UpdateStereoViewProjectionMatrixE21MonoOrStereoscopicEye
J_:__Z29GetCloudWebServicesModuleSpecv
Jdd:__Z41CanvasRenderer_CUSTOM_DisableRectClippingP12Il2CppObject
gLe:_MonoType_GetConstructorImpl_m441167626
wka:__ZL45__ManagedRegistrationHelperFunction_CoroutinePv
_kd:__ZNSt3__26__treeINS_12__value_typeIN4core12basic_stringIcNS2_20StringStorageDefaultIcEEEE14CallbackArray3IRKS6_R8JSONReadbEEENS_19__map_value_compareIS6_SD_NS_4lessIS6_EELb1EEE13stl_allocatorISD_L18MemLabelIdentifier6ELi16EEE4findIS6_EENS_15__tree_iteratorISD_PNS_11__tree_nodeISD_PvEEiEERKT_
_Zi:_Collection_1_IsFixedSize_m3709118201_gshared
vfb:__ZN25SingleBlockMemoryFileDataD0Ev
jK:__ZNSt3__26vectorI14ConstantStringNS_9allocatorIS1_EEE6assignINS_11__wrap_iterIPS1_EEEENS_9enable_ifIXaasr21__is_forward_iteratorIT_EE5valuesr16is_constructibleIS1_NS_15iterator_traitsISA_E9referenceEEE5valueEvE4typeESA_SA_
K2h:_ReadOnlyCollection_1_CopyTo_m586367390_gshared
mY:__ZN11UnityEngine15CloudWebService16SessionContainer21ConvertFromFolderTimeERKN4core12basic_stringIcNS2_20StringStorageDefaultIcEEEEPjPt
Bof:_CodeAccessPermission_Equals_m1555575992
hqb:__ZNSt3__26vectorI8GUIStyle13stl_allocatorIS1_L18MemLabelIdentifier1ELi16EEE7reserveEj
vZh:_ReadOnlyCollection_1_Contains_m3869904379_gshared
BZj:__ZN6il2cpp6icalls8mscorlib6System9Threading6Thread27GetSerializedCurrentCultureEP12Il2CppThread
egh:__ZN21InterfaceFuncInvoker2IibbE6InvokeEjP11Il2CppClassP12Il2CppObjectbb
jhg:_Context_set_ReadSequenceNumber_m2154909392
o2i:_RijndaelTransform_SubByte_m3037693507
xtc:__Z31CalculateHierarchyTransformType23TransformAccessReadOnly
CN:__ZN4FMOD8ChannelI11setPositionEjj
lzf:_Input_INTERNAL_CALL_GetTouch_m3481893561
wdk:_GC_set_fl_marks
c4a:__ZNSt3__26vectorIN30RuntimeInitializeOnLoadManager15ClassMethodInfoE13stl_allocatorIS2_L18MemLabelIdentifier13ELi16EEE7reserveEj
lhb:__ZN9GfxDevice17SetStereoViewportE15StereoscopicEyeRK5RectTIiE
Xfa:__ZN17BaseObjectManager13StaticDestroyEPv
C0:__GLOBAL__sub_I_Runtime_Graphics_Mesh_1_cpp
kvj:_CanvasRenderer_INTERNAL_CALL_GetColor_m597074473
s7e:_Comparer_1__cctor_m3891417387_gshared
lKh:_UTF7Decoder_GetChars_m3413809261
kT:__ZN12AudioManager14UpdateListenerERK8Vector3fS2_S2_S2_
oYd:__ZL70RuntimeArray_CustomAttributesCacheGenerator_Array_get_Rank_m3448755881P21CustomAttributesCache
GSe:_EnumBuilder_GetEvent_m4074915332
hXg:_FileSystemInfo_get_FullName_m3468398407
lKf:_Vector3_get_forward_m3100859705
FL:__ZN4FMOD6Reverb13setPropertiesEPK22FMOD_REVERB_PROPERTIES
IXj:__ZN15dense_hashtableINSt3__24pairIK10KeyWrapperIP11Il2CppClassES4_EES5_N6il2cpp8metadata16SZArrayClassHashEN14dense_hash_mapIS5_S4_SA_NS5_14EqualsComparerINS9_19SZArrayClassCompareEEENS0_9allocatorIS7_EEE9SelectKeyESE_SG_E5clearEv
n_b:__ZN9DepthPass13PrepareSubsetEjRK10RenderNodeifRK17ShaderReplaceData
ksg:_String_IndexOf_m3406607758
Mfc:__ZN9ShaderLab20SerializedSubProgram16TextureParameter8TransferI14SafeBinaryReadEEvRT_
Pag:_ASN1__ctor_m3517592395
W2c:_otv_BaseCoord_validate
YAc:__Z35SetMeshComponentFromArrayFromScriptR4Mesh30InternalScriptingShaderChannel34InternalScriptingVertexChannelTypei17ScriptingArrayPtri
aGa:__ZN4PPtrI6ShaderE8TransferI19StreamedBinaryWriteILb0EEEEvRT_
Kih:_Array_InternalArray__ICollection_Add_TisCustomAttributeNamedArgument_t287865710_m4157175270_gshared
Gq:__ZN4core20StringStorageDefaultIcE6assignEPKcj
nSh:_UInt64_System_IConvertible_ToUInt64_m2135047981_AdjustorThunk
bag:_BigInteger_ModPow_m3776562770
S4j:__ZN15dense_hashtableINSt3__24pairIK10KeyWrapperIP12Il2CppObjectEN6il2cpp2gc9CachedCCWEEES5_NS7_5utils11PointerHashIS3_EEN14dense_hash_mapIS5_S9_SD_NS5_14EqualsComparerINS0_8equal_toIS4_EEEENS0_9allocatorISA_EEE9SelectKeyESI_SK_E3endEv
$kd:__ZNSt3__26__treeINS_12__value_typeIN4core12basic_stringIcNS2_20StringStorageDefaultIcEEEE14CallbackArray3IRKS6_R8JSONReadbEEENS_19__map_value_compareIS6_SD_NS_4lessIS6_EELb1EEE13stl_allocatorISD_L18MemLabelIdentifier6ELi16EEE25__emplace_unique_key_argsIS6_JNS_4pairIS6_SC_EEEEENSN_INS_15__tree_iteratorISD_PNS_11__tree_nodeISD_PvEEiEEbEERKT_DpOT0_
kjg:_RecordProtocol_ProcessChangeCipherSpec_m15839975
rGg:_ArrayList_IndexOf_m305368842
CVi:_List_1_Add_m2996644200_gshared
n8b:__ZN6Camera6SetFarEf
Qkf:_FormatterConverter_ToBoolean_m1680758923
hja:__ZN6prcoreL12RemapGenericI17TexFormatABGR888817TexFormatARGB8888EEvPKNS_9InnerInfoE
gva:__ZN11GameManager17MainThreadCleanupEv
y_g:_Stack_get_Count_m2258661097
mXh:_ReadOnlyCollection_1__ctor_m1345363288_gshared
qdd:__Z50Register_UnityEngine_UISystemProfilerApi_EndSamplev
hhf:_Dictionary_2_System_Collections_ICollection_get_SyncRoot_m2020472285_gshared
i4e:_InternalEnumerator_1_System_Collections_IEnumerator_Reset_m1775752715_AdjustorThunk
Rge:__ZL91Application_t1852185770_CustomAttributesCacheGenerator_Application_get_isPlaying_m100394690P21CustomAttributesCache
aRd:_ConfigHandler_OnProcessingInstruction_m4212209262
qRi:_List_1_Reverse_m3290386475_gshared
Rlf:_SerializationCallbacks_GetSerializationCallbacks_m2939476649
jmb:__ZNSt3__26vectorIN20GpuProgramParameters19AtomicCounterBufferENS_9allocatorIS2_EEE21__push_back_slow_pathIRKS2_EEvOT_
I5c:_UNITY_tt_slot_init
XVb:__ZZ23InitPlayerLoopCallbacksvEN41PostLateUpdateUpdateResolutionRegistrator7ForwardEv
Rbf:_KeyCollection_GetEnumerator_m1168803204_gshared
KDb:__Z25scripting_array_class_get17ScriptingClassPtrj
UNc:__ZL22Transfer_ManagedObjectI9JSONWriteLb1EEvRK29SerializationCommandArgumentsR31RuntimeSerializationCommandInfo
dS:__ZNK10SampleClip22GetTypeVirtualInternalEv
dib:__ZN9GfxDevice20DestroyRenderSurfaceER12ObjectHandleI17RenderSurface_TagP17RenderSurfaceBaseE
v_g:_Stack__ctor_m2602729586
ndi:__Z77RuntimeInvoker_Byte_t1134296376_RuntimeObject_Int32_t2950945753_RuntimeObjectPFvvEPK10MethodInfoPvPS4_
iae:__ZL81Convert_t2465617642_CustomAttributesCacheGenerator_Convert_ToDateTime_m1031474510P21CustomAttributesCache
MRg:_Int32_System_IConvertible_ToInt32_m265310525_AdjustorThunk
YBg:_Array_slow_swapper_m4116724811
f7b:__ZN12_GLOBAL__N_15qAsinEff
dwf:_Display__ctor_m3105658851
EKg:_HashValues_get_IsSynchronized_m3461082747
DZe:_InternalEnumerator_1_System_Collections_IEnumerator_get_Current_m2629988057_AdjustorThunk
Kua:__ZN12TLSAllocatorI14StackAllocatorE13ThreadCleanupEv
DZa:__ZN14SafeBinaryRead21TransferSTLStyleArrayI13dynamic_arrayI8Vector4fLj0EEEEvRT_17TransferMetaFlags
MN:__Z18GetAudioManagerPtrv
gTh:_ValueType_InternalEquals_m1384040357
ogg:_Context_get_HandshakeMessages_m3655705111
abk:__ZThn4_N6il2cpp2vm13ComObjectBase16MarshalInterfaceEP13Il2CppIStreamRK10Il2CppGuidPvjS7_j
M1g:_Convert_ToDouble_m996590115
Ddc:__Z27FindActiveTransformWithPathPKc
K$h:_ReadOnlyCollection_1_System_Collections_IList_Remove_m4169110229_gshared
OQh:_UInt16_ToString_m3020002356
SRf:_LayoutRebuilder_LayoutComplete_m68578143
Qyj:_RequiredByNativeCodeAttribute__ctor_m119855101
xxa:__ZN12BaseRendererD0Ev
icc:__Z29StdTemplateConversionFunctionIbyEbPvR14SafeBinaryRead
k2i:_RijndaelManaged_GenerateKey_m1736287430
ahj:_GUIStyle_get_fixedWidth_m2576616348
cze:__ZL90PointerEventData_t3807901092_CustomAttributesCacheGenerator_U3ClastPressU3Ek__BackingFieldP21CustomAttributesCache
WZg:_SortedList_Find_m3363512987
u0b:__ZNK6Camera7GetNearEv
oTe:_GenericTypeParameterBuilder_GetConstructorImpl_m863833310
cbf:_Enumerator_get_Current_m3687673883_AdjustorThunk
fcd:__ZN2UI13CanvasManager8SortListEv
HQb:__ZN7ApiGLES11UnmapBufferEjN2gl12BufferTargetE
rbk:__ZN6il2cpp5utilsL24Utf32CharToSurrogatePairEjRA2_Ds
wRa:__Z25GetNextAllowedTextureSizeib13TextureFormat
BGb:__ZN20LocalFileSystemWebGL4CopyER13FileEntryDataS1_
s$:__ZN19CloudServiceHandler6RetainEv
xjk:__ZN6il2cpp2os9Semaphore4WaitEb
cYh:_ReadOnlyCollection_1_System_Collections_IList_IndexOf_m198887188_gshared
Wui:__Z71RuntimeInvoker_Vector2_t2156229523_Vector2_t2156229523_Rect_t2360479859PFvvEPK10MethodInfoPvPS4_
pIc:__Z36Event_CUSTOM_Internal_SetNativeEventPv
BJh:_UTF32Encoding_GetBytes_m3180303867
LVi:_List_1_CopyTo_m4034402519_gshared
OZh:_ReadOnlyCollection_1_System_Collections_IList_Clear_m2007013334_gshared
D8a:__Z34scripting_liveness_calculation_endPv
LEg:_Char_GetDataTablePointers_m754571594
u7j:__ZN6il2cpp2os6ThreadC2Ev
dWe:_U3CGetEnumeratorU3Ec__Iterator0_System_Collections_Generic_IEnumeratorU3CTU3E_get_Current_m1566629109_gshared
Hvc:__ZN28ReflectionProbeAnchorManager7CleanupEv
V6g:_DateTimeOffset_get_UtcDateTime_m1021718282_AdjustorThunk
Gja:__ZN16memory_pool_implILi64EE15AutoPoolWrapper12UninitializeEPv
Rw:__ZN21AnimationClipPlayable22ProcessAnimationNoClipEPK35AnimationPlayableEvaluationConstantPK32AnimationPlayableEvaluationInputP33AnimationPlayableEvaluationOutput
K_f:_HybridDictionary_get_Count_m1166314536
v5i:_TlsStream_Write_m1412844442
vPc:__Z18Transfer_BlittableI8JSONReadLb0E8Vector3fEvRK29SerializationCommandArgumentsR31RuntimeSerializationCommandInfo
CAf:_Matrix4x4__ctor_m53065545_AdjustorThunk
tWj:__ZN6il2cpp2vm6Thread6DetachEP12Il2CppThread
Y5i:_GeneralNames_get_DNSNames_m3788548987
AHh:_List_1_AddCollection_m2026039026_gshared
A8c:_Render_Single_Pass
Rkk:_Hacker_OnUserInput_m1095014035
_mg:_SymmetricAlgorithm_get_IV_m1875559108
Fmf:_SerializationEntry_t648286436_marshal_pinvoke
Pka:__ZL56__ManagedRegistrationHelperFunction_TextureMixerPlayablePv
Du:__ZN7mecanim8skeleton30SkeletonBuildReverseIndexArrayEPiPKiPKNS0_8SkeletonES6_
MIc:__Z19GetGUIBlendMaterialv
LJe:_Math_Round_m3018379666
jli:__Z41RuntimeInvoker_Boolean_t97287965_IntPtr_tPFvvEPK10MethodInfoPvPS4_
j8j:__ZN6il2cpp2os10ThreadImpl5SleepEjb
y0a:__ZN10VertexData10DeallocateEv
eYh:_ReadOnlyCollection_1_System_Collections_IList_Remove_m1965826685_gshared
Qld:__ZN22BaseUnityConnectClient12IsNewSessionEv
mve:__ZL82LayoutCache_t78309876_CustomAttributesCacheGenerator_LayoutCache__ctor_m3885940174P21CustomAttributesCache
U8g:_Delegate_CreateDelegate_m1051651521
oeh:_PlayableHandle_IsPlayableOfType_TisRuntimeObject_m503495943_AdjustorThunk
rwk:_glBindSampler__wrapper
dVb:__ZNSt3__26vectorIN20ArchiveStorageHeader12StorageBlockE13stl_allocatorIS2_L18MemLabelIdentifier55ELi16EEE8__appendEj
Gf:_emscripten_set_mouseup_callback
uAf:_Mathf_Clamp_m3350697880
Wjb:__ZN9GfxDevice27SetRandomWriteTargetTextureEi9TextureID
nth:_Dictionary_2_System_Collections_Generic_ICollectionU3CSystem_Collections_Generic_KeyValuePairU3CTKeyU2CTValueU3EU3E_Contains_m3033743418_gshared
zki:__Z165RuntimeInvoker_Void_t1185182177_UInt32U26_t3735378166_Int32_t2950945753_UInt32U26_t3735378166_Int32_t2950945753_Int32_t2950945753_Int32_t2950945753_Int32_t2950945753PFvvEPK10MethodInfoPvPS4_
qHh:_List_1_System_Collections_IList_Remove_m3140917266_gshared
zug:_Encoding_get_DecoderFallback_m1525880676
k5d:__ZL59ITrackingHandler_t1244553475_CustomAttributesCacheGeneratorP21CustomAttributesCache
cqf:_DSASignatureDeformatter__ctor_m2759753186
h6f:_X509ChainElementCollection_System_Collections_IEnumerable_GetEnumerator_m3829089536
QTh:_Collection_1_System_Collections_IEnumerable_GetEnumerator_m801406918_gshared
uGb:__ZNK18ScreenManagerWebGL8GetWidthEv
gHj:__ZN6il2cpp2vm13MetadataCache33GetFieldDefaultValueDataFromIndexEi
yNh:_TimeSpan_get_TotalHours_m306507525_AdjustorThunk
aS:__ZN10SampleClipD2Ev
L7h:_InvokableCall_1_remove_Delegate_m790146436_gshared
z6h:_Predicate_1_Invoke_m2389850270_gshared
i8j:__ZN6il2cpp2os10ThreadImpl13SetWaitObjectEPNS0_5posix15PosixWaitObjectE
X7a:__Z13GetGISettingsv
i$i:_Collection_1_RemoveAt_m1813368096_gshared
c$:__ZN11UnityEngine15CloudWebService20WebRequestRestClientC2Ev
h1c:_cff_cmap_unicode_init
sch:_Array_InternalArray__ICollection_Contains_TisRuntimeObject_m4067783231_gshared
cka:__ZL60__ManagedRegistrationHelperFunction_AssemblyIsEditorAssemblyPv
U9:__ZN14FileCacherRead13GetFileLengthEv
Z8h:_UnityAction_1_EndInvoke_m542551745_gshared
DYi:_Collection_1_IsValidItem_m3080586124_gshared
lCd:_DropdownItem_set_text_m3702712387
vzd:_ClipperRegistry_Register_m2407166513
znk:_readlink
TPj:__ZN15dense_hashtableINSt3__24pairIK10KeyWrapperINS1_IPK9EventInfoP11Il2CppClassEEEjEES9_17ReflectionMapHashIS8_EN14dense_hash_mapIS9_jSD_NS9_14EqualsComparerINS0_8equal_toIS8_EEEENS0_9allocatorISB_EEE9SelectKeyESI_SK_E12resize_deltaEjj
eKd:_MonoCMethod_Invoke_m2700167622
JKg:_KeyMarker__cctor_m2590194914
Jik:__ZN6il2cpp2os13SemaphoreImplC2Eii
P_a:__ZNK6Sprite9GetBoundsE8Vector2fbb
Lza:__ZNK19RenderEventsContext21CleanupCommandBuffersEv
ruj:_TextGenerator_PopulateWithErrors_m1222498386
Q_h:_ReadOnlyCollection_1_System_Collections_Generic_ICollectionU3CTU3E_Clear_m2102011098_gshared
gOb:__ZN11ContextGLES6CreateEi
$uj:_WillRenderCanvases_BeginInvoke_m1804779886
tri:__Z52RuntimeInvoker_Boolean_t97287965_Vector3_t3722313464PFvvEPK10MethodInfoPvPS4_
IOi:_List_1_set_Capacity_m3382070520_gshared
Gwi:__Z68RuntimeInvoker_Boolean_t97287965_RuntimeObject_ObjectU26_t2146539884PFvvEPK10MethodInfoPvPS4_
qQf:_U3CMouseDragOutsideRectU3Ec__Iterator1_Dispose_m267465418
v8g:_Decimal_CompareTo_m3502307243_AdjustorThunk
KCb:__Z19TransferField_ArrayI18StreamedBinaryReadILb0EE27Converter_SimpleNativeClassI17AnimationCurveTplIfEEEvRK23StaticTransferFieldInfoR31RuntimeSerializationCommandInfoRT0_
cva:__ZN14StackAllocator16FrameMaintenanceEb
$Ta:__Z18ReadStringFromFilePN4core17string_with_labelILi1EEERKNS_12basic_stringIcNS_20StringStorageDefaultIcEEEE
oOc:__ZN9JSONWrite8TransferI13dynamic_arrayIjLj0EEEEvRT_PKc17TransferMetaFlags
Caa:__ZNK10GameObject20QueryComponentByTypeEPKN5Unity4TypeE
O7g:_Decimal_System_IConvertible_ToInt32_m1488426794_AdjustorThunk
mKe:_MonoCustomAttrs_IsUserCattrProvider_m2878058089
vCe:__ZL71InputField_t3762917431_CustomAttributesCacheGenerator_m_HideMobileInputP21CustomAttributesCache
fQa:__ZN11TextureData5ResetEv
Jnc:__Z53Register_UnityEngine_GameObject_get_activeInHierarchyv
vng:_ToBase64Transform_InternalTransformFinalBlock_m360524956
hzg:_ActivationContext_Dispose_m2038725770
bsb:__Z35Transfer_Blittable_FixedBufferFieldI17RemapPPtrTransferiEvRK29SerializationCommandArgumentsR31RuntimeSerializationCommandInfo
I5:__ZL30InitializeCoreScriptingClassesv
XFa:__ZN15SerializeTraitsI12fixed_bitsetILi28EjEE8TransferI18StreamedBinaryReadILb0EEEEvRS1_RT_
Dg:_glBlitFramebuffer
ceb:__ZN17ArchiveFileSystem5TouchER13FileEntryData
Ybf:_KeyCollection_System_Collections_Generic_IEnumerableU3CTKeyU3E_GetEnumerator_m818204647_gshared
Yrb:__Z35Transfer_Blittable_SingleValueFieldI14SafeBinaryReadhEvRT_R17GeneralMonoObjectRK23StaticTransferFieldInfo
MNh:_TimeSpan_Duration_m2963553230
zkc:__ZN12CachedWriter15CompleteWritingEv
nQa:__ZNK12CubemapArray22GetTypeVirtualInternalEv
Kn:FUNCTION_TABLE_vif
Ln:FUNCTION_TABLE_vid
bJi:_Dictionary_2_Do_CopyTo_TisInt32_t2950945753_TisRuntimeObject_m213146570_gshared
Nn:FUNCTION_TABLE_vii
O8a:__Z40scripting_liveness_calculation_from_root18ScriptingObjectPtrPv
sBe:__ZL67OptionDataList_t1438173104_CustomAttributesCacheGenerator_m_OptionsP21CustomAttributesCache
y4d:__ZL65IContributeDynamicSink_t2255997386_CustomAttributesCacheGeneratorP21CustomAttributesCache
HKa:__ZN7Texture23VirtualRedirectTransferER24GenerateTypeTreeTransfer
sYc:_UNITY_FT_Set_Transform
Uwc:__ZNK32RendererMaterialAnimationBinding12SetPPtrValueERKN11UnityEngine9Animation10BoundCurveEi
E3j:__ZN6il2cpp8metadata15GenericMetadata20RegisterGenericClassEP18Il2CppGenericClass
Wvk:_glDeleteFramebuffers__wrapper
AXi:_Collection_1_System_Collections_IList_get_IsFixedSize_m2620019318_gshared
Xgi:__Z220RuntimeInvoker_Boolean_t97287965_RuntimeObject_Int32U26_t1369213839_Int32_t2950945753_Int32_t2950945753_Int32_t2950945753_RuntimeObject_SByte_t1669577662_Int32_t2950945753_ContractionU26_t961830454_ContextU26_t3937453398PFvvEPK10MethodInfoPvPS4_
JDf:_Playable_Equals_m328753404_AdjustorThunk
cph:_BitConverterLE_GetUIntBytes_m949779219
r$c:_cff_blend_build_vector
j2f:_WebHeaderCollection_ToString_m1263025316
Zqc:__Z26Input_CUSTOM_GetButtonDownP12Il2CppString
rji:__Z91RuntimeInvoker_Void_t1185182177_RuntimeObject_RuntimeObject_RuntimeObject_Int32_t2950945753PFvvEPK10MethodInfoPvPS4_
mMd:_GetterAdapter_Invoke_m3767885970
JPi:_List_1__ctor_m747758800_gshared
K8i:_X509Extension_get_Oid_m4107042796
sUe:_MethodBuilder_get_ReflectedType_m3038768129
aug:_String_CreateString_m2818852475
nDh:_Enumerator_get_Current_m335492761_AdjustorThunk
Lsd:_BaseRaycaster_get_renderOrderPriority_m1110184610
Ivj:_CanvasRenderer_get_hasMoved_m2236392341
zCf:_MessageEvent__ctor_m1231650089
Oab:__ZNK15Lz4Decompressor16DecompressMemoryEPKvPjPvS2_
VJe:_MemberAccessException__ctor_m3713703094
iza:__Z11IsCoroutine18ScriptingMethodPtrRK22CommonScriptingClasses
c1d:__ZL117GenericTypeParameterBuilder_t1988827940_CustomAttributesCacheGenerator_GenericTypeParameterBuilder_Equals_m3260957994P21CustomAttributesCache
kkc:__ZN4core8hash_mapINS_12basic_stringIcNS_20StringStorageDefaultIcEEEE10vector_setI4PPtrI11SpriteAtlasENSt3__24lessIS8_EE13stl_allocatorIS8_L18MemLabelIdentifier81ELi16EEENS_4hashIS4_EENS9_8equal_toIS4_EEEixERKS4_
opj:__ZL24UnresolvedVirtualCall_47P12Il2CppObject20DateTime_t3738529785PK10MethodInfo
sNa:__Z35UnityPropertySheet_MakeSortedColorsRKNSt3__23mapIN9ShaderLab16FastPropertyNameE10ColorRGBAfNS_4lessIS2_EENS_9allocatorINS_4pairIKS2_S3_EEEEEER10vector_mapIS2_S3_S5_NS6_INS7_IS2_S3_EEEEE
An:FUNCTION_TABLE_iiiiiiffiiiiiiiiiffffiii
y3c:_UNITY_tt_face_load_os2
rkh:_Array_InternalArray__ICollection_CopyTo_TisUICharInfo_t75501106_m4268526610_gshared
rrb:__Z29Transfer_Blittable_ArrayFieldI14SafeBinaryRead8Vector4fEvRT_R9ArrayInfoRK23StaticTransferFieldInfo
d6j:__GLOBAL__sub_I_BoehmGC_cpp
PG:__ZNK26AnimatorOverrideController22GetTypeVirtualInternalEv
_Pe:_Default_check_arguments_m3882727959
owg:_PKCS12_Compare_m2975811353
HKh:_UTF8Encoding_GetMaxCharCount_m3762459613
fRe:_ModuleBuilder_RegisterToken_m4166846047
OVb:__ZZ23InitPlayerLoopCallbacksvEN51PostLateUpdateUpdateCustomRenderTexturesRegistrator7ForwardEv
$Tf:_RawImage_OnPopulateMesh_m1115858855
vii:__Z74RuntimeInvoker_MonoFileType_t221779374_IntPtr_t_MonoIOErrorU26_t1548853198PFvvEPK10MethodInfoPvPS4_
JHj:__ZN6il2cpp2vm13MetadataCache25GetStringLiteralFromIndexEi
Izg:_Hashtable_ToPrime_m33531354
ox:__ZN7mecanim9animation12EvaluateClipEPKNS0_4ClipEPKNS0_9ClipInputEPNS0_10ClipMemoryEPNS0_10ClipOutputE
wUh:_Collection_1_IsSynchronized_m1117613618_gshared
rV:__ZN11AudioModule6UpdateEv
Jbf:_KeyCollection_System_Collections_Generic_ICollectionU3CTKeyU3E_Remove_m2555909644_gshared
nlk:_Keyboard_WarnIfTerminalNotConneced_m1063217717
q6j:__ZN15dense_hashtableINSt3__24pairIK10KeyWrapperIPcES3_EES4_N6il2cpp5utils15PassThroughHashIS3_EEN14dense_hash_mapIS4_S3_SA_NS4_14EqualsComparerINS0_8equal_toIS3_EEEENS0_9allocatorIS6_EEE9SelectKeyESF_SH_E5clearEv
TPh:_TypeInitializationException__ctor_m3546444694
Rpc:__ZNK9Transform16GetLocalRotationEv
Maf:_Enumerator_System_Collections_IEnumerator_Reset_m4278714428_gshared
mWa:__ZN4PPtrI11LightProbesE8TransferI18StreamedBinaryReadILb0EEEEvRT_
e_:__ZN11UnityEngine15CloudWebService23WebRequestUploadHandler17ConsumeUploadDataEj
oJj:__ZNSt3__214__split_bufferI6pollfdRNS_9allocatorIS1_EEEC2EjjS4_
KQd:_CrossAppDomainData_get_DomainID_m3516796532
ovi:__Z68RuntimeInvoker_Void_t1185182177_Single_t1397266774_SByte_t1669577662PFvvEPK10MethodInfoPvPS4_
xXg:_MemoryStream_set_Position_m3169779190
h7b:__ZN13RenderManager29SetCurrentCameraAndStackStateEP6CameraP25CameraStackRenderingState
pud:_ExecuteEvents_get_scrollHandler_m2659345019
Dva:__ZNSt3__26__treeINS_12__value_typeIjN4core12basic_stringIcNS2_20StringStorageDefaultIcEEEEEENS_19__map_value_compareIjS7_NS_4lessIjEELb1EEE13stl_allocatorIS7_L18MemLabelIdentifier7ELi16EEE7destroyEPNS_11__tree_nodeIS7_PvEE
wYj:__ZN15dense_hashtableINSt3__24pairIK10KeyWrapperINS1_IP11Il2CppClassjEEES4_EES6_N6il2cpp8metadata14ArrayClassHashEN14dense_hash_mapIS6_S4_SB_NS6_14EqualsComparerINSA_17ArrayClassCompareEEENS0_9allocatorIS8_EEE9SelectKeyESF_SH_E12resize_deltaEjj
Sh:_JS_WebRequest_Release
Vme:__ZL85Time_t2420636075_CustomAttributesCacheGenerator_Time_t2420636075____time_PropertyInfoP21CustomAttributesCache
OY:__ZN11UnityEngine15CloudWebService14DataErrorEventD0Ev
I$j:__ZN6il2cpp6icalls8mscorlib6System4Type20internal_from_handleEi
Gfe:__ZL72RequiredByNativeCodeAttribute_t4130846357_CustomAttributesCacheGeneratorP21CustomAttributesCache
FRd:_Context__ctor_m254302079
Jpa:__ZN9Scripting11UnityEngine12Experimental9Playables20TextureMixerPlayable9InitProxyEv
vrh:_KeyGeneratedEventHandler_EndInvoke_m3057317531
hTa:__ZN19ShaderPropertySheet16SetArrayPropertyEN9ShaderLab16FastPropertyNameENS_12PropertyTypeEPKvj
TVf:_Selectable_FindSelectable_m2348614027
hvg:_DecoderReplacementFallbackBuffer_GetNextChar_m2858228391
SAd:_FloatTween_get_duration_m1227071020
y4j:__ZN15dense_hashtableINSt3__24pairIK10KeyWrapperIP12Il2CppObjectEN6il2cpp2gc9CachedCCWEEES5_NS7_5utils11PointerHashIS3_EEN14dense_hash_mapIS5_S9_SD_NS5_14EqualsComparerINS0_8equal_toIS4_EEEENS0_9allocatorISA_EEE9SelectKeyESI_SK_E16reset_thresholdsEv
UCd:_DropdownItem_OnPointerEnter_m1492957598
Vad:__ZN2UI11CanvasGroup23VirtualRedirectTransferER19StreamedBinaryWriteILb0EE
CMd:_ParameterInfo_get_ParameterType_m4197803362
Uhi:__Z91RuntimeInvoker_Void_t1185182177_Int32U26_t1369213839_Int32U26_t1369213839_Int32_t2950945753PFvvEPK10MethodInfoPvPS4_
Nqa:__ZN9Scripting11UnityEngine9BoundsInt9InitProxyEv
Hyj:_StaticAccessorAttribute_set_Type_m2333258271
w3d:__ZL91SafeHandle_t3273388951_CustomAttributesCacheGenerator_SafeHandle_DangerousAddRef_m614714386P21CustomAttributesCache
fkd:__ZN11UnityEngine15PlatformWrapper16GetApplicationIdEv
P5c:_UNITY_TT_Get_VMetrics
S5f:_X509Chain__cctor_m993507223
vqi:__Z69RuntimeInvoker_Color_t2555686324_Color_t2555686324_Single_t1397266774PFvvEPK10MethodInfoPvPS4_
Vxh:_EqualityComparer_1__ctor_m2283513024_gshared
GHg:_SimpleEnumerator__cctor_m2844299657
tJe:_LocalDataStoreSlot__ctor_m4104083971
WGi:_Array_qsort_TisVector3_t3722313464_m4117329442_gshared
c0h:_ReadOnlyCollection_1_System_Collections_Generic_IListU3CTU3E_RemoveAt_m3849058645_gshared
Vmj:_AudioSource_ReadExtensionName_m725112169
Y7i:_X509CertificateEnumerator_System_Collections_IEnumerator_Reset_m2039524926
Jni:__Z128RuntimeInvoker_Void_t1185182177_RuntimeObject_BooleanU26_t4125257963_SByte_t1669577662_Int32U26_t1369213839_Int32U26_t1369213839PFvvEPK10MethodInfoPvPS4_
eLa:__ZN7Texture21GetMasterTextureLimitEv
mff:_Enumerator_Dispose_m3503748991_AdjustorThunk
N1a:__ZN13dynamic_arrayI9InputAxisLj0EE18resize_initializedEj12ResizePolicy
$8b:__Z12CanAddScriptR10GameObject17ScriptingClassPtrPS1_S2_
SSj:__ZN6il2cpp2vm10Reflection12HasAttributeEP12Il2CppObjectP11Il2CppClass
Hti:__Z103RuntimeInvoker_Boolean_t97287965_RuntimeObject_Vector2_t2156229523_RuntimeObject_Vector3U26_t3464235976PFvvEPK10MethodInfoPvPS4_
i3h:_Comparison_1_BeginInvoke_m3263247262_gshared
C4:__ZN9ShaderLabL25StaticInitializeShaderLabEPv
U:Math_max
eFe:__ZL64HorizontalLayoutGroup_t2586782146_CustomAttributesCacheGeneratorP21CustomAttributesCache
fqj:__ZL24UnresolvedVirtualCall_92P12Il2CppObjectPK10MethodInfo
KUj:_il2cpp_class_get_methods
CIf:_HitInfo_SendMessage_m1343099429_AdjustorThunk
cub:__Z18Transfer_BlittableI24GenerateTypeTreeTransferLb0EN4math12int2_storageEEvRK29SerializationCommandArgumentsR31RuntimeSerializationCommandInfo
y9g:_StackTrace_get_trace_m1194606084
jrg:_Single_CompareTo_m2785801815_AdjustorThunk
C7j:__ZN6il2cpp2os6Thread16GetCurrentThreadEv
xld:__ZN11UnityEngine7Connect20RemoteConfigSettings10UnregisterEv
lFi:_Array_InternalArray__Insert_TisUILineInfo_t4195266810_m3191124053_gshared
$kc:__ZN10GameObject13ComponentPair15SetComponentPtrEPN5Unity9ComponentE
nuk:_glBlitFramebuffer__wrapper
RAe:__ZL75U3COnFinishSubmitU3Ec__Iterator0_t3413438900_CustomAttributesCacheGeneratorP21CustomAttributesCache
Jva:__ZN10TagManager8TransferI19StreamedBinaryWriteILb0EEEEvRT_
i8a:__ZN11PreloadData23VirtualRedirectTransferER18StreamedBinaryReadILb0EE
fYa:__ZN13sorted_vectorI4PPtrI11SpriteAtlasENSt3__24lessIS2_EE13stl_allocatorIS2_L18MemLabelIdentifier1ELi16EEE21sort_clear_duplicatesEv
a9d:__ZL58ManualResetEvent_t451242010_CustomAttributesCacheGeneratorP21CustomAttributesCache
EBe:__ZL60FontData_t746620069_CustomAttributesCacheGenerator_m_MinSizeP21CustomAttributesCache
ira:__ZN9Scripting11UnityEngine24AssemblyIsEditorAssembly12CleanupProxyEv
TEg:_Char_System_IConvertible_ToDateTime_m3564102661
ZMj:__ZN15dense_hashtableINSt3__24pairIK10KeyWrapperINS1_IPK9FieldInfoP11Il2CppClassEEEjEES9_17ReflectionMapHashIS8_EN14dense_hash_mapIS9_jSD_NS9_14EqualsComparerINS0_8equal_toIS8_EEEENS0_9allocatorISB_EEE9SelectKeyESI_SK_E16reset_thresholdsEv
KK:__ZN13RuntimeStaticINSt3__26vectorI12WebCamDeviceNS0_9allocatorIS2_EEEELb0EE13StaticDestroyEPv
EWa:__ZN6Sprite17MainThreadCleanupEv
wuk:_glBlendFuncSeparate__wrapper
qre:__ZL116PlayerConnectionInternal_t3892293164_CustomAttributesCacheGenerator_PlayerConnectionInternal_SendMessage_m2378413408P21CustomAttributesCache
CP:__ZN10AudioMixer14UpdateMuteSoloEv
M8:__Z17GetMonoManagerPtrv
MAa:__ZN12BaseRenderer25FlattenSharedMaterialDataILb0EEEbRKS_R22PerThreadPageAllocatorR10RenderNode
$wa:__ZN9Transform35SetLocalPositionWithoutNotificationERKN4math7_float3Ey
kwe:__ZL87GUIUtility_t1868551600_CustomAttributesCacheGenerator_U3CguiIsExitingU3Ek__BackingFieldP21CustomAttributesCache
kje:__ZL101MonoBehaviour_t3962482529_CustomAttributesCacheGenerator_MonoBehaviour_StartCoroutine_Auto_m594129169P21CustomAttributesCache
Ti:_JS_Eval_ClearTimeout
Qce:__ZL64ThreadStaticAttribute_t3840787420_CustomAttributesCacheGeneratorP21CustomAttributesCache
Fmb:__ZN7ApiGLES16SetPatchVerticesEi
pI:__ZZN26AnimatorOverrideController15InitializeClassEvEN30FunctorImpl_86kDidModifyMotion4CallEPviR11MessageData
jdj:_CharacterClass_Compile_m3296067317
e7j:__ZN6il2cpp2gc16GarbageCollector16InvokeFinalizersEv
Owj:_OnOverrideControllerDirtyCallback_EndInvoke_m2432606376
gEg:_Byte_System_IConvertible_ToInt64_m285584218_AdjustorThunk
cGf:_Rect_get_size_m477575021_AdjustorThunk
yzj:__ZN6il2cpp2vm5Class20FromGenericParameterEPK22Il2CppGenericParameter
P$:__ZN19CloudServiceHandler11FlushEventsEv
qfa:__ZN15GlobalCallbacksC2Ev
GUd:_MethodCall_System_Runtime_Remoting_Messaging_IInternalMessage_set_Uri_m1919576807
Mih:_Array_InternalArray__ICollection_Add_TisLabelData_t360167391_m1648183135_gshared
n8e:_Comparer_1_System_Collections_IComparer_Compare_m2016223770_gshared
DZh:_ReadOnlyCollection_1_System_Collections_Generic_ICollectionU3CTU3E_Add_m1738170497_gshared
lGe:__ZL57BaseMeshEffect_t2440176439_CustomAttributesCacheGeneratorP21CustomAttributesCache
Gmi:__Z74RuntimeInvoker_DateTime_t3738529785_DateTime_t3738529785_Int32_t2950945753PFvvEPK10MethodInfoPvPS4_
e_c:_UNITY_FT_New_Memory_Face
z$i:_Collection_1_System_Collections_IList_IndexOf_m3271188411_gshared
oWd:__ZL52IComparable_t36111218_CustomAttributesCacheGeneratorP21CustomAttributesCache
iXg:_MonoIO_GetFileStat_m678141354
P1c:_UNITY_FT_Load_Sfnt_Table
xBd:__Z15CastclassSealedP12Il2CppObjectP11Il2CppClass
qpc:__ZN15ApplicationInfo14GetSandboxTypeEv
dsb:__Z18Transfer_BlittableI17RemapPPtrTransferLb1EhEvRK29SerializationCommandArgumentsR31RuntimeSerializationCommandInfo
k8g:_Decimal_IsZero_m4250358244_AdjustorThunk
dJe:_UnmanagedMemoryStream_get_CanRead_m3770815400
P7b:__ZN16ReflectionProbes40UpdateRealtimeReflectionProbesTimeslicedEv
UWa:__ZN14SafeBinaryRead21TransferSTLStyleArrayI13dynamic_arrayI8Vector2fLj0EEEEvRT_17TransferMetaFlags
Dmj:__ZN23InterfaceActionInvoker1IP24SingleU5BU5D_t1444911251E6InvokeEjP11Il2CppClassP12Il2CppObjectS1_
m2j:__ZNSt3__26__treeINS_12__value_typeIP24Il2CppReflectionAssemblyPvEENS_19__map_value_compareIS3_S5_NS_4lessIS3_EELb1EEENS_9allocatorIS5_EEE16__insert_node_atEPNS_16__tree_node_baseIS4_EERSF_SF_
x$g:_Decimal_u64_m3374804932
kQh:_UInt16_System_IConvertible_ToInt32_m1950778303_AdjustorThunk
N3a:__ZNK30RuntimeInitializeOnLoadManager22GetTypeVirtualInternalEv
FEj:__ZN15dense_hashtableINSt3__24pairIK10KeyWrapperIN6il2cpp5utils13dynamic_arrayIPK10Il2CppTypeLj4EEEEPFvvEEESA_NS3_8metadata19Il2CppSignatureHashEN14dense_hash_mapISA_SD_SG_NSA_14EqualsComparerINSF_22Il2CppSignatureCompareEEENS0_9allocatorISE_EEE9SelectKeyESK_SM_E12resize_deltaEjj
owc:__ZN16ReflectionProbes15InitializeClassEv
YY:__ZN13dynamic_arrayIN11UnityEngine15CloudWebService14DataErrorEvent15FileErrorDetailELj0EE18resize_initializedEj12ResizePolicy
jYd:__ZL71Enum_t4135868527_CustomAttributesCacheGenerator_Enum_Format_m2588135982P21CustomAttributesCache
XFj:__ZNK15dense_hashtableINSt3__24pairIK10KeyWrapperIPK11Il2CppClassEPKcEES6_N6il2cpp5utils11PointerHashIS3_EEN14dense_hash_mapIS6_S9_SE_NS6_14EqualsComparerINS0_8equal_toIS5_EEEENS0_9allocatorISA_EEE9SelectKeyESJ_SL_E12test_deletedEj
LZh:_ReadOnlyCollection_1_System_Collections_ICollection_CopyTo_m2527663815_gshared
h1j:__ZN6il2cpp2vm5Image9GetCorlibEv
XLf:_Vector3_get_left_m2428419009
s5j:__ZN6il2cpp2vm11MethodStack17GetStackFramesRawEv
D2d:__ZL50Pointer_t2088917139_CustomAttributesCacheGeneratorP21CustomAttributesCache
lek:_GC_reclaim_uninit
b7a:__ZN16LightmapSettings11UnshareDataEv
cud:_ExecuteEvents_Execute_m113814934
Lba:__ZN13RuntimeStaticINSt3__23mapIN4core12basic_stringIcNS2_20StringStorageDefaultIcEEEES6_NS0_4lessIS6_EE13stl_allocatorINS0_4pairIKS6_S6_EEL18MemLabelIdentifier13ELi16EEEELb0EE13StaticDestroyEPv
mvf:_Coroutine_ReleaseCoroutine_m947702340
t8e:_Enumerator_System_Collections_IEnumerator_get_Current_m2979767597_AdjustorThunk
H8h:__ZN30GenericInterfaceActionInvoker1I17Color_t2555686324E6InvokeEPK10MethodInfoP12Il2CppObjectS0_
Arf:_MD5CryptoServiceProvider_ProcessFinalBlock_m2241588515
bXf:_ScrollRect_GetBounds_m449872505
Rj:_glIsVertexArray
uyg:_SmallXmlParser_Read_m3485223434
$Qg:_Int16_Parse_m2276856944
t1e:_InternalEnumerator_1__ctor_m3443175323_AdjustorThunk
Iad:__ZL42__ManagedRegistrationHelperFunction_CanvasPv
Ysa:__ZN5Unity9Component8TransferI18StreamedBinaryReadILb0EEEEvRT_
g2d:__ZL131CustomAttributeData_t1084486650_CustomAttributesCacheGenerator_CustomAttributeData_t1084486650____ConstructorArguments_PropertyInfoP21CustomAttributesCache
ea:invoke_fff
onk:_mbsinit
ftk:b14
e8f:_RepeatContext_get_Expression_m255006542
TDc:__Z34RenderTexture_Get_Custom_PropWidthP12Il2CppObject
zbd:__ZN2UI6Canvas17MainThreadCleanupEv
aja:__ZN6prcoreL12RemapGenericI17TexFormatARGB155517TexFormatRGBA8888EEvPKNS_9InnerInfoE
rBj:__ZN13Il2CppHashMapIPK19Il2CppGenericMethodPK26Il2CppGenericMethodIndicesN6il2cpp8metadata23Il2CppGenericMethodHashENS7_26Il2CppGenericMethodCompareENSt3__29allocatorINSA_4pairIK10KeyWrapperIS2_ES5_EEEEEC2EjRKS8_RKS9_
gId:_TypeBuilder_HasElementTypeImpl_m1871001960
oqg:_SecurityFrame__ctor_m2140076703_AdjustorThunk
uHi:_Array_Resize_TisVector2_t2156229523_m3382835435_gshared
xwh:_DefaultComparer_Equals_m2458578172_gshared
Zmb:__ZN7ApiGLES13CreateProgramEv
XHa:__ZN11HaloManager7AddHaloEv
U8e:_Enumerator_VerifyState_m4003066746_gshared
IRa:__ZN4crnd12crn_unpackerD2Ev
_K:__ZN9Scripting11UnityEngine12Experimental5Audio19AudioSampleProvider9InitProxyEv
fk:_emscripten_glTexImage2D
h7e:_Comparer_1_System_Collections_IComparer_Compare_m2537217645_gshared
LCa:__ZN16MeshVertexFormat20GetVertexDeclarationER9GfxDevice16VertexInputMasksPKS_
x5:__ZN18ScriptingArguments9AddStringEPKc
Fek:_setup_header
LFg:_Char_ToString_m3588025615
Beh:_SetPropertyUtility_SetStruct_TisAspectMode_t3417192999_m1565063249_gshared
hZi:_Collection_1_get_Count_m2853642267_gshared
YZh:_ReadOnlyCollection_1_System_Collections_IList_get_IsReadOnly_m375760151_gshared
p5d:__ZL53IEnvoyInfo_t2180778907_CustomAttributesCacheGeneratorP21CustomAttributesCache
Bph:_CryptoConvert_ToCapiKeyBlob_m3371450375
$Oa:__ZL23stbir__resize_arbitraryPvPKviiiS_iiiffffPfiij14stbir_datatype12stbir_filterS4_10stbir_edgeS5_16stbir_colorspace
wub:__Z18Transfer_BlittableI24GenerateTypeTreeTransferLb1E8Vector4fEvRK29SerializationCommandArgumentsR31RuntimeSerializationCommandInfo
jtk:b18
qk:_pthread_detach
LIj:__ZN6il2cpp2vm19SocketPollingThread7RunLoopEv
ADd:_FontUpdateTracker_UntrackText_m1981515690
RQi:_List_1_System_Collections_ICollection_get_SyncRoot_m1937857346_gshared
xGe:__ZL64AnalyticsEventTracker_t2285229262_CustomAttributesCacheGeneratorP21CustomAttributesCache
Bzc:__ZN15DirectorManager20ScheduleGraphDestroyERK14HPlayableGraph
zDb:__ZNSt3__213__stable_sortIRN10vector_mapI17ScriptingClassPtrPKN5Unity4TypeENS_4lessIS2_EENS_9allocatorINS_4pairIS2_S6_EEEEE13value_compareENS_11__wrap_iterIPSB_EEEEvT0_SJ_T_NS_15iterator_traitsISJ_E15difference_typeEPNSM_10value_typeEi
imh:_SimpleCollator_FillSurrogateSortKeyRaw_m725998232
VRi:_List_1_AddEnumerable_m1284696147_gshared
w1f:_IPAddress_Equals_m1823478787
sSd:_Context_CreateNewContext_m3053563976
gme:__ZL83RectOffset_t1369453676_CustomAttributesCacheGenerator_RectOffset_set_top_m713260669P21CustomAttributesCache
vhc:__ZN9ShaderLab25SerializedTextureProperty8TransferI24GenerateTypeTreeTransferEEvRT_
TIi:_Array_swap_TisVector2_t2156229523_TisVector2_t2156229523_m345092822_gshared
AYi:_Collection_1_get_Item_m1773274637_gshared
KQj:__ZN6il2cpp2gc19AppendOnlyGCHashMapINSt3__24pairIPK14Il2CppAssemblyP11Il2CppClassEEP24Il2CppReflectionAssembly17ReflectionMapHashIS9_ENS2_8equal_toIS9_EEEC2Ev
f4c:_tt_cmap14_char_next
ixb:__Z18Transfer_BlittableI19StreamedBinaryWriteILb0EELb0EdEvRK29SerializationCommandArgumentsR31RuntimeSerializationCommandInfo
s0:__GLOBAL__sub_I_Runtime_Camera_RenderLoops_2_cpp
fua:__ZN11NamedObject8TransferI18StreamedBinaryReadILb0EEEEvRT_
pTb:__ZNK17GPUSkinPoseBuffer12GetBoneCountEv
Swf:_InvokableCall_remove_Delegate_m1376110510
gKg:_Hashtable_Clear_m3112193608
pKh:_UTF8Encoding_InternalGetByteCount_m771565606
O0j:__ZNK15dense_hashtableINSt3__24pairIK10KeyWrapperIP14Il2CppIUnknownEjEES5_N6il2cpp5utils11PointerHashIS3_EEN14dense_hash_mapIS5_jSB_NS5_14EqualsComparerINS0_8equal_toIS4_EEEENS0_9allocatorIS7_EEE9SelectKeyESG_SI_E12test_deletedEj
tQc:__Z18Transfer_BlittableI8JSONReadLb1EyEvRK29SerializationCommandArgumentsR31RuntimeSerializationCommandInfo
cNi:_List_1_System_Collections_IList_Remove_m3654336679_gshared
Oqe:__ZL51GUILayer_t2783472903_CustomAttributesCacheGeneratorP21CustomAttributesCache
R_d:__ZL56IDictionary_2_t3177279192_CustomAttributesCacheGeneratorP21CustomAttributesCache
NCa:__ZN9GfxDevice20GetVertexDeclarationERK18VertexChannelsInfoNS_30VertexDeclarationMRUCacheIndexE
Dfh:_Array_InternalArray__IEnumerable_GetEnumerator_TisUInt64_t4134040092_m1382862496_gshared
Nk:_emscripten_glMatrixMode
mTf:_MaskableGraphic_UnityEngine_UI_IClippable_get_gameObject_m1739855597
BOg:_NumberFormatInfo_get_RawPercentGroupSizes_m97703232
Yu:__ZN8Animator23VirtualRedirectTransferER18StreamedBinaryReadILb0EE
OPg:_Guid__ctor_m3562600567_AdjustorThunk
d5g:_DateTime_System_IConvertible_ToInt16_m3239820399
gY:__ZN11UnityEngine15CloudWebService14DataDispatcher16PrepareDataBlockERNS0_16SessionContainerE
QTb:__ZN18GfxFramebufferGLES5ClearE13GfxClearFlagsRK10ColorRGBAffib
INi:_List_1_Sort_m2163953164_gshared
mih:_MonoProperty_StaticGetterAdapterFrame_TisRuntimeObject_m4131530968_gshared
_Bb:__ZL26Transfer_SimpleNativeClassI18StreamedBinaryReadILb0EE10RectOffsetLb0EEvRK29SerializationCommandArgumentsR31RuntimeSerializationCommandInfo
q0e:_InternalEnumerator_1_get_Current_m2316281569_gshared
ZZb:__ZL12DepthPassJobPN21GfxDeviceAsyncCommand10ArgScratchEPKNS_3ArgE
Ofc:__ZNSt3__26vectorIN9ShaderLab20SerializedSubProgram16TextureParameterENS_9allocatorIS3_EEE6assignINS_11__wrap_iterIPS3_EEEENS_9enable_ifIXaasr21__is_forward_iteratorIT_EE5valuesr16is_constructibleIS3_NS_15iterator_traitsISC_E9referenceEEE5valueEvE4typeESC_SC_
PBf:_MonoBehaviour_IsInvoking_m3285132449
Zef:_Transform_1_EndInvoke_m1701794896_gshared
KLc:__ZN5Unity9rapidjson6WriterI16TempBufferWriterNS0_4UTF8IcEES4_13JSONAllocatorE11WriteDoubleEd
ZLh:_Thread_SetCachedCurrentUICulture_m1729523031
jlb:__ZN14GfxDeviceStats16CopyAllDrawStatsERKS_
cQf:_InputField_get_minHeight_m2822964544
$df:__ZN23GenericVirtFuncInvoker1I27DictionaryEntry_t3123975638iE6InvokeEPK10MethodInfoP12Il2CppObjecti
Kfg:_ClientContext_set_ClientHelloProtocol_m4189379912
Om:FUNCTION_TABLE_iiiiiiiiiiii
yRi:_List_1_get_Item_m1686506901_gshared
Kbf:_KeyCollection_System_Collections_Generic_IEnumerableU3CTKeyU3E_GetEnumerator_m1982109872_gshared
SEa:__ZN16GraphicsSettingsD0Ev
s2:__Z12FormatBufferPciPKcz
nld:__ZNSt3__26__treeINS_12__value_typeIN4core12basic_stringIcNS2_20StringStorageDefaultIcEEEE14CallbackArray3IRKS6_R8JSONReadbEEENS_19__map_value_compareIS6_SD_NS_4lessIS6_EELb1EEE13stl_allocatorISD_L18MemLabelIdentifier6ELi16EEE7destroyEPNS_11__tree_nodeISD_PvEE
n:cttz_i8
f$c:_UNITY_FT_GlyphLoader_Add
vod:__ZN9Scripting11UnityEngine10Networking29UnityWebRequestAsyncOperation9InitProxyEv
pnj:_AudioListener_INTERNAL_CALL_ReadExtensionPropertyName_m330480156
DFe:__ZL78LayoutRebuilder_t541313304_CustomAttributesCacheGenerator_U3CU3Ef__mgU24cache0P21CustomAttributesCache
Gpi:__Z53RuntimeInvoker_Interval_t1802865632_Int32_t2950945753PFvvEPK10MethodInfoPvPS4_
F3g:_Convert_ToUInt16_m867476252
Kl:_emscripten_glViewport
hbk:__ZN6il2cpp6icalls8mscorlib6System15MonoCustomAttrs17IsDefinedInternalEP12Il2CppObjectP20Il2CppReflectionType
BDh:_Enumerator__ctor_m40451936_AdjustorThunk
qri:__Z53RuntimeInvoker_Vector3_t3722313464_Single_t1397266774PFvvEPK10MethodInfoPvPS4_
Wwj:_SkeletonBone_t4134054672_marshal_pinvoke_back
G4d:__ZL115SynchronizationAttribute_t3946661254_CustomAttributesCacheGenerator_SynchronizationAttribute_IsContextOK_m324067792P21CustomAttributesCache
Jqa:__ZN9Scripting11UnityEngine10CacheIndex9InitProxyEv
oQe:_CustomAttributeData_get_Constructor_m489601093
C0c:_cff_parse_font_bbox
rlh:_MSCompatUnicodeTable_Category_m1834196420
bpc:__Z35Application_Get_Custom_PropIsEditorv
b2a:__ZN14PlayerSettings23VirtualRedirectTransferER18StreamedBinaryReadILb0EE
sgi:__Z85RuntimeInvoker_Void_t1185182177_Int32_t2950945753_Int32_t2950945753_Int32_t2950945753PFvvEPK10MethodInfoPvPS4_
mah:_Double_CompareTo_m3151899116
Pjk:__ZN6il2cpp2os5Event5ResetEv
R3c:_tt_name_ascii_from_other
Qlj:_ToggleGroup__ctor_m3308114662
m3j:__ZN6il2cpp8metadata15GenericMetadata17InflateParametersEPK13ParameterInfohPK20Il2CppGenericContextb
klg:_RSAParameters_t1728406613_marshal_pinvoke_back
iIi:_Array_Sort_TisUILineInfo_t4195266810_m3737783007_gshared
PDf:_PlayableAsset_Internal_CreatePlayable_m2550417712
WHf:_RenderTexture_get_width_m2160921386
ly:__ZNK17AnimationPlayable27GetNextCompatibleDescendantEj
$gg:_Context_get_LastHandshakeMsg_m2730646725
Ice:__ZL59ResolveEventArgs_t1779456501_CustomAttributesCacheGeneratorP21CustomAttributesCache
f_c:__ZN13dynamic_arrayIN4core17string_with_labelILi35EEELj0EE6insertEPS2_jRKS2_
gua:__ZN4PPtrI6SpriteE8TransferI18StreamedBinaryReadILb0EEEEvRT_
ewe:__ZL64GUIUtility_t1868551600_CustomAttributesCacheGenerator_s_SkinModeP21CustomAttributesCache
E5i:_TlsStream_Write_m188217214
N2c:_otv_LigatureSubst_validate
Ooj:__ZL24UnresolvedVirtualCall_19P12Il2CppObject25DSAParameters_t1885824122PK10MethodInfo
hHb:__Z25SetNeedToPerformRenderingb
ipk:__ZN10__cxxabiv116__shim_type_infoD2Ev
HJf:_Touch_get_phase_m214549210
fcj:_Alternation__ctor_m1629257642
Sgd:__ZN8JSONRead12TransferPairINSt3__24pairIN4core12basic_stringIcNS3_20StringStorageDefaultIcEEEEN11UnityEngine9Analytics16LimitEventConfigEEEEEvRT_17TransferMetaFlagsPKN5Unity9rapidjson12GenericValueINSG_4UTF8IcEE13JSONAllocatorEE
jwa:__ZN10GameObjectD2Ev
l_b:__ZN14qsort_internal30FindAndMovePivotToLastPositionIP15RODataDepthPassi17ROSorterDepthPassEEvT_S4_T0_T1_
XJe:_MethodAccessException__ctor_m3411913042
jzh:_EqualityComparer_1__ctor_m1767308726_gshared
N6b:__ZN12CullingGroup10SendEventsEPK17CullingGroupEventj
qJj:__ZNSt3__214__split_bufferI6pollfdRNS_9allocatorIS1_EEED2Ev
FOg:_NumberFormatInfo_get_PerMilleSymbol_m1360140831
Bdg:_EncryptedData_get_EncryptionAlgorithm_m905084934
mfh:_Array_InternalArray__IEnumerable_GetEnumerator_TisCustomAttributeTypedArgument_t2723150157_m1333528454_gshared
Evd:_PointerInputModule__ctor_m3728889932
JUa:__ZThn32_NK8Renderer8GetLayerEv
_Dh:_Enumerator_System_Collections_IEnumerator_Reset_m2915500989_gshared
H0c:_cff_parse_vsindex
J1j:__ZN30dense_hashtable_const_iteratorINSt3__24pairIK10KeyWrapperINS1_IPKcS4_EEEiEES6_24NamespaceAndNamePairHashN14dense_hash_mapIS6_iS9_NS6_14EqualsComparerI26NamespaceAndNamePairEqualsEENS0_9allocatorIS8_EEE9SelectKeyESD_SF_E30advance_past_empty_and_deletedEv
kRg:_Int32_ValidDigit_m1059003769
Gyk:_emscripten_glTexParameterfv__wrapper
iHf:_RectTransform_INTERNAL_get_sizeDelta_m2173368204
ade:__ZL54MemberFilter_t426314064_CustomAttributesCacheGeneratorP21CustomAttributesCache
aRf:_LayoutGroup_get_rectTransform_m442863741
Eob:__Z18Transfer_BlittableI14SafeBinaryReadLb1E9BoundsIntEvRK29SerializationCommandArgumentsR31RuntimeSerializationCommandInfo
Zsc:__ZN2UI13RectTransform17GetLocalPositionZEv
Ovk:b63
BVj:_il2cpp_method_get_param_count
nba:__ZNK5Unity4Type21FindAllDerivedClassesER13dynamic_arrayIPKS0_Lj0EENS0_17TypeFilterOptionsE
wpc:__ZN10systeminfo19ISOToSystemLanguageERN4core12basic_stringIcNS0_20StringStorageDefaultIcEEEE
DPj:__ZNK15dense_hashtableINSt3__24pairIK10KeyWrapperINS1_IPK12PropertyInfoP11Il2CppClassEEEjEES9_17ReflectionMapHashIS8_EN14dense_hash_mapIS9_jSD_NS9_14EqualsComparerINS0_8equal_toIS8_EEEENS0_9allocatorISB_EEE9SelectKeyESI_SK_E3endEv
h3h:__ZN28GenericInterfaceFuncInvoker2Ii39CustomAttributeNamedArgument_t287865710S0_E6InvokeEPK10MethodInfoP12Il2CppObjectS0_S0_
dKi:_LayoutGroup_SetProperty_TisAxis_t3613393006_m3591044743_gshared
PSh:_UnauthorizedAccessException__ctor_m40101894
zYd:__ZL69RuntimeArray_CustomAttributesCacheGenerator_Array_SetValue_m282347242P21CustomAttributesCache
Jnd:__ZN22BaseUnityConnectClient14AppRunningTickEj
N7c:_ps_dimension_done
p9c:__Z46Register_UnityEngine_TextGenerator_Dispose_cppv
vji:__Z67RuntimeInvoker_GCHandle_t3351438187_RuntimeObject_Int32_t2950945753PFvvEPK10MethodInfoPvPS4_
qah:_Double_Parse_m4153729520
Kai:_IndexedSet_1_AddUnique_m861843892_gshared
dee:__ZL59HybridDictionary_t4070033136_CustomAttributesCacheGeneratorP21CustomAttributesCache
IVa:__ZN16LightmapSettings8TransferI14SafeBinaryReadEEvRT_
bOb:__ZN17BufferManagerGLES13ReleaseBufferEP14DataBufferGLES
Jeg:_CipherSuite_Write_m1172814058
nIe:_SynchronizedWriter_Write_m301917713
g3:__ZN9profiling6MarkerC2EPKc13ProfilerGroupNS0_5FlagsE
M6e:__ZN21InterfaceFuncInvoker1Ii22UILineInfo_t4195266810E6InvokeEjP11Il2CppClassP12Il2CppObjectS0_
qQc:__Z18Transfer_BlittableI8JSONReadLb1EjEvRK29SerializationCommandArgumentsR31RuntimeSerializationCommandInfo
jRe:_ConstructorBuilder_get_IsCompilerContext_m3364441562
Svf:_Debug_LogWarning_m3752629331
hsc:__Z13RegisterClassIN2UI13RectTransformEEvPKc
pqa:__ZN9Scripting11UnityEngine7Texture9InitProxyEv
q2h:_ReadOnlyCollection_1_System_Collections_Generic_IListU3CTU3E_RemoveAt_m4037795630_gshared
Rki:__Z117RuntimeInvoker_Void_t1185182177_RuntimeObject_Int32_t2950945753_Int32_t2950945753_Int32_t2950945753_Int32_t2950945753PFvvEPK10MethodInfoPvPS4_
UYa:__ZNK13ScreenManager17GetFullscreenModeEv
cR:__Z30GetAudioSpatializerDefinitionsR13dynamic_arrayIP29AudioEffectInternalDefinitionLj0EE31UnityAudioEffectDefinitionFlags
TCe:__ZL81U3CMouseDragOutsideRectU3Ec__Iterator1_t3909241878_CustomAttributesCacheGeneratorP21CustomAttributesCache
pyd:_U3COnFinishSubmitU3Ec__Iterator0_Reset_m3632769946
Zo:stackSave
G_:__ZN5Unity9rapidjson15GenericDocumentINS0_4UTF8IcEE13JSONAllocatorNS0_12CrtAllocatorEE6StringEPKcjb
sAd:_ColorTween_get_targetColor_m1724075482_AdjustorThunk
g8c:_ps_dimension_end
BFc:__Z41Register_UnityEngine_Mesh_Internal_Createv
Agb:__ZN16MemoryFileSystem5TouchER13FileEntryData
k3j:__ZNK15dense_hashtableI10KeyWrapperIP18Il2CppGenericClassES3_N6il2cpp8metadata22Il2CppGenericClassHashEN14dense_hash_setIS3_S6_NS3_14EqualsComparerINS5_25Il2CppGenericClassCompareEEENSt3__29allocatorIS3_EEE8IdentityESA_SD_E12test_deletedERK30dense_hashtable_const_iteratorIS3_S3_S6_SF_SA_SD_E
BEh:_Enumerator_Dispose_m2498245804_AdjustorThunk
S_g:_Console_Open_m3077673205
d8i:_X509StoreManager_get_CurrentUser_m4040993045
u8b:__ZN6Camera9SetAspectEf
lhh:_Array_InternalArray__IndexOf_TisDateTime_t3738529785_m2463359116_gshared
va:invoke_viiffiii
wkk:_Display_Start_m3623905221
n$e:_InternalEnumerator_1_MoveNext_m4138204635_gshared
Xzk:_emscripten_glBindVertexArray__wrapper
N5j:__ZN6il2cpp6icalls8mscorlib6System4Enum19get_underlying_typeEP20Il2CppReflectionType
Tdj:_Parser_IsECMAScript_m674158805
mL:__ZN10ObjectPoolIN4FMOD3DSPENS0_4DSPIEE7GetFreeEi
ixa:__ZN9Transform37InitializeTransformHierarchyRecursiveER18TransformHierarchyRii
inb:__ZN26SinglePassStereoSupportExt23SetupStereoMatrixParamsE21MonoOrStereoscopicEye24BuiltinShaderMatrixParamRK10Matrix4x4f
tHi:_Array_Resize_TisVector2_t2156229523_m1564542050_gshared
Sjb:__ZN9GfxDevice23CreateAsyncReadbackDataEv
Jod:__ZNK25UnityWebRequestJavaScript16GetUploadedBytesEv
$T:__Z46AudioListener_CUSTOM_GetNumExtensionPropertiesP12Il2CppObject
WJj:__ZN6il2cpp6icalls8mscorlib6SystemL16CheckMemberMatchI9FieldInfoNS_5utils10functional6FilterINSt3__212basic_stringIcNS8_11char_traitsIcEENS8_9allocatorIcEEEENS5_13VmStringUtils23CaseInsensitiveComparerEEEEEbPKT_PK11Il2CppClassSN_iRKT0_
Y5:__Z14GetMonoManagerv
yhh:_Array_InternalArray__IndexOf_TisMonoResource_t4103430009_m1351751258_gshared
dw:__ZN17AnimationPlayable34CollectAnimatorControllerPlayablesER13dynamic_arrayIP26AnimatorControllerPlayableLj0EE
dLg:_FieldAccessException__ctor_m3583219052
J7g:_Decimal_System_IConvertible_ToDouble_m3125524987
pqc:__Z57Register_UnityEngine_Transform_INTERNAL_set_localPositionv
ese:__ZL105RectTransform_t3704657025_CustomAttributesCacheGenerator_RectTransform_INTERNAL_get_anchorMax_m1239315619P21CustomAttributesCache
SMb:__ZN13GfxDeviceGLES26SetRandomWriteTargetBufferEi15ComputeBufferID
Eek:_GC_split_block
oHi:_Array_Resize_TisUICharInfo_t75501106_m3903846016_gshared
W_h:_ReadOnlyCollection_1_System_Collections_Generic_ICollectionU3CTU3E_get_IsReadOnly_m3887826072_gshared
uPj:__ZNK15dense_hashtableINSt3__24pairIK10KeyWrapperINS1_IPK12PropertyInfoP11Il2CppClassEEEjEES9_17ReflectionMapHashIS8_EN14dense_hash_mapIS9_jSD_NS9_14EqualsComparerINS0_8equal_toIS8_EEEENS0_9allocatorISB_EEE9SelectKeyESI_SK_E8min_sizeEjj
CVb:__ZZ23InitPlayerLoopCallbacksvEN49EarlyUpdateResetFrameStatsAfterPresentRegistrator7ForwardEv
Lnk:_poll
Y_h:_ReadOnlyCollection_1_System_Collections_IEnumerable_GetEnumerator_m1671097018_gshared
ASh:_UInt64_ToString_m1529093114_AdjustorThunk
yQe:__ZN21InterfaceFuncInvoker1I39CustomAttributeNamedArgument_t287865710iE6InvokeEjP11Il2CppClassP12Il2CppObjecti
EPd:_TypeLibImportClassAttribute__ctor_m2302178978
Smh:_Escape_t3294788190_marshal_pinvoke
wPf:_InputField_OnUpdateSelected_m1118869681
l1j:__ZN6il2cpp2vmL36AddNestedTypesToNametoClassHashTableEP40Il2CppNameToTypeDefinitionIndexHashTablePKcRKNSt3__212basic_stringIcNS5_11char_traitsIcEENS5_9allocatorIcEEEEP11Il2CppClass
Omf:_SerializationException__ctor_m3131447373
RRa:__ZN4crnd12crn_unpacker11unpack_dxt1EPPhjjj
URj:__ZN15dense_hashtableINSt3__24pairIK10KeyWrapperIPK10Il2CppTypeEjEES6_N6il2cpp8metadata14Il2CppTypeHashEN14dense_hash_mapIS6_jSB_NS6_14EqualsComparerINSA_26Il2CppTypeEqualityComparerEEENS0_9allocatorIS8_EEE9SelectKeyESF_SH_E14squash_deletedEv
FJ:__ZL55__ManagedRegistrationHelperFunction_CoordinateFramePairPv
akc:__ZNK11ICallString6ToUTF8Ev
vCi:__Z39RuntimeInvoker_MonoResource_t4103430009PFvvEPK10MethodInfoPvPS4_
Ezj:__ZN15dense_hashtableINSt3__24pairIK10KeyWrapperIPK22Il2CppGenericParameterEP11Il2CppClassEES6_N6il2cpp5utils11PointerHashIS4_EEN14dense_hash_mapIS6_S9_SE_NS6_14EqualsComparerINS0_8equal_toIS5_EEEENS0_9allocatorISA_EEE9SelectKeyESJ_SL_E15insert_noresizeERKSA_
Cdf:_Transform_1_Invoke_m2468053724_gshared
Gji:__Z51RuntimeInvoker_Void_t1185182177_TimeSpan_t881159249PFvvEPK10MethodInfoPvPS4_
nX:__ZL60__ManagedRegistrationHelperFunction_ClothSkinningCoefficientPv
m_b:__ZNSt3__211__sift_downIR17ROSorterDepthPassP15RODataDepthPassEEvT0_S5_T_NS_15iterator_traitsIS5_E15difference_typeES5_
GMa:__ZN18UnityPropertySheet11UnityTexEnvC2Ev
dAg:_ArgumentException__ctor_m3200406061
sD:__ZN8Animator17ApplyOnAnimatorIKEiRNS_11AnimatorJobE
aaa:__ZN12FileAccessor4ReadEyyPvPy
Krj:__ZL25UnresolvedVirtualCall_177P12Il2CppObject25RaycastResult_t3360306849PK10MethodInfo
fDb:__Z29Transfer_Blittable_ArrayFieldI18StreamedBinaryReadILb0EE11QuaternionfEvRT_R9ArrayInfoRK23StaticTransferFieldInfo
oTi:_List_1_set_Capacity_m2777925136_gshared
Y7b:__ZN13RenderTexture9SetHeightEi
G8:__ZN17PersistentManager25PreallocateObjectThreadedEiNS_9LockFlagsE
yw:__ZN7mecanim9animation17ClearMotionOutputEPNS0_18AnimationNodeStateE
zie:__ZL59LightmapBakeType_t1497855756_CustomAttributesCacheGeneratorP21CustomAttributesCache
vfg:_CipherSuiteCollection_get_IsFixedSize_m3127823890
JEa:__ZN16LevelGameManager8TransferI24GenerateTypeTreeTransferEEvRT_
J5e:_InternalEnumerator_1_System_Collections_IEnumerator_get_Current_m3537550566_gshared
iVf:_Scrollbar_UpdateVisuals_m2492252165
V6i:_PKCS12_get_Keys_m2165478388
OZj:__ZN6il2cpp6icalls8mscorlib6System2IO6MonoIO17GetFileAttributesEP12Il2CppStringPi
Rqf:_HMACMD5__ctor_m3008609295
n6d:__ZL61X509KeyStorageFlags_t441861693_CustomAttributesCacheGeneratorP21CustomAttributesCache
q6g:_DateTime_ToString_m2992030064_AdjustorThunk
J4c:_tt_cmap8_char_index
W5:__Z24scripting_class_get_name17ScriptingClassPtr
H2f:_Oid__ctor_m911618594
nmj:_VerticalLayoutGroup_CalculateLayoutInputHorizontal_m1404590745
hca:__ZN13RuntimeStaticI15GUIEventManagerLb0EE13StaticDestroyEPv
$Ke:_ShortComparer_Compare_m1881262465
uqb:__Z29Transfer_Blittable_ArrayFieldI14SafeBinaryReadjEvRT_R9ArrayInfoRK23StaticTransferFieldInfo
de:_emscripten_set_keydown_callback
yvg:_EncoderReplacementFallback__ctor_m1483565116
i8f:_Interpreter_IsWordChar_m2858055765
eKg:_Hashtable_CopyTo_m2905447224
kqa:__ZN9Scripting11UnityEngine29CustomRenderTextureUpdateZone12CleanupProxyEv
iaa:__ZN12FileAccessorC2Ev
aBi:__Z96RuntimeInvoker_Void_t1185182177_BooleanU5BU5DU26_t3454195888_Int32_t2950945753_Int32_t2950945753PFvvEPK10MethodInfoPvPS4_
rqi:__Z73RuntimeInvoker_Void_t1185182177_Vector2U26_t2376273893_RayU26_t3515555043PFvvEPK10MethodInfoPvPS4_
hzh:_EqualityComparer_1_System_Collections_IEqualityComparer_Equals_m3855544238_gshared
VUa:__ZNK8Renderer29FlattenPerMaterialCustomPropsER22PerThreadPageAllocatorR10RenderNode
GA:__ZThn152_NK26AnimatorControllerPlayable25GetStateMachineBehavioursEv
Aai:_EventFunction_1_Invoke_m2429482587_gshared
hIj:_CertificateHandler_Dispose_m2100863831
jWd:__ZL51Attribute_t861562559_CustomAttributesCacheGeneratorP21CustomAttributesCache
jLj:__ZN6il2cpp2vm7Runtime12GetConfigDirEv
mmj:_VerticalLayoutGroup__ctor_m321345421
$H:__ZN4PPtrI13MonoBehaviourE8TransferI18StreamedBinaryReadILb0EEEEvRT_
yDh:_Enumerator_MoveNext_m1177880931_AdjustorThunk
rIf:_SendMouseEvents_SetMouseMoved_m2822596724
Iue:__ZL82Event_t2956885303_CustomAttributesCacheGenerator_Event_get_commandName_m4275147343P21CustomAttributesCache
puj:_TextGenerator_Populate_m194003733
gSe:_DerivedType_get_FullName_m1025358827
Xof:_CryptoConfig_MapNameToOID_m2044758263
gma:__ZL50__ManagedRegistrationHelperFunction_SetupCoroutinePv
zr:__ZN13ConstraintJob23ConstraintComponentDataC2ERKS0_
zCe:__ZL70InputField_t3762917431_CustomAttributesCacheGenerator_m_OnValueChangedP21CustomAttributesCache
KFb:__Z39WriteQueueForTransferSignatureIntoCacheRK31TransferFunctionScriptingTraitsRK24TransferRequestSignature17ScriptingClassPtrR23CachedSerializationDataRb
P6a:__ZN13RenderManager18UpdateAllRenderersEv
dwg:_Encoding_get_UTF8UnmarkedUnsafe_m320312322
gMh:_Thread_Thread_free_internal_m333849022
dNc:__Z35Transfer_Blittable_FixedBufferFieldI9JSONWritexEvRK29SerializationCommandArgumentsR31RuntimeSerializationCommandInfo
e9i:_CostDelegate_BeginInvoke_m2828452701
Uid:__ZN22BaseUnityConnectClient30OnEnteringStatePausedOrStoppedEv
s1i:_Collection_1_ConvertItem_m1556170494_gshared
Mw:__ZN7mecanim5human12HumanPoseAddERNS0_9HumanPoseERKS1_S4_
z0g:_DateTime_ToUniversalTime_m1945318289
F9g:_DllNotFoundException__ctor_m1156705135
FGg:_ArrayList_ToArray_m3827492363
aZf:_Slider_get_stepSize_m1423227661
vSh:_UInt64_Parse_m819899889
$mg:_SymmetricAlgorithm_set_IV_m3196220308
bUe:_GenericTypeParameterBuilder_GetHashCode_m852224381
X3g:_Convert_ToUInt32_m1453583008
jMg:_CompareInfo_Compare_m894311506
Pwa:__Z24MergeTransformComponentsR9TransformS0_b
YDj:__ZNK15dense_hashtableI10KeyWrapperIPK19Il2CppGenericMethodES4_N6il2cpp8metadata23Il2CppGenericMethodHashEN14dense_hash_setIS4_S7_NS4_14EqualsComparerINS6_26Il2CppGenericMethodCompareEEENSt3__29allocatorIS4_EEE8IdentityESB_SE_E10test_emptyEj
nsd:_EventSystem_UpdateModules_m3643806022
b7j:__ZN6il2cpp2gc16GarbageCollector10StartWorldEv
vwj:_AnimationOffsetPlayable__cctor_m1029460816
Q7h:_InvokableCall_1__ctor_m2610016537_gshared
Zog:_Evidence_get_SyncRoot_m2835084965
Aeh:_SetPropertyUtility_SetStruct_TisTouchScreenKeyboardType_t1530597702_m2455393348_gshared
vvh:_DefaultComparer__ctor_m2280347240_gshared
P6d:__ZL59ICryptoTransform_t2733259762_CustomAttributesCacheGeneratorP21CustomAttributesCache
Rak:__ZN6il2cpp2vm13ComObjectBase19GetRuntimeClassNameEPP15Il2CppHString__
iCb:__Z35Transfer_Blittable_FixedBufferFieldI18StreamedBinaryReadILb0EEyEvRK29SerializationCommandArgumentsR31RuntimeSerializationCommandInfo
NDa:__Z37GetBarycentricCoordinatesForOuterCellPPK8Vector3fRK13dynamic_arrayIS_Lj0EERS0_RK11TetrahedronR8Vector4f
Pj:_emscripten_glVertexAttribPointer
Ipk:__ZNSt11logic_errorD0Ev
xIb:__ZN14PreloadManager26UpdatePreloadingSingleStepENS_21UpdatePreloadingFlagsEi
kbi:_TweenRunner_1__ctor_m340723704_gshared
QXf:_ScrollRect_SetLayoutHorizontal_m3078869633
R_g:_Console_OpenStandardInput_m3262421490
Hlh:_SimpleCollator__ctor_m1587210019
Drj:__ZL25UnresolvedVirtualCall_170P12Il2CppObject40CustomAttributeTypedArgument_t2723150157S1_PK10MethodInfo
_lc:__Z57Register_UnityEngine_RectTransform_INTERNAL_set_anchorMinv
O3g:_Convert_ToUInt16_m1480956416
wja:__ZN6prcoreL25inner_stretch_i8_bilinearEPKNS_9InnerInfoE
v8a:__ZL30RegisterFilteredObjectCallbackPP12Il2CppObjectiPv
O1h:_ReadOnlyCollection_1_System_Collections_Generic_IListU3CTU3E_RemoveAt_m3317217538_gshared
kue:__ZL54AudioSource_t3935305588_CustomAttributesCacheGeneratorP21CustomAttributesCache
TIb:__Z19InitializeGfxDevicev
DY:__ZN11UnityEngine15CloudWebService16SessionContainer24GetSessionHeaderJsonDataERKN4core12basic_stringIcNS2_20StringStorageDefaultIcEEEERNS2_13StringBuilderE
LRe:_DerivedType_GetEvent_m4157575360
zba:__ZN13RuntimeStaticI21AssetReferenceStorageLb0EE13StaticDestroyEPv
$nf:_SByte_System_IConvertible_ToType_m4075253447_AdjustorThunk
qJg:_Comparer__ctor_m2831654082
xke:__ZL54PhysicsUpdate_t81124440_CustomAttributesCacheGeneratorP21CustomAttributesCache
GWh:_Collection_1_ConvertItem_m618594517_gshared
wvi:__Z72RuntimeInvoker_Bounds_t2266837910_RuntimeObject_Matrix4x4U26_t3606180965PFvvEPK10MethodInfoPvPS4_
W4h:__ZN28GenericInterfaceFuncInvoker2IbiiE6InvokeEPK10MethodInfoP12Il2CppObjectii
l7j:__ZN6il2cpp6icalls8mscorlib6System9AppDomain22InternalGetProcessGuidEP12Il2CppString
Nu:__ZNK25RuntimeAnimatorController30GetAnimationClipOverrideVectorEv
kbe:__ZL79Convert_t2465617642_CustomAttributesCacheGenerator_Convert_ToUInt32_m3188121845P21CustomAttributesCache
Gei:__Z48RuntimeInvoker_RuntimeObject_Decimal_t2948259380PFvvEPK10MethodInfoPvPS4_
wMh:_ThreadStart_EndInvoke_m3768045394
st:__ZN9Scripting11UnityEngine10Animations16ConstraintSource9InitProxyEv
cEc:__Z34Quaternion_CUSTOM_Inverse_InjectedRK11QuaternionfRS_
bKj:__ZNSt3__214__split_bufferIP9FieldInfoRNS_9allocatorIS2_EEEC2EjjS5_
dnf:_StreamingContext__ctor_m2604757771_AdjustorThunk
Tub:__Z18Transfer_BlittableI24GenerateTypeTreeTransferLb1EjEvRK29SerializationCommandArgumentsR31RuntimeSerializationCommandInfo
_Oj:__ZNK15dense_hashtableINSt3__24pairIK10KeyWrapperINS1_IPK11Il2CppImageP11Il2CppClassEEEjEES9_17ReflectionMapHashIS8_EN14dense_hash_mapIS9_jSD_NS9_14EqualsComparerINS0_8equal_toIS8_EEEENS0_9allocatorISB_EEE9SelectKeyESI_SK_E10test_emptyERK30dense_hashtable_const_iteratorISB_S9_SD_SM_SI_SK_E
Czj:__ZN6il2cpp2os12FastAutoLockD2Ev
L1d:__ZL68AssemblyCopyrightAttribute_t836190902_CustomAttributesCacheGeneratorP21CustomAttributesCache
AGa:__ZN11ColorRGBA328TransferI14SafeBinaryReadEEvRT_
FZi:_Collection_1_Add_m1736908447_gshared
V0c:_cff_vstore_done
Lhb:__ZN9GfxDevice33ScheduleComputeBufferJobsInternalEPFvP20ComputeBufferJobDataEPFvRK8JobFenceEPK27ComputeBufferJobInstructionj
Upi:__Z68RuntimeInvoker_Void_t1185182177_UInt16_t2177724958_SByte_t1669577662PFvvEPK10MethodInfoPvPS4_
XSh:__ZN25GenericVirtActionInvoker2IP12Il2CppObjectP39UnhandledExceptionEventArgs_t2886101344E6InvokeEPK10MethodInfoS1_S1_S3_
m5a:__ZN15ResourceManager10Dependency8TransferI24GenerateTypeTreeTransferEEvRT_
orf:_MACTripleDES_HashFinal_m3613553534
RRh:_UInt64_System_IConvertible_ToChar_m2074245892
vr:__ZN4core8hash_setIPN5Unity9ComponentENS_4hashIS3_EENSt3__28equal_toIS3_EEE4growEi
tKh:_UTF8Encoding_InternalGetBytes_m1965760031
If:_emscripten_glClearDepth
Qtc:__ZNK8GUILayer22GetTypeVirtualInternalEv
xTa:__ZN14SafeBinaryRead21TransferSTLStyleArrayINSt3__26vectorIN15QualitySettings14QualitySettingENS1_9allocatorIS4_EEEEEEvRT_17TransferMetaFlags
k8h:_UnityAction_1__ctor_m3007623985_gshared
rbf:_KeyCollection__ctor_m2388548663_gshared
byi:__Z56RuntimeInvoker_Boolean_t97287965_ILTokenInfo_t2325775114PFvvEPK10MethodInfoPvPS4_
u3a:__ZNSt3__26vectorINS_4pairIPKN5Unity4TypeE7Hash128EENS_9allocatorIS7_EEE8__appendEj
Ur:__ZN4core8hash_setIPN5Unity9ComponentENS_4hashIS3_EENSt3__28equal_toIS3_EEE4growEv
dRc:__ZN8JSONRead21TransferSTLStyleArrayI13dynamic_arrayIaLj0EEEEvRT_17TransferMetaFlags
Y0c:_cff_font_load
R7j:__GLOBAL__sub_I_LibraryLoader_cpp
iCc:__Z13IsPathCreatedRKN4core12basic_stringIcNS_20StringStorageDefaultIcEEEE
lBe:__ZL99Dropdown_t2274391225_CustomAttributesCacheGenerator_Dropdown_DelayedDestroyDropdownList_m2082128994P21CustomAttributesCache
Uvf:_Debug_LogWarningFormat_m2535776735
fPa:__ZL22stbir__encode_scanlineP11stbir__infoiPvPfiii
Xoj:__ZL24UnresolvedVirtualCall_28P12Il2CppObjectS0_iiPK10MethodInfo
QOd:_ExternalException__ctor_m2877839282
MVc:__ZN20QuadTreeNodeRenderer13StaticDestroyEPv
zZ:__ZN11UnityEngine15CloudWebService20WebRequestRestClient5AbortEv
T1i:_Collection_1_InsertItem_m954500348_gshared
dcj:_Regex_Matches_m2080913806
htc:__ZN9Transform12CleanupClassEv
ABe:__ZL57FontData_t746620069_CustomAttributesCacheGenerator_m_FontP21CustomAttributesCache
eAf:_Mathf_Sin_m3411839043
h_c:_UNITY_FT_Set_Pixel_Sizes
zOe:_OperatingSystem_Clone_m1122165140
uLi:_GameObject_AddComponent_TisRuntimeObject_m3469369570_gshared
TC:__ZN11UnityEngine9Animation33SetGenericTransformPropertyValuesERKNS0_30AnimatorGenericBindingConstantERKN7mecanim10ValueArrayEP9Transformy
S9d:__ZL59AttributeTargets_t1784037988_CustomAttributesCacheGeneratorP21CustomAttributesCache
Cle:__ZL61ThreadedLoadingDebug_t53594427_CustomAttributesCacheGeneratorP21CustomAttributesCache
sWj:__ZN6il2cpp2vmL24thread_cleanup_on_cancelEPv
wPi:_List_1_RemoveAll_m3165362277_gshared
ROh:_Type_type_is_subtype_of_m1406623598
kma:__ZL54__ManagedRegistrationHelperFunction_SpriteAtlasManagerPv
UKh:_Thread_get_CurrentThread_m4142136012
$Ca:__Z30ProcessDynamicBatchGeometryJobP25DynamicVBOGeometryJobDataj
P_b:__ZNSt3__27__sort4IRNS_6__lessI11CulledLightS2_EEPS2_EEjT0_S6_S6_S6_T_
bTj:__ZN6il2cpp2vm14TypeNameParser26ParseArrayModifierOptionalEv
o7:__Z26scripting_object_get_class18ScriptingObjectPtr
RYj:__ZN6il2cpp6icalls8mscorlib6System10Reflection8Assembly13get_code_baseEP24Il2CppReflectionAssemblyb
n4a:__ZNSt3__26vectorIN4core12basic_stringIcNS1_20StringStorageDefaultIcEEEE13stl_allocatorIS5_L18MemLabelIdentifier13ELi16EEE7reserveEj
dqf:_DSASignatureDeformatter__ctor_m2889130126
Y5f:_X509ChainElementCollection_Clear_m2271223414
Nuc:__ZNK28MonoBehaviourPropertyBinding15GenerateBindingERKN4core12basic_stringIcNS0_20StringStorageDefaultIcEEEEbRN11UnityEngine9Animation14GenericBindingE
oHf:_RectTransform_INTERNAL_set_pivot_m1160676233
nUi:_List_1_set_Item_m35836043_gshared
SDe:__ZL70ScrollRect_t4137855814_CustomAttributesCacheGenerator_m_OnValueChangedP21CustomAttributesCache
P5f:_X509ChainElementCollection__ctor_m3424079155
lFc:__Z58Register_UnityEngine_Camera_ScreenToViewportPoint_Injectedv
m9i:_LinkStack_Push_m3081279930
daf:_Enumerator_MoveNext_m1107569389_gshared
cKj:__ZNSt3__26vectorIP9FieldInfoNS_9allocatorIS2_EEE26__swap_out_circular_bufferERNS_14__split_bufferIS2_RS4_EE
vai:_UnityEvent_3_GetDelegate_m1156357290_gshared
W8j:__ZN6il2cpp6icalls8mscorlib6System11Environment15internalGetHomeEv
_0e:_InternalEnumerator_1__ctor_m4200721464_gshared
FAf:_Matrix4x4_GetHashCode_m4034747639_AdjustorThunk
TNd:_ResourceCacheItem_t51292791_marshal_pinvoke_cleanup
asa:__ZNK5Unity9Component7GetNameEv
GKj:__ZNSt3__214__split_bufferIN6il2cpp6icalls8mscorlib6System12PropertyPairERNS_9allocatorIS5_EEEC2EjjS8_
V8b:__Z23FindMonoScriptFromClass17ScriptingClassPtr
cng:_SymmetricAlgorithm_get_KeySize_m4185004893
xNi:_List_1_GetEnumerator_m232588170_gshared
FRf:_U3CDelayedSetDirtyU3Ec__Iterator0_Reset_m160466733
Glb:__ZN21ScalableBufferManager23UnregisterRenderSurfaceEP17RenderSurfaceBaseb
jse:__ZL104RectTransform_t3704657025_CustomAttributesCacheGenerator_RectTransform_INTERNAL_set_sizeDelta_m188783163P21CustomAttributesCache
GSi:_List_1_System_Collections_IList_Remove_m1070694895_gshared
zgj:_LayoutCache__ctor_m3885940174
xYa:__ZN13ScreenManagerD0Ev
nwj:_AnimationMotionXToDeltaPlayable_GetHandle_m1319190040_AdjustorThunk
kE:__ZN7mecanim8skeleton26SkeletonPoseComputeGlobalQEPKNS0_8SkeletonEPKNS0_13SkeletonPoseTIN4math4trsXEEEPS7_ii
QRh:_UInt64_System_IConvertible_ToByte_m1501504925_AdjustorThunk
buj:_TextGenerator_Invalidate_m1072346986
fig:_TlsClientHello_ProcessAsTls1_m2549285167
HDi:__Z74RuntimeInvoker_Boolean_t97287965_UIVertex_t4057497605_UIVertex_t4057497605PFvvEPK10MethodInfoPvPS4_
F$h:_ReadOnlyCollection_1_System_Collections_IList_Clear_m3591436538_gshared
xWf:_ScrollRect_set_decelerationRate_m723367336
MD:__ZN9BlobWrite8TransferI22OffsetPtrArrayTransferIiEEEvRT_PKc17TransferMetaFlags
nvg:_EncoderExceptionFallback_Equals_m2760188920
v3e:_InternalEnumerator_1__ctor_m43405049_AdjustorThunk
ftb:__Z18Transfer_BlittableI17RemapPPtrTransferLb1EjEvRK29SerializationCommandArgumentsR31RuntimeSerializationCommandInfo
Mrf:_RC2CryptoServiceProvider_get_EffectiveKeySize_m3835262416
D6b:__ZNK15LODGroupManager17CalculateLODMasksERK13LODParametersfPhPf
qO:__ZN4FMOD6System7releaseEv
Swb:__Z18Transfer_BlittableI19StreamedBinaryWriteILb0EELb1E8BitFieldEvRK29SerializationCommandArgumentsR31RuntimeSerializationCommandInfo
zDg:_Boolean_CompareTo_m3665076258
hsg:_String_Split_m3580120853
Xqh:_PrivateKeyInfo__ctor_m2811023496
F9:__Z18PathToAbsolutePathRKN4core12basic_stringIcNS_20StringStorageDefaultIcEEEE
$Gd:_PropertyBuilder_GetCustomAttributes_m2917594003
vhj:_GUILayoutUtility_LayoutFromEditorWindow_m2914699782
v9f:_BigInteger_SetBit_m1723423691
xpa:__ZN9Scripting11UnityEngine12Experimental10PlayerLoop13PreLateUpdate9InitProxyEv
Owi:__Z78RuntimeInvoker_RuntimeObject_ObjectU26_t2146539884_RuntimeObject_RuntimeObjectPFvvEPK10MethodInfoPvPS4_
ahd:__ZN21UnityAnalyticsManager15ThreadedCleanupEv
LOa:__ZL13BlitImageImplR14ImageReferenceiiRKS_NS_10ColorSpaceENS_8BlitModeEb
xzc:__ZN15DirectorManager17AcquireOutputNodeEv
TWa:__Z14resize_trimmedINSt3__26vectorI13dynamic_arrayI8Vector2fLj0EENS0_9allocatorIS4_EEEEEvRT_j
gGi:_Array_InternalArray__set_Item_TisColor32_t2600501292_m1891325855_gshared
hEb:__ZN10MonoScript23VirtualRedirectTransferER17RemapPPtrTransfer
xLi:_GameObject_GetComponentInChildren_TisRuntimeObject_m1310240902_gshared
Zcg:__ZN30GenericInterfaceActionInvoker2IP12Il2CppObjectP21EventArgs_t3591816995E6InvokeEPK10MethodInfoS1_S1_S3_
Ane:__ZL69PersistentCall_t3407714124_CustomAttributesCacheGenerator_m_ArgumentsP21CustomAttributesCache
IFa:__Z32TransferEnumWithNameForceIntSizeI14SafeBinaryReadN21BuiltinShaderSettings17BuiltinShaderModeEEvRT_RT0_PKc17TransferMetaFlags
tig:_TlsServerCertificateRequest_ProcessAsSsl3_m1084200341
gM:__ZN12AudioManager29ShutdownReinitializeAndReloadEv
bHa:__ZN16ReflectionProbes28GetMinBakedCubemapResolutionEv
Rog:_PermissionSet__ctor_m2328457660
fff:_Enumerator__ctor_m1849900510_gshared
Cak:__GLOBAL__sub_I_String_cpp
Bzj:__ZN15dense_hashtableINSt3__24pairIK10KeyWrapperIPK22Il2CppGenericParameterEP11Il2CppClassEES6_N6il2cpp5utils11PointerHashIS4_EEN14dense_hash_mapIS6_S9_SE_NS6_14EqualsComparerINS0_8equal_toIS5_EEEENS0_9allocatorISA_EEE9SelectKeyESJ_SL_E6insertERKSA_
FPf:_InputField_GenerateCaret_m1459647218
qse:__ZL101SpriteAtlasManager_t3158462485_CustomAttributesCacheGenerator_SpriteAtlasManager_Register_m2413332465P21CustomAttributesCache
N6i:_X509CertificateEnumerator__ctor_m85694331
XNb:__ZN14DataBufferGLES16RecreateWithDataEjPKv
ysa:__Z29GetGlobalAllowNameConversionsv
ykh:_Array_InternalArray__Insert_TisTableRange_t3332867892_m558285859_gshared
L9b:__ZN8Material8SetColorEN9ShaderLab16FastPropertyNameERK10ColorRGBAf
Uye:__ZL77ExecuteEvents_t3484638744_CustomAttributesCacheGenerator_U3CU3Ef__mgU24cacheFP21CustomAttributesCache
eFh:_Enumerator_System_Collections_IEnumerator_Reset_m3754523291_gshared
Bld:__ZN11UnityEngine7Connect20RemoteConfigSettings19ConfigUpdatedStaticEPS1_bbi
bae:__ZL77Convert_t2465617642_CustomAttributesCacheGenerator_Convert_ToByte_m2375887898P21CustomAttributesCache
lQ:__ZN11AudioSource23VirtualRedirectTransferER18StreamedBinaryReadILb0EE
nFf:_RangeInt_get_end_m4128831787
O7h:_InvokableCall_1_Find_m1741895083_gshared
xxb:__ZN10RectOffset8TransferI19StreamedBinaryWriteILb0EEEEvRT_
Qti:__Z79RuntimeInvoker_Void_t1185182177_RuntimeObject_RuntimeObject_RectU26_t1284589061PFvvEPK10MethodInfoPvPS4_
lnd:__Z25GetUnityConnectModuleSpecv
zRi:_List_1_set_Item_m2082115010_gshared
Wvg:_Encoding_GetBytes_m3735967069
BBg:_Array_Initialize_m3004991267
nRb:__ZN14GfxContextGLES43AddRenderSurfaceToDeferredFBOInvalidateListEPK17RenderSurfaceGLES
rZj:__ZN6il2cpp6icalls8mscorlib6System9Threading6Thread15Thread_internalEP12Il2CppThreadP14Il2CppDelegate
yua:__ZN11NamedObject23VirtualRedirectTransferER14SafeBinaryRead
WZf:_Text_get_resizeTextMinSize_m1002355407
XZc:__ZNSt3__26vectorIN20TextRenderingPrivate8FontImpl13CharacterInfoE13stl_allocatorIS3_L18MemLabelIdentifier1ELi16EEE6insertENS_11__wrap_iterIPKS3_EERS9_
v5a:__ZN23PreloadManagerOperation6IsDoneEv
nBg:_Array_CreateInstance_m1027597705
uLj:__ZN6il2cpp2vm7Runtime15InvokeWithThrowEPK10MethodInfoPvPS5_
gOj:__ZNK15dense_hashtableINSt3__24pairIK10KeyWrapperINS1_IPK10MethodInfoP11Il2CppClassEEEjEES9_17ReflectionMapHashIS8_EN14dense_hash_mapIS9_jSD_NS9_14EqualsComparerINS0_8equal_toIS8_EEEENS0_9allocatorISB_EEE9SelectKeyESI_SK_E8min_sizeEjj
VVf:_Selectable_get_navigation_m3508916916
bak:__ZN6il2cpp5utils11StringUtils11Utf16ToUtf8ERKNSt3__212basic_stringIDsNS2_11char_traitsIDsEENS2_9allocatorIDsEEEE
$bg:_MD4Managed_Decode_m4273685594
Uli:__Z50RuntimeInvoker_Int64_t3736567304_Int16_t2552820387PFvvEPK10MethodInfoPvPS4_
Tyj:_UnityEngineModuleAssembly__ctor_m242195730
B7a:__ZN21LightProbeProxyVolume18HasHardwareSupportEv
$1b:__ZN26LightProbeProxyVolumeCacheC2ER13BatchRendererR15RenderLoopStats
BTg:_IntPtr__ctor_m620280096
vja:__ZN6prcoreL31inner_stretch_argb8888_bilinearEPKNS_9InnerInfoE
Yyb:__Z18Transfer_BlittableI18StreamedBinaryReadILb1EELb1E8BitFieldEvRK29SerializationCommandArgumentsR31RuntimeSerializationCommandInfo
n5c:_UNITY_FT_Outline_Decompose
BSg:_Int64_System_IConvertible_ToChar_m1509243576_AdjustorThunk
tSb:__ZNK12GraphicsCaps24GetFallbackSampledFormatE14GraphicsFormat
Z5i:_GeneralNames_get_IPAddresses_m4242915644
w1g:_Decimal_op_Implicit_m3873897383
jDh:_Enumerator_Dispose_m3500272053_AdjustorThunk
Wek:_GC_init_size_map
Nte:__ZL84AudioSampleProvider_t3950279772_CustomAttributesCacheGenerator_sampleFramesAvailableP21CustomAttributesCache
Cza:__Z20scripting_object_new17ScriptingClassPtr
VYd:__ZL69RuntimeArray_CustomAttributesCacheGenerator_Array_Reverse_m3714848183P21CustomAttributesCache
wra:__ZN9Scripting5Unity11Collections39NativeMatchesParallelForLengthAttribute12CleanupProxyEv
irh:_KeyGeneratedEventHandler_Invoke_m2527485594
JGd:_Image_get_layoutPriority_m1290204116
iNj:__ZN24dense_hashtable_iteratorINSt3__24pairIK10KeyWrapperINS1_IPK9FieldInfoP11Il2CppClassEEEjEES9_17ReflectionMapHashIS8_EN14dense_hash_mapIS9_jSD_NS9_14EqualsComparerINS0_8equal_toIS8_EEEENS0_9allocatorISB_EEE9SelectKeyESI_SK_E30advance_past_empty_and_deletedEv
cej:_Repetition_get_Expression_m2673886232
t7g:_Decimal__ctor_m1925875020_AdjustorThunk
Ylf:_SerializationCallbacks__ctor_m3863304525
QEa:__ZN18ShadowMapJobHeaderD0Ev
c6d:__ZL59SerializationInfo_t950877179_CustomAttributesCacheGeneratorP21CustomAttributesCache
P:Math_exp
Htf:_Vector3_Min_m1803158933
Ao:FUNCTION_TABLE_iiifi
H5j:__ZN6il2cpp2os5posix13PosixAutoLockD2Ev
f5i:_TlsServerSettings_set_CertificateTypes_m2047242411
Bij:_SymmetricTransform_OFB_m3690147804
S4e:_InternalEnumerator_1_MoveNext_m3713722659_AdjustorThunk
A_c:_cff_get_advances
eFb:__ZN13MonoBehaviour9SetScriptERK4PPtrI10MonoScriptE18ScriptingObjectPtr
oWj:_RaycastHit2D_get_collider_m1549426026
osb:__Z18Transfer_BlittableI17RemapPPtrTransferLb0E8Vector2fEvRK29SerializationCommandArgumentsR31RuntimeSerializationCommandInfo
G0j:__ZNSt3__218uninitialized_copyIPNS_4pairIK10KeyWrapperIP14Il2CppIUnknownEjEES8_EET0_T_SA_S9_
tBi:__Z77RuntimeInvoker_Void_t1185182177_Vector2U5BU5DU26_t476646542_Int32_t2950945753PFvvEPK10MethodInfoPvPS4_
qxg:_PKCS12_get_RNG_m2649456600
Xcb:__ZNK10FileSystem16LastErrorMessageEv
pFi:_Array_InternalArray__Insert_TisVector3_t3722313464_m3862657277_gshared
ghe:__ZL104NativeClassAttribute_t2601352714_CustomAttributesCacheGenerator_U3CQualifiedNativeNameU3Ek__BackingFieldP21CustomAttributesCache
nXa:__ZN15SerializeTraitsI13dynamic_arrayI12SpriteVertexLj0EEE19ResizeSTLStyleArrayERS2_i
rpg:_SecurityException__ctor_m1631242336
CBj:__ZN15dense_hashtableINSt3__24pairIK10KeyWrapperIPK11Il2CppClassEPKcEES6_N6il2cpp5utils11PointerHashIS3_EEN14dense_hash_mapIS6_S9_SE_NS6_14EqualsComparerINS0_8equal_toIS5_EEEENS0_9allocatorISA_EEE9SelectKeyESJ_SL_E14squash_deletedEv
otd:_EventSystem_Update_m1662072334
Cga:__ZN13sorted_vectorIN4core12basic_stringIcNS0_20StringStorageDefaultIcEEEENSt3__24lessIS4_EE13stl_allocatorIS4_L18MemLabelIdentifier81ELi16EEE21sort_clear_duplicatesEv
Tpd:__ZN22UnityWebRequestManager10InitializeEv
j5a:__ZNSt3__26__treeINS_12__value_typeIN4core12basic_stringIcNS2_20StringStorageDefaultIcEEEE4PPtrI6ObjectEEENS_19__map_value_compareIS6_SA_NS_4lessIS6_EELb1EEE13stl_allocatorISA_L18MemLabelIdentifier52ELi16EEE15__emplace_multiIJRNS_4pairIS6_S9_EEEEENS_15__tree_iteratorISA_PNS_11__tree_nodeISA_PvEEiEEDpOT_
sZc:_raccess_guess_darwin_newvfs
_sb:__ZL26Transfer_SimpleNativeClassI17RemapPPtrTransfer8GradientLb1EEvRK29SerializationCommandArgumentsR31RuntimeSerializationCommandInfo
Ssd:_RaycasterManager_RemoveRaycasters_m3057093063
ykc:__ZN12CachedWriter9InitWriteER15CacheWriterBase
mzc:__Z21UnsignedInt64ToStringy
tUf:_GetRaycastNonAllocCallback_BeginInvoke_m3984885848
o$e:_InternalEnumerator_1_MoveNext_m4138204635_AdjustorThunk
oaj:_PatternCompiler_BeginLink_m1295557963
SEe:__ZL70CanvasScaler_t2767979955_CustomAttributesCacheGenerator_m_PhysicalUnitP21CustomAttributesCache
YAb:__ZN18StreamedBinaryReadILb1EE8TransferI13dynamic_arrayIiLj0EEEEvRT_PKc17TransferMetaFlags
GPg:_GuidParser_ThrowFormatException_m3223388534
Cdj:_Group_GetAnchorInfo_m3730312864
OBe:__ZL50Graphic_t1660335611_CustomAttributesCacheGeneratorP21CustomAttributesCache
Ubf:_KeyCollection_System_Collections_Generic_ICollectionU3CTKeyU3E_Add_m454648927_gshared
iOh:_TimeSpan_op_LessThanOrEqual_m300470010
nte:__ZL139AnimatorOverrideController_t3582062219_CustomAttributesCacheGenerator_AnimatorOverrideController_OnInvalidateOverrideController_m3380737075P21CustomAttributesCache
GSd:_ContextAttribute_Freeze_m3288175579
Aqc:__Z66Register_UnityEngine_Transform_INTERNAL_CALL_InverseTransformPointv
mDj:__ZNSt3__218uninitialized_fillIPNS_4pairIK10KeyWrapperIPK19Il2CppGenericMethodEPK26Il2CppGenericMethodIndicesEESB_EEvT_SD_RKT0_
Vda:__ZZN15DirectorManager15InitializeClassEvEN41FixedUpdateDirectorFixedUpdateRegistrator7ForwardEv
wXg:_MemoryStream_get_Position_m3733941202
Obi:_ListPool_1_Clear_m2587502754_gshared
smj:_AudioClipPlayable_Equals_m3705880618
_cc:__ZL10KeyHandleriPK23EmscriptenKeyboardEventPv
lZg:_Slot_t3975888750_marshal_pinvoke
Gzk:_glLinkProgram__wrapper
pbb:__ZN18ScriptingArguments8AddInt64Ex
Gia:__ZN6prcoreL12RemapGenericI17TexFormatARGB888815TexFormatBGR888EEvPKNS_9InnerInfoE
cnb:__ZN26SinglePassStereoSupportExt19SaveStereoConstantsEv
vfa:__ZNSt3__26vectorIP10MemoryPool13stl_allocatorIS2_L18MemLabelIdentifier76ELi16EEE21__push_back_slow_pathIRKS2_EEvOT_
nPg:_TextInfo_get_ListSeparator_m1628160079
Lye:__ZL77ExecuteEvents_t3484638744_CustomAttributesCacheGenerator_U3CU3Ef__mgU24cache6P21CustomAttributesCache
pYf:_Selectable_OnCanvasGroupChanged_m472903475
bLh:_EventWaitHandle_Reset_m3348053200
jnd:__ZN28UnityConnectScriptingClasses23CallSessionStateChangedEixxbP21ScriptingExceptionPtr
Jfg:_ClientContext_get_SslStream_m1583577309
_$j:__ZN6il2cpp6icalls8mscorlib6System13Globalization11CultureInfo35construct_internal_locale_from_nameEP17Il2CppCultureInfoP12Il2CppString
gvb:__ZL22Transfer_ManagedObjectI24GenerateTypeTreeTransferLb1EEvRK29SerializationCommandArgumentsR31RuntimeSerializationCommandInfo
Ddi:__Z100RuntimeInvoker_Boolean_t97287965_RuntimeObject_Int32_t2950945753_RuntimeObject_UInt16U26_t2814738322PFvvEPK10MethodInfoPvPS4_
OBi:__Z56RuntimeInvoker_ILTokenInfo_t2325775114_Int32_t2950945753PFvvEPK10MethodInfoPvPS4_
zqf:_HMAC_get_BlockSizeValue_m455678067
mYb:__ZN15RenderNodeQueueC2E10MemLabelId
PNd:_ResourceEnumerator_FillCache_m1661715061
I$h:_ReadOnlyCollection_1_System_Collections_IList_IndexOf_m3664838805_gshared
Bad:__ZL17CleanupModule_TLSv
d8d:__ZL72SecuritySafeCriticalAttribute_t3505979402_CustomAttributesCacheGeneratorP21CustomAttributesCache
Zj:_emscripten_set_main_loop_timing
vtf:_Bounds_get_min_m3755135869
H3g:_Convert_ToUInt16_m3523269149
htf:_Bounds_get_center_m1418449258
lPb:__ZN14DataBufferGLES12RecordRenderEv
nud:_ExecuteEvents_get_endDragHandler_m2879610446
p9b:__ZN14ImageReference10FlipImageYEv
Ryj:_UsedByNativeCodeAttribute__ctor_m2647015777
hya:__ZN21ScalableBufferManager20GetHeightScaleFactorEv
Zfc:__ZNSt3__26vectorIN9ShaderLab20SerializedSubProgram15VectorParameterENS_9allocatorIS3_EEE8__appendEj
kL:__ZN4FMOD3DSP9setBypassEb
Rcc:__Z19NormalizeWheelInputf
nEd:_Graphic_DoMeshGeneration_m3548487693
Qbc:__Z29StdTemplateConversionFunctionIsaEbPvR14SafeBinaryRead
JH:__ZN11KeyframeTplIfE8TransferI14SafeBinaryReadEEvRT_
IA:__ZNK4PPtrI13MonoBehaviourEcvPS0_Ev
Bbj:_Repetition__ctor_m1672362629
rSc:__Z29Transfer_Blittable_ArrayFieldI8JSONReadhEvRT_R9ArrayInfoRK23StaticTransferFieldInfo
vqg:_SecurityFrame_ToString_m339310712_AdjustorThunk
OHd:_TypeBuilder_create_runtime_class_m2581270900
Ujc:__ZN11MonoManager25GetImageFromAssemblyIndexEi
sZe:_InternalEnumerator_1_get_Current_m3008260692_gshared
sjk:__ZN6il2cpp2os20ThreadLocalValueImpl8SetValueEPv
jAa:__ZN22RenderingCommandBuffer20CleanupCommandBufferEv
y1g:_Decimal_op_Implicit_m2299919277
fNc:__Z18Transfer_BlittableI9JSONWriteLb1EtEvRK29SerializationCommandArgumentsR31RuntimeSerializationCommandInfo
YIe:_UnexceptionalStreamReader_ReadToEnd_m920589220
n5g:_DateTime_System_IConvertible_ToType_m1242864300
Gsg:_String_IndexOf_m1298810678
sk:___syscall85
oed:__ZN2UI14CanvasRenderer18UpdateTRSHierarchyEb
OLi:_Mesh_GetAllocArrayFromChannel_TisVector3_t3722313464_m2332439905_gshared
rYb:__ZNSt3__26__sortIRPFbP10GUIElementS2_EPS2_EEvT0_S7_T_
Ctc:__ZN16GraphicsSettings12CleanupClassEv
zRe:_ConstructorBuilder_GetILGenerator_m1750792206
Vtg:_EncoderFallback_get_ReplacementFallback_m818398284
N7j:__ZN6il2cpp2os6Thread19DetachCurrentThreadEv
Jtd:_EventTrigger_OnBeginDrag_m4203438710
Xzj:__ZN6il2cpp2vmL21SetupInterfacesLockedEP11Il2CppClassRKNS_2os12FastAutoLockE
Inb:__ZN11MonoManager23VirtualRedirectTransferER24GenerateTypeTreeTransfer
cJi:_Dictionary_2_Do_CopyTo_TisRuntimeObject_TisRuntimeObject_m2344529027_gshared
KB:__ZN23AnimationPlayableOutput17SetSourcePlayableEP8Playable
$6j:__ZN6il2cpp2gc16GarbageCollector22MakeDescriptorForArrayEv
NCi:__Z37RuntimeInvoker_UILineInfo_t4195266810PFvvEPK10MethodInfoPvPS4_
svf:_CullingGroup_Dispose_m782801025
muh:_Dictionary_2_System_Collections_IDictionary_GetEnumerator_m529247385_gshared
Yqa:__ZN9Scripting11UnityEngine9Component12CleanupProxyEv
zY:__ZN11UnityEngine15CloudWebService14DataDispatcher15SetupWebRequestEv
Vyh:_EqualityComparer_1_get_Default_m1038871402_gshared
ukd:__ZN11UnityEngine15PlatformWrapper13GetShaderCapsEv
A4b:__ZNSt3__211__sift_downIR26RenderDeferredObjectSorterP16RenderObjectDataEEvT0_S5_T_NS_15iterator_traitsIS5_E15difference_typeES5_
LTe:_GenericTypeParameterBuilder_IsDefined_m98179866
fqh:_KeyPairPersistence_get_MachinePath_m3812267291
G_g:_Stack_Peek_m2216191248
a5g:_DateTime_System_IConvertible_ToDecimal_m1044850612_AdjustorThunk
fuc:__ZN21FixedBehaviourManager6UpdateEv
Ypc:__ZN9Transform9SetParentEPS_NS_15SetParentOptionE
kCa:__ZN19ShaderPropertySheet8SetFloatEN9ShaderLab16FastPropertyNameEfNS_8SetFlagsE
Z5a:__ZN19RuntimeSceneManager24BeginIntegrateMainThreadEP10UnityScene
lig:_TlsServerCertificate_ProcessAsSsl3_m1306583193
L8j:__ZNSt3__2plIcNS_11char_traitsIcEENS_9allocatorIcEEEENS_12basic_stringIT_T0_T1_EERKS9_S6_
WHe:_StringReader_CheckObjectDisposedException_m3796163530
eRh:_UInt32_System_IConvertible_ToInt16_m1659441601
igc:__ZN9ShaderLab20SerializedSubProgramaSERKS0_
rqk:_roundf
kEg:_Byte_System_IConvertible_ToSingle_m324484566_AdjustorThunk
w$g:_Decimal_op_Explicit_m2848387298
MBh:_KeyValuePair_2_ToString_m1238786018_gshared
ev:__ZN8Animator15SetPrepareStageEv
dJ:__ZN8AnimatorC2E10MemLabelId18ObjectCreationMode
Yzj:__ZN6il2cpp2vmL24SetupTypeHierarchyLockedEP11Il2CppClassRKNS_2os12FastAutoLockE
asg:_String_Clone_m3573869765
$cc:__ZL11TextHandleriPK23EmscriptenKeyboardEventPv
aWd:_SoapFieldAttribute_get_XmlElementName_m2203304026
fVb:__ZNSt3__26vectorIP17FileSystemHandlerNS_9allocatorIS2_EEE21__push_back_slow_pathIRKS2_EEvOT_
jZc:_destroy_face
Uvk:_glBlendEquationSeparate__wrapper
gld:__ZNSt3__26vectorIPN11UnityEngine15CloudWebService14CloudEventInfoE13stl_allocatorIS4_L18MemLabelIdentifier88ELi16EEE21__push_back_slow_pathIS4_EEvOT_
PUc:__ZN5physx19PxAllocatorCallbackD2Ev
tgk:__ZN6il2cpp6icalls8mscorlib6System8Security12Cryptography24RNGCryptoServiceProvider13RngInitializeEP11Il2CppArray
Ffe:__ZL68UsedByNativeCodeAttribute_t1703770351_CustomAttributesCacheGeneratorP21CustomAttributesCache
uQ:__ZN20SoundChannelInstance7setMuteEb
Ldi:__Z81RuntimeInvoker_Void_t1185182177_RuntimeObject_Int32_t2950945753_Int32_t2950945753PFvvEPK10MethodInfoPvPS4_
$Ga:__ZN4PPtrI5LightE8TransferI19StreamedBinaryWriteILb0EEEEvRT_
p5g:_DateTimeUtils_ToString_m1782212840
SNi:_List_1__cctor_m972674764_gshared
gOe:_NumberFormatter_NumberToString_m3906556024
Zzb:__Z19TransferField_ArrayI18StreamedBinaryReadILb1EE27Converter_SimpleNativeClassI17AnimationCurveTplIfEEEvRK23StaticTransferFieldInfoR31RuntimeSerializationCommandInfoRT0_
DPb:__ZN18GfxFramebufferGLES22MakeCurrentFramebufferENS_7BuiltinE
Hbk:__ZN6il2cpp2vm12MarshalAlloc4FreeEPv
ZFa:__ZN12CachedReader4ReadEPvj
kNd:_TypeFilter_EndInvoke_m998903841
Wwd:_StandaloneInputModule_ProcessMouseEvent_m2923582521
uuh:_KeyValuePair_2__ctor_m1794021352_gshared
yLd:_MonoMethod_ShouldPrintFullName_m1607666412
X0b:__Z24CalculateLightShadowFadeRK6CamerafffR8Vector4f
e6:__ZN19RuntimeSceneManagerD2Ev
uCf:_PlayerConnectionInternal__ctor_m2406218802
ELg:_CCGregorianCalendar_GetMonth_m1547203696
vDh:_Enumerator_Dispose_m786980821_AdjustorThunk
PZ:__ZN11UnityEngine15CloudWebService25WebRequestDownloadHandler17OnCompleteContentEv
sPa:__ZN6prcore17GetIntegerBlitterE13TextureFormatS0_N14ImageReference8BlitModeE
vek:_GC_print_block_descr
KXi:_Collection_1_IndexOf_m934463944_gshared
ama:__ZL51__ManagedRegistrationHelperFunction_ResourceRequestPv
r0d:__ZL51Directory_t828876208_CustomAttributesCacheGeneratorP21CustomAttributesCache
dCg:_SimpleEnumerator_Reset_m2182001888
Iyi:__Z86RuntimeInvoker_Int32_t2950945753_Vector2_t2156229523_Vector2_t2156229523_RuntimeObjectPFvvEPK10MethodInfoPvPS4_
wDc:__ZN9BlobWrite14ReduceCopyImplERK14ReduceCopyDataj
dih:_Array_LastIndexOf_TisRuntimeObject_m1677937501_gshared
oU:__ZN11AudioSource18IsPlayingScriptingEv
Zph:_KeyBuilder_IV_m2230195376
Juk:_glShaderSource__wrapper
Leb:__ZN25MultiBlocksMemoryFileData17AdjustBlocksCountEj
bZj:__ZNSt3__214__split_bufferIN6il2cpp2vm22EmbeddedResourceRecordERNS_9allocatorIS3_EEED2Ev
qXc:__ZN13TextRendering4Font8TransferI24GenerateTypeTreeTransferEEvRT_
pjb:__ZN9GfxDevice15EndProfileEventEPN9profiling6MarkerE
Bmc:__Z27CullingGroup_CUSTOM_DisposeP12Il2CppObject
n7e:_Comparer_1__ctor_m319670016_gshared
Am:_glStencilMask
l8j:__ZN6il2cpp2os10ThreadImpl16GetCurrentThreadEv
g0f:_TypeConverterAttribute_GetHashCode_m948291090
Tcc:__ZN15GUIEventManager10QueueEventERK10InputEvent
YYi:_Collection_1_Clear_m1300437781_gshared
QHj:_AnalyticsEvent_OnValidationFailed_m2609604624
Pue:__ZL62EventType_t3528516131_CustomAttributesCacheGenerator_mouseMoveP21CustomAttributesCache
yOd:_DecimalConstantAttribute__ctor_m3583301917
C$i:_Collection_1_System_Collections_ICollection_get_IsSynchronized_m1640823718_gshared
Xdk:_GC_push_conditional_with_exclusions
NUd:_MethodCallDictionary__ctor_m2167303393
z6c:_Compute_Point_Displacement
nae:__ZL80Convert_t2465617642_CustomAttributesCacheGenerator_Convert_ToDecimal_m2858622624P21CustomAttributesCache
Bdk:_GC_make_disappearing_links_disappear
wnk:_strrchr
cvf:_Component_GetComponentInParent_m779177818
jRd:__ZN21InterfaceFuncInvoker1IP8String_tS1_E6InvokeEjP11Il2CppClassP12Il2CppObjectS1_
osh:_Dictionary_2_System_Collections_ICollection_get_SyncRoot_m2069913662_gshared
wxd:_UIBehaviour_IsDestroyed_m3033055982
Eoi:__Z109RuntimeInvoker_Void_t1185182177_RuntimeObject_RuntimeObject_SByte_t1669577662_Int32_t2950945753_RuntimeObjectPFvvEPK10MethodInfoPvPS4_
LKf:_Enumerator_Reset_m39541243
eOf:_InputField_get_readOnly_m3111985574
oHa:__ZN14RenderSettings27UpdateIndirectSpecularColorEv
Zle:__ZL59RectOffset_t1369453676_CustomAttributesCacheGenerator_m_PtrP21CustomAttributesCache
Gzf:_Logger_get_logHandler_m1335645353
D2a:__ZN14PlayerSettings8TransferI18StreamedBinaryReadILb0EEEEvRT_
mKj:__ZN6il2cpp6icalls8mscorlib6System8MonoType16GetMethodsByNameEP20Il2CppReflectionTypeP12Il2CppStringibS5_
t5d:__ZL73ObjRef_t2141158884_CustomAttributesCacheGenerator_U3CU3Ef__switchU24map26P21CustomAttributesCache
Jze:__ZL102PointerEventData_t3807901092_CustomAttributesCacheGenerator_PointerEventData_set_pointerId_m1888344330P21CustomAttributesCache
bue:__ZL88AudioClip_t3680889665_CustomAttributesCacheGenerator_AudioClip_get_ambisonic_m3815052287P21CustomAttributesCache
ARf:_U3CDelayedSetDirtyU3Ec__Iterator0__ctor_m3936335621
jVa:__ZN4PPtrI10GameObjectE8TransferI14SafeBinaryReadEEvRT_
roe:__ZL106PlayableAsset_t3219022681_CustomAttributesCacheGenerator_PlayableAsset_Internal_CreatePlayable_m2550417712P21CustomAttributesCache
Oae:__ZL78Convert_t2465617642_CustomAttributesCacheGenerator_Convert_ToSByte_m2486156346P21CustomAttributesCache
v2i:_RijndaelTransform__cctor_m2439033240
KJb:__ZNSt3__27__sort3IRNS_4lessIN22BuiltinResourceManager8ResourceEEEPS3_EEjT0_S7_S7_T_
gs:__ZN13dynamic_arrayIPN11UnityEngine9Animation23CachedComponentBindingsELj0EE18resize_initializedEjRKS3_12ResizePolicy
wZd:__ZL175U3CGetEnumeratorU3Ec__Iterator0_t1202911786_CustomAttributesCacheGenerator_U3CGetEnumeratorU3Ec__Iterator0_System_Collections_Generic_IEnumeratorU3CTU3E_get_Current_m322251035P21CustomAttributesCache
V7c:_ps_hints_t2mask
I3h:_Comparison_1__ctor_m3138326461_gshared
Ddh:_Array_InternalArray__ICollection_Remove_TisMonoResource_t4103430009_m238733686_gshared
kZf:_Slider_Set_m1476104429
rNd:__ZN28GenericInterfaceFuncInvoker1IP10Assembly_tP28ResolveEventArgs_t1779456501E6InvokeEPK10MethodInfoP12Il2CppObjectS3_
$Fd:_Image_set_fillClockwise_m2210525152
s0a:__ZN10BlendShape8TransferI19StreamedBinaryWriteILb0EEEEvRT_
imb:__ZNSt3__26vectorIN20GpuProgramParameters14ConstantBufferENS_9allocatorIS2_EEE21__push_back_slow_pathIRKS2_EEvOT_
yS:__Z32TransferEnumWithNameForceIntSizeI14SafeBinaryReadN10SampleClip8LoadTypeEEvRT_RT0_PKc17TransferMetaFlags
PCf:_PlayerConnection_DisconnectedCallback_m1697017309
s1a:__Z19GetTimeSinceStartupv
zGd:_Image_AddQuad_m2161647989
Esd:_BaseInputModule_DeactivateModule_m856719157
b8j:__ZN6il2cpp2os10ThreadImpl11SetPriorityENS0_14ThreadPriorityE
UEh:_Enumerator_System_Collections_IEnumerator_Reset_m2953002685_gshared
Cfi:__Z50RuntimeInvoker_Int64_t3736567304_Int32_t2950945753PFvvEPK10MethodInfoPvPS4_
p7c:_TT_Load_Composite_Glyph
sjb:__ZN9GfxDevice16DeleteTimerQueryEP13GfxTimerQuery
XUi:_List_1_Insert_m1695211546_gshared
vs:__ZL51__ManagedRegistrationHelperFunction_ScaleConstraintPv
Tti:__Z49RuntimeInvoker_Void_t1185182177_Color_t2555686324PFvvEPK10MethodInfoPvPS4_
DLa:__ZN9ShaderLab11shaderprops9GetTexEnvEPK19ShaderPropertySheetS3_NS_16FastPropertyNameE16TextureDimensionb
zPi:_List_1_Sort_m3232912161_gshared
h$b:__ZN29RenderNodeQueuePrepareContextC2Ev
nVj:_il2cpp_gc_disable
k8f:_IntStack_t2189327687_marshal_pinvoke_back
rhc:__ZN9ShaderLab20SerializedSubProgram16TextureParameter8TransferI24GenerateTypeTreeTransferEEvRT_
Cra:__ZN9Scripting5Unity11Collections8LowLevel6Unsafe29NativeSetThreadIndexAttribute12CleanupProxyEv
ydf:__ZN21InterfaceFuncInvoker1I27DictionaryEntry_t3123975638bE6InvokeEjP11Il2CppClassP12Il2CppObjectb
Tgk:__ZN6il2cpp2os11MutexHandle4WaitEb
phb:__ZN9GfxDevice19SaveStereoConstantsEv
Sgk:__ZN6il2cpp2os11MutexHandle4WaitEj
Mmc:__ZL34GetComponentsImplementationRecurseILb1ELi1ELi1EEbR10GameObjectbRK17CompareParametersRK39GetComponentsImplementation_ReturnValue
Mgi:__Z114RuntimeInvoker_Boolean_t97287965_RuntimeObject_RuntimeObject_Int32_t2950945753_Int32_t2950945753_Int32_t2950945753PFvvEPK10MethodInfoPvPS4_
VQe:_AssemblyBuilder_GetTypes_m3415680380
Uha:__ZN6prcoreL17RemapGenericFloatI15TexFormatRGHalf18TexFormatARGBFloatEEvPKNS_9InnerInfoE
qjj:_AnalyticsEventParam_get_groupID_m569309506
q9g:_StackFrame_GetMethod_m1395840764
HJa:__ZNK13RenderTexture13GetDataHeightEv
FHb:__Z18SimulateMouseInputi
dXb:__ZN13RenderManager23AddRemoveCamerasDelayedEv
oK:__ZN23PreloadManagerOperation11GetPriorityEv
SQf:_LayoutElement_OnEnable_m1760066426
ehd:__ZN11UnityEngine9Analytics15AnalyticsConfigC2Ev
JLc:__ZN5Unity9rapidjson6WriterI16TempBufferWriterNS0_4UTF8IcEES4_13JSONAllocatorE11WriteUint64Ey
NCg:_BitConverter__cctor_m3841343255
d$g:_Decimal_Compare_m3062820418
a9f:_IntervalCollection_GetMetaCollection_m4029522214
Etd:_EventTrigger_OnDeselect_m1919608102
wuj:_TextGenerator_get_characterCount_m864136654
kNh:_TimeSpan__ctor_m2047388489_AdjustorThunk
X7b:__ZN13RenderTexture8SetWidthEi
psc:__ZNK28RectTransformPropertyBinding12SetPPtrValueERKN11UnityEngine9Animation10BoundCurveEi
J6d:__ZL56HMACRIPEMD160_t3724196729_CustomAttributesCacheGeneratorP21CustomAttributesCache
eBb:__Z18Transfer_BlittableI18StreamedBinaryReadILb0EELb0EfEvRK29SerializationCommandArgumentsR31RuntimeSerializationCommandInfo
u_a:__ZN10MeshFilterD0Ev
Cba:__ZN22BuiltinResourceManager16StaticInitializeEPv
NYe:_InternalEnumerator_1__ctor_m1341209356_AdjustorThunk
b_i:_Collection_1_System_Collections_ICollection_CopyTo_m1516601228_gshared
mca:__ZN23DefaultMeshVertexFormatC2E18VertexChannelsInfo
b$i:_Collection_1_CopyTo_m4278237485_gshared
AQg:_Int16_System_IConvertible_ToDouble_m1661805412
a1i:_Collection_1_Add_m3860636938_gshared
Aoj:__ZL23UnresolvedVirtualCall_5P12Il2CppObjectsPK10MethodInfo
oG:__ZN4PPtrI6AvatarE8TransferI19StreamedBinaryWriteILb0EEEEvRT_
TGh:_List_1_Insert_m4050947056_gshared
U3:__ZN9ShaderLab16FastPropertyName4InitEPKc
x0e:_InternalEnumerator_1__ctor_m39232262_AdjustorThunk
zri:__Z48RuntimeInvoker_OperatingSystemFamily_t1868066375PFvvEPK10MethodInfoPvPS4_
j9d:__ZL61Thread_t2300836069_CustomAttributesCacheGenerator_local_slotsP21CustomAttributesCache
LKa:__ZN6ObjectC2E10MemLabelId18ObjectCreationMode
$Vh:_Collection_1_System_Collections_IEnumerable_GetEnumerator_m3596816767_gshared
h1e:_InternalEnumerator_1_get_Current_m3911557813_AdjustorThunk
Zjd:__ZN11UnityEngine15PlatformWrapper19GetPhysicalMemoryMBEv
Vx:__ZN17AnimationPlayable17GetAnimationClipsER13dynamic_arrayIP13AnimationClipLj0EE
REg:_Char_System_IConvertible_ToByte_m2347554595_AdjustorThunk
pPj:__ZNK15dense_hashtableINSt3__24pairIK10KeyWrapperINS1_IPK12PropertyInfoP11Il2CppClassEEEjEES9_17ReflectionMapHashIS8_EN14dense_hash_mapIS9_jSD_NS9_14EqualsComparerINS0_8equal_toIS8_EEEENS0_9allocatorISB_EEE9SelectKeyESI_SK_E12test_deletedERK30dense_hashtable_const_iteratorISB_S9_SD_SM_SI_SK_E
Nle:__ZL59TooltipAttribute_t3957072629_CustomAttributesCacheGeneratorP21CustomAttributesCache
DXa:__ZN10VertexData8TransferI17RemapPPtrTransferEEvRT_
iJa:__ZN13RenderTexture9SetMipMapEb
TBj:__ZN15dense_hashtableINSt3__24pairIK10KeyWrapperIPK11Il2CppClassEPKcEES6_N6il2cpp5utils11PointerHashIS3_EEN14dense_hash_mapIS6_S9_SE_NS6_14EqualsComparerINS0_8equal_toIS5_EEEENS0_9allocatorISA_EEE9SelectKeyESJ_SL_E13set_empty_keyERKSA_
kUc:__ZN9Scripting11UnityEngine14ContactPoint2D9InitProxyEv
$tg:_String_CreateString_m860434552
uea:__Z18GetDirectorManagerv
Sib:__ZN9GfxDevice14InsertCPUFenceEv
a3d:__ZL107CriticalFinalizerObject_t701527852_CustomAttributesCacheGenerator_CriticalFinalizerObject__ctor_m3245424448P21CustomAttributesCache
iSg:_Int32_Equals_m2976157357_AdjustorThunk
Ppc:__Z38Transform_CUSTOM_INTERNAL_get_rotationP12Il2CppObjectP11Quaternionf
_Vd:_SoapAttribute_get_XmlNamespace_m859394681
oOj:__ZNK15dense_hashtableINSt3__24pairIK10KeyWrapperINS1_IPK10MethodInfoP11Il2CppClassEEEjEES9_17ReflectionMapHashIS8_EN14dense_hash_mapIS9_jSD_NS9_14EqualsComparerINS0_8equal_toIS8_EEEENS0_9allocatorISB_EEE9SelectKeyESI_SK_E5beginEv
T8i:_X509ExtensionCollection_System_Collections_IEnumerable_GetEnumerator_m1475785462
YNb:__ZN7ApiGLES19UploadBufferSubDataEjN2gl12BufferTargetEllPKv
Xwj:_SkeletonBone_t4134054672_marshal_pinvoke_cleanup
je:_glFramebufferTextureLayer
Oga:__ZNSt3__216__rotate_forwardINS_11__wrap_iterIPN4core12basic_stringIcNS2_20StringStorageDefaultIcEEEEEEEET_S9_S9_S9_
oLf:_Vector2_GetHashCode_m3916089713
kca:__ZdaPv
ryg:_SmallXmlParserException__ctor_m1976648878
cMe:_MulticastDelegate_Equals_m2502840627
dng:_SymmetricAlgorithm_set_KeySize_m3805756466
ZGe:__ZL70ValueProperty_t1868393739_CustomAttributesCacheGenerator_m_CustomValueP21CustomAttributesCache
oEg:_Byte_System_IConvertible_ToUInt32_m1049546902_AdjustorThunk
Ipi:__Z53RuntimeInvoker_Double_t594665363_Interval_t1802865632PFvvEPK10MethodInfoPvPS4_
UJb:__Z21InitializeBatchedJobsv
evj:_CanvasGroup_get_blocksRaycasts_m1805542303
Nlg:_SHA1Internal_ProcessBlock_m1991889327
_pb:__Z19TransferField_ArrayI14SafeBinaryRead27Converter_SimpleNativeClassI8GUIStyleEEvRK23StaticTransferFieldInfoR31RuntimeSerializationCommandInfoRT0_
VDb:__ZN9TextAsset23VirtualRedirectTransferER19StreamedBinaryWriteILb0EE
l0j:__ZN15dense_hashtableINSt3__24pairIK10KeyWrapperIP14Il2CppIUnknownEjEES5_N6il2cpp5utils11PointerHashIS3_EEN14dense_hash_mapIS5_jSB_NS5_14EqualsComparerINS0_8equal_toIS4_EEEENS0_9allocatorIS7_EEE9SelectKeyESG_SI_ED2Ev
FHi:_Array_Sort_TisRuntimeObject_TisRuntimeObject_m1685639929_gshared
Cgk:__ZN6il2cpp5utils10MemoryPoolC2Ev
JGa:__ZN14RenderSettings5ResetEv
mkc:__ZN6Sprite9BindAtlasERK4PPtrI11SpriteAtlasE
$Lc:__ZN5Unity9rapidjson12GenericValueINS0_4UTF8IcEE13JSONAllocatorE10FindMemberIS4_EENS0_21GenericMemberIteratorILb0ES3_S4_EERKNS1_IS3_T_EE
d1e:_InternalEnumerator_1_System_Collections_IEnumerator_get_Current_m3892960115_AdjustorThunk
Kjc:__ZN9ShaderLabL18AddPropertyToArrayERK19ShaderPropertySheetR13dynamic_arrayIiLj0EERKNS_8FloatValE
C_j:__ZNSt3__212basic_stringIDsNS_11char_traitsIDsEENS_9allocatorIDsEEE6appendEPKDsj
vij:_SymmetricTransform_Finalize_m4129642865
HGg:_ArrayList_Clone_m2682741233
Lqf:_HMAC_HashCore_m3684104066
mnd:__Z13RegisterClassI20UnityConnectSettingsEvPKc
Z3h:__ZN28GenericInterfaceFuncInvoker2Ii20UIVertex_t4057497605S0_E6InvokeEPK10MethodInfoP12Il2CppObjectS0_S0_
qLc:__ZN5Unity9rapidjson13GenericReaderINS0_4UTF8IcEES3_13JSONAllocatorE11ParseNumberILj1ENS0_25GenericInsituStringStreamIS3_EENS0_15GenericDocumentIS3_S4_S4_EEEEvRT0_RT1_
BYd:__ZL88RuntimeArray_CustomAttributesCacheGenerator_Array_CreateInstance_m1027597705____lengths1P21CustomAttributesCache
D0i:_Collection_1_RemoveItem_m2911050674_gshared
Bdi:__Z79RuntimeInvoker_UInt16_t2177724958_RuntimeObject_Int32_t2950945753_RuntimeObjectPFvvEPK10MethodInfoPvPS4_
X7j:__ZN6il2cpp2os10ThreadImplD2Ev
Ble:__ZL56ResetInputAxis_t866062302_CustomAttributesCacheGeneratorP21CustomAttributesCache
mPg:_TextInfo_System_Runtime_Serialization_IDeserializationCallback_OnDeserialization_m1492046432
oMc:__ZN8Gradient8TransferI9JSONWriteEEvRT_
S6a:__ZN21RendererUpdateManager18OncePerFrameUpdateER13RendererScene
Onj:_AudioSource_set_clip_m31653938
Iwe:__ZL81TextEditor_t2759855366_CustomAttributesCacheGenerator_TextEditor__ctor_m242049450P21CustomAttributesCache
i$g:_Convert_ToBoolean_m2833621053
Gua:__ZNK12TLSAllocatorI14StackAllocatorE22GetAllocatedMemorySizeEv
vee:__ZL62WebHeaderCollection_t1942268960_CustomAttributesCacheGeneratorP21CustomAttributesCache
Ssa:__ZN17RemapPPtrTransfer12PushMetaFlagE17TransferMetaFlags
kyh:_EqualityComparer_1_System_Collections_IEqualityComparer_GetHashCode_m2138064395_gshared
BR:__ZNK7WeakPtrI20SoundChannelInstanceE10SharedData9GetRawPtrEv
Hbb:__ZN12HandlerChain4NameEv
LAd:_FloatTween_t1274330004_marshal_pinvoke
ITc:__ZN11UnityEngine9Analytics18RenderingInfoEventD0Ev
NQg:_Int16_System_IConvertible_ToType_m3672347013_AdjustorThunk
Prb:__Z29Transfer_Blittable_ArrayFieldI14SafeBinaryReadN4math12int3_storageEEvRT_R9ArrayInfoRK23StaticTransferFieldInfo
URg:_Int32_System_IConvertible_ToType_m3009233912_AdjustorThunk
sRg:_Int16_ToString_m2013897809
pzi:__Z60RuntimeInvoker_Int32_t2950945753_ResourceCacheItem_t51292791PFvvEPK10MethodInfoPvPS4_
gqg:_String_Substring_m2848979100
Ged:__Z44Register_UnityEngine_CanvasRenderer_get_cullv
Zyj:__ZN15dense_hashtableINSt3__24pairIK10KeyWrapperIPK22Il2CppGenericParameterEP11Il2CppClassEES6_N6il2cpp5utils11PointerHashIS4_EEN14dense_hash_mapIS6_S9_SE_NS6_14EqualsComparerINS0_8equal_toIS5_EEEENS0_9allocatorISA_EEE9SelectKeyESJ_SL_ED2Ev
S6h:__ZN23GenericVirtFuncInvoker1Ib19Vector4_t3319028937E6InvokeEPK10MethodInfoP12Il2CppObjectS0_
bqg:_SecurityException_get_PermissionType_m2237538728
qcc:__Z29StdTemplateConversionFunctionIbbEbPvR14SafeBinaryRead
Bjd:__ZN11UnityEngine7Connect17XRDeviceInfoEvent12XRDeviceInfoD2Ev
bob:__Z44InitializeTransferFunctionScriptingTraitsForI17RemapPPtrTransferEvR31TransferFunctionScriptingTraits
mtc:__ZNSt3__26vectorI16MessageForwarder13stl_allocatorIS1_L18MemLabelIdentifier7ELi8EEE6resizeEj
k5f:_X509Chain_SelectBestFromCollection_m1068759221
Eij:_SymmetricTransform_TransformBlock_m851059707
KXd:__ZL68IntPtr_t_CustomAttributesCacheGenerator_IntPtr_ToPointer_m4157623054P21CustomAttributesCache
DHb:__Z11StringToKeyRKN4core12basic_stringIcNS_20StringStorageDefaultIcEEEE
sWi:_Enumerator_System_Collections_IEnumerator_Reset_m2261065994_AdjustorThunk
aXf:_ScrollRect_get_verticalNormalizedPosition_m3693218937
Y5a:__ZN18LoadSceneOperation21MustCompleteNextFrameEv
mZf:_Slider_UpdateDrag_m1102107039
JLd:_MonoMethodInfo_get_method_info_m88651774
UT:__ZNK12AudioManager16GetAudioListenerEv
ERg:_Int32_System_IConvertible_ToDateTime_m1824716955
ush:_Dictionary_2_System_Collections_Generic_ICollectionU3CSystem_Collections_Generic_KeyValuePairU3CTKeyU2CTValueU3EU3E_CopyTo_m331407443_gshared
Anf:_RuntimeTypeHandle__ctor_m3315980708_AdjustorThunk
I7d:__ZL69IIdentityPermissionFactory_t3268650966_CustomAttributesCacheGeneratorP21CustomAttributesCache
Luj:_Canvas_set_overrideSorting_m4088794420
A7b:__ZNSt3__26vectorI11CameraStackNS_9allocatorIS1_EEE8__appendEj
cwh:_DefaultComparer_Equals_m2585095694_gshared
Fzf:_Logger_set_filterLogType_m3622751173
Wlf:__ZN25GenericVirtActionInvoker1I28StreamingContext_t3711869237E6InvokeEPK10MethodInfoP12Il2CppObjectS0_
wgi:__Z172RuntimeInvoker_Void_t1185182177_RuntimeObject_CodePointIndexerU26_t4059079874_ByteU2AU26_t57153304_ByteU2AU26_t57153304_CodePointIndexerU26_t4059079874_ByteU2AU26_t57153304PFvvEPK10MethodInfoPvPS4_
Ew:__ZN7mecanim9animation12GetHumanPoseERKNS0_18ClipMuscleConstantEPKNS0_10ValueDeltaERNS_5human9HumanPoseE
Dhd:__ZN11UnityEngine9Analytics15UserCustomEvent12CustomParams6InsertEPKcRNS1_11CustomValueE
yy:__ZN22AnimationMixerPlayable17ProcessRootMotionEP35AnimationPlayableEvaluationConstantP32AnimationPlayableEvaluationInputP33AnimationPlayableEvaluationOutput
Cxb:__Z29Transfer_Blittable_ArrayFieldI19StreamedBinaryWriteILb0EEjEvRT_R9ArrayInfoRK23StaticTransferFieldInfo
L9:__Z13GetFileSystemv
Wnj:_AudioSourceExtension_ExtensionUpdate_m2790353999
gca:__ZN13RuntimeStaticI15GUIEventManagerLb0EE16StaticInitializeEPv
SBf:_MonoBehaviour_IsObjectMonoBehaviour_m2134950949
oCb:__ZL12InvokeMethodI18StreamedBinaryReadILb0EEEvRK29SerializationCommandArgumentsR31RuntimeSerializationCommandInfo
ima:__ZL45__ManagedRegistrationHelperFunction_Texture2DPv
yTh:_Version_CompareTo_m3146217210
Shg:_TlsClientCertificate_FindParentCertificate_m3844441401
rej:_Uri_ParseAsUnixAbsoluteFilePath_m1476768041
Ajh:_Array_InternalArray__ICollection_CopyTo_TisKeyValuePair_2_t71524366_m1056941380_gshared
EOh:_Type_get_IsClass_m589177581
qge:__ZL62NativeTypeAttribute_t2250406315_CustomAttributesCacheGeneratorP21CustomAttributesCache
nAb:__Z29Transfer_Blittable_ArrayFieldI18StreamedBinaryReadILb1EE5RectTIfEEvRT_R9ArrayInfoRK23StaticTransferFieldInfo
onb:__ZN19ShaderPropertySheet9SetMatrixEN9ShaderLab16FastPropertyNameERK10Matrix4x4fNS_8SetFlagsE
CRa:__Z29GetTextureSizeAllowedMultiple13TextureFormat
c8g:_Decimal_Subtract_m835601464
vVb:__ZZ23InitPlayerLoopCallbacksvEN52InitializationAsyncUploadTimeSlicedUpdateRegistrator7ForwardEv
Soi:__Z73RuntimeInvoker_Boolean_t97287965_RuntimeObject_IPv6AddressU26_t3285609463PFvvEPK10MethodInfoPvPS4_
y6f:_X509ExtensionCollection_get_IsSynchronized_m2607599544
iNh:_TimeSpan__ctor_m3689759052_AdjustorThunk
yUj:_il2cpp_array_element_size
rWd:__ZL62ComVisibleAttribute_t1362837655_CustomAttributesCacheGeneratorP21CustomAttributesCache
NPi:_List_1_System_Collections_IEnumerable_GetEnumerator_m1824431956_gshared
Ava:__ZNSt3__26__treeINS_12__value_typeIN4core12basic_stringIcNS2_20StringStorageDefaultIcEEEEjEENS_19__map_value_compareIS6_S7_NS_4lessIS6_EELb1EEE13stl_allocatorIS7_L18MemLabelIdentifier7ELi16EEE25__emplace_unique_key_argsIS6_JNS_4pairIS6_jEEEEENSH_INS_15__tree_iteratorIS7_PNS_11__tree_nodeIS7_PvEEiEEbEERKT_DpOT0_
kHf:_RectTransform_INTERNAL_set_sizeDelta_m188783163
Vf:_glCheckFramebufferStatus
Zfk:__ZN6il2cpp2os11EventHandle4WaitEv
TVe:_U3CGetEnumeratorU3Ec__Iterator0_System_Collections_Generic_IEnumeratorU3CTU3E_get_Current_m9057020_gshared
R5:__Z43scripting_class_get_method_from_name_filter17ScriptingClassPtrPKciN24ScriptingMethodFiltering18MethodSearchFilterEPK16ScriptingTypePtr
Wed:__Z13RegisterClassIN2UI6CanvasEEvPKc
v7:__ZN4core8hash_setINS_4pairIKi17ThreadedAwakeDataLb0EEENS_9hash_pairINS_4hashIiEES2_S3_EENS_10equal_pairINSt3__28equal_toIiEES2_S3_EEE4growEv
B$:__ZN19CloudServiceHandler20StartEventDispatcherERKN11UnityEngine15CloudWebService18CloudServiceConfigERNS1_23WebRequestRestHeaderMapE
NEd:_GraphicRaycaster__ctor_m646559428
ueg:_CipherSuite_get_CipherAlgorithmType_m137858741
CIg:_BitArrayEnumerator_get_Current_m4220391712
sPe:__Z37il2cpp_codegen_get_executing_assemblyPK10MethodInfo
OHf:_Transform_get_parent_m835071599
w7:__ZN4core8hash_setINS_4pairIKi17ThreadedAwakeDataLb0EEENS_9hash_pairINS_4hashIiEES2_S3_EENS_10equal_pairINSt3__28equal_toIiEES2_S3_EEE4growEi
Gab:__ZN9Transform23VirtualRedirectTransferER17RemapPPtrTransfer
q1f:_IPAddress_get_ScopeId_m4237202723
wpa:__ZN9Scripting11UnityEngine12Experimental10PlayerLoop9PreUpdate12CleanupProxyEv
W_e:_InternalEnumerator_1_MoveNext_m3520556285_AdjustorThunk
Fbj:_ExpressionCollection_get_Item_m3510736379
GBe:__ZL62FontData_t746620069_CustomAttributesCacheGenerator_m_AlignmentP21CustomAttributesCache
vwd:_StandaloneInputModule_get_inputActionsPerSecond_m3946624274
yKh:_UTF8Encoding_InternalGetCharCount_m82458470
CLf:_Vector2__cctor_m2108982652
QCf:_U3CBlockUntilRecvMsgU3Ec__AnonStorey2_U3CU3Em__0_m2225790220
nna:__ZN9Scripting11UnityEngine9Rendering20SphericalHarmonicsL29InitProxyEv
o4e:_InternalEnumerator_1_MoveNext_m2734554195_AdjustorThunk
o0j:__ZN14dense_hash_mapI10KeyWrapperIP14Il2CppIUnknownEjN6il2cpp5utils11PointerHashIS1_EENS3_14EqualsComparerINSt3__28equal_toIS2_EEEENS9_9allocatorINS9_4pairIKS3_jEEEEE15set_deleted_keyERSF_
xWj:__ZN6il2cpp2gc9AllocatorIP12Il2CppThreadE10deallocateEPvj
TQj:__ZN13Il2CppHashMapIPK14Il2CppAssemblyPK22Il2CppMonoAssemblyNameN6il2cpp5utils11PointerHashIS1_EENSt3__28equal_toIS2_EENSA_9allocatorINSA_4pairIK10KeyWrapperIS2_ES5_EEEEEC2EjRKS9_RKSC_
Nzg:_DelegatePInvokeWrapper_AppDomainInitializer_t682969308
zpe:__ZL141SupportedRenderingFeatures_t353898663_CustomAttributesCacheGenerator_SupportedRenderingFeatures_IsMixedLightingModeSupportedByRef_m2282093837P21CustomAttributesCache
Q8:__ZN8Remapper6RemoveEi
C9h:_UnityEvent_1__ctor_m3777630589_gshared
lfb:__ZN10MemoryFile4ReadEyPvPy
Vvg:_Encoding_GetBytes_m3148649984
wCc:__ZN9Scripting27CreateArgumentNullExceptionEPKc
d_c:__ZL36CleanupTextRenderingScriptingClassesv
U7b:__ZN15ReflectionProbe17UseRendererResultEP13ProbeRenderer
vFc:__Z34Mesh_CUSTOM_SetArrayForChannelImplP12Il2CppObject30InternalScriptingShaderChannel34InternalScriptingVertexChannelTypeiP11Il2CppArrayi
mvj:_CanvasRenderer_INTERNAL_CALL_EnableRectClipping_m3318097918
WRh:_UInt64_System_IConvertible_ToDecimal_m806594027_AdjustorThunk
Oka:__ZL58__ManagedRegistrationHelperFunction_MaterialEffectPlayablePv
And:__ZN11UnityEngine7Connect20RemoteConfigSettings18StaticCallOnUpdateEPS1_
hai:_UnityEvent_1_GetDelegate_m274387680_gshared
D9e:_Enumerator_get_CurrentValue_m3103267885_gshared
VMi:_List_1__ctor_m3395838871_gshared
JWh:_Collection_1_IsFixedSize_m3698021882_gshared
cK:__ZN9Scripting11UnityEngine18AssetBundleRequest9InitProxyEv
n6i:_PKCS12__ctor_m1854440921
eHi:_Array_Resize_TisCustomAttributeNamedArgument_t287865710_m885566878_gshared
Qaa:__ZN17TransformInternal19FreeTransformThreadER18TransformHierarchyjj
Ns:__ZN9Scripting11UnityEngine12SkeletonBone12CleanupProxyEv
Quh:_DefaultComparer__ctor_m2556554241_gshared
bu:__ZN11UnityEngine9Animation28GenericAnimationBindingCache25RegisterIAnimationBindingEPKN5Unity4TypeEiP17IAnimationBinding
CRd:_FormatterData__ctor_m3990517908
Ked:__Z70RectTransformUtility_CUSTOM_INTERNAL_CALL_RectangleContainsScreenPointP12Il2CppObjectRK13Vector2fIcallS0_
nVg:_DirectoryInfo__ctor_m481305441
z6f:_X509ExtensionCollection_get_SyncRoot_m2667861032
Pzj:__ZN6il2cpp2vm5Class15GetElementClassEP11Il2CppClass
T3:__ZN10MemoryPoolC2E10MemLabelIdbPKciii
q1i:_Collection_1_SetItem_m941095285_gshared
Hgd:__ZN14UnityAnalytics25UnregisterGlobalCallbacksEv
Dxi:__Z80RuntimeInvoker_Boolean_t97287965_ColorBlockU26_t337120346_ColorBlock_t2139031574PFvvEPK10MethodInfoPvPS4_
k6b:__Z40ProcessCameraIndexListIsNodeVisibleInOutRK22SceneCullingParametersPK9SceneNodePK4AABBR9IndexList
zhj:_GUIScrollGroup_SetHorizontal_m291416666
OFa:__ZN16GraphicsSettings8TransferI17RemapPPtrTransferEEvRT_
hck:__GLOBAL__sub_I_Assembly_cpp_43341
Cfd:__ZN2UI6Canvas13UpdateBatchesEb
g3f:_X509BasicConstraintsExtension_Decode_m120598446
HB:__ZNK23AnimationPlayableOutput11DerivesFromE17ScriptingClassPtr
_Pa:__ZN7Texture19SupportsAsyncUploadI19StreamedBinaryWriteILb0EEEEbRT_
vri:__Z49RuntimeInvoker_Boolean_t97287965_Rect_t2360479859PFvvEPK10MethodInfoPvPS4_
$lf:_ObjectReader_ReadObjectGraph_m340866276
Mre:__ZL101Transform_t3600365921_CustomAttributesCacheGenerator_Transform_INTERNAL_get_localRotation_m1111330565P21CustomAttributesCache
omi:__Z51RuntimeInvoker_UInt32_t2560061978_Int16_t2552820387PFvvEPK10MethodInfoPvPS4_
iLb:__ZNK13GfxDeviceGLES12GetWireframeEv
Mij:_DelegatePInvokeWrapper_Action_t1264377477
Wue:__ZL64EventType_t3528516131_CustomAttributesCacheGenerator_dragUpdatedP21CustomAttributesCache
Tkd:__ZN11UnityEngine7Connect13ConfigHandler12GetListenersERKN4core12basic_stringIcNS2_20StringStorageDefaultIcEEEE
pib:__ZN9GfxDevice18AllocRenderSurfaceEb
KEg:_Char__cctor_m2787437263
xxc:__ZN10TagManager32GetSortingLayerUniqueIDFromValueEi
Kxd:_AspectRatioFitter_get_rectTransform_m2996235303
J5:__ZL27CleanupCoreScriptingClassesv
sNg:_DateTimeFormatInfo_get_IsReadOnly_m1173781646
DOg:_NumberFormatInfo_get_PercentPositivePattern_m1800841633
KEd:_Graphic_UnregisterDirtyMaterialCallback_m2707090617
Z7e:_Comparer_1_System_Collections_IComparer_Compare_m1313384821_gshared
URf:_LayoutRebuilder_GetHashCode_m1943075341
dUe:_GenericTypeParameterBuilder_MakeGenericType_m3048165991
Qqc:__Z26AnimationCurve_CUSTOM_InitP12Il2CppObjectP11Il2CppArray
myk:_glUniform1uiv__wrapper
EQj:__ZN6il2cpp2vm10Reflection7IsEventEP12Il2CppObject
mjk:__ZNSt3__26__treeINS_12__value_typeIPFvvEPK10MethodInfoEENS_19__map_value_compareIS3_S7_NS_4lessIS3_EELb1EEENS_9allocatorIS7_EEE16__insert_node_atEPNS_16__tree_node_baseIPvEERSI_SI_
R8:__ZN17PersistentManager26GetStreamNameSpaceInternalEi
kR:__ZN4FMOD6System11createSoundEPKcjP22FMOD_CREATESOUNDEXINFOPPNS_5SoundE
Wn:FUNCTION_TABLE_iiifiiii
s4e:_InternalEnumerator_1_System_Collections_IEnumerator_Reset_m1451164462_AdjustorThunk
UVc:__ZN13SpeedTreeWind20AdvanceWithoutUpdateEd
LWh:_ReadOnlyCollection_1_System_Collections_Generic_ICollectionU3CTU3E_Add_m1422506275_gshared
$4g:_DateTime_System_IConvertible_ToDecimal_m1044850612
CMi:_List_1_IndexOf_m2206067159_gshared
uYe:_InternalEnumerator_1_System_Collections_IEnumerator_Reset_m1318888374_AdjustorThunk
P4:__ZN9ShaderLab19CommonPropertyNames13StaticCleanupEPv
e8:__Z31scripting_method_get_returntype18ScriptingMethodPtr
Rpj:__ZL24UnresolvedVirtualCall_76P12Il2CppObjectPK10MethodInfo
eWa:__ZN15SerializeTraitsI12LightmapDataE8TransferI24GenerateTypeTreeTransferEEvRS0_RT_
Bog:_SecurityElement_AddAttribute_m311510562
Ara:__ZN9Scripting5Unity11Collections44NativeDisableParallelForRestrictionAttribute12CleanupProxyEv
Luk:_glStencilOpSeparate__wrapper
JAc:__ZN4Mesh5SetUvEiPKfjj
QTa:__ZN7Texture13SetAnisoLimitENS_20AnisotropicFilteringE
mpd:__ZN20UnityWebRequestProtoI24UnityWebRequestTransport16AtomicRefCounter14RedirectHelper14ResponseHelper15DownloadHandler13UploadHandler18CertificateHandler12HeaderHelper14AsyncOperationED2Ev
cw:__ZN21AnimationClipPlayable22PrepareAnimationEventsEfR13dynamic_arrayI22AnimationClipEventInfoLj0EE
DCg:_Attribute_IsDefined_m4069052474
Ph:_emscripten_glCompressedTexSubImage2D
cRb:__ZN13GfxDeviceGLES22MemoryBarrierImmediateEyN2gl17MemoryBarrierTypeE
lQf:_U3CCaretBlinkU3Ec__Iterator0_Dispose_m860898205
wia:__ZN6prcoreL26RemapGenericFloatToIntegerI18TexFormatARGBFloat17TexFormatARGB8888EEvPKNS_9InnerInfoE
gVi:_List_1_set_Capacity_m1977188119_gshared
XBc:__Z46GetShaderModelNumericValueFromRequirementsMask18ShaderRequirements
F1c:_cff_ps_has_glyph_names
yCd:_DropdownItem_get_rectTransform_m3147806615
yuh:_Dictionary_2_Resize_m3287623642_gshared
zck:_GC_write
csi:__Z98RuntimeInvoker_Boolean_t97287965_PlayableOutputHandle_t4208053793_PlayableOutputHandle_t4208053793PFvvEPK10MethodInfoPvPS4_
Grf:_RC2_Create_m2516417038
uEd:_Graphic_OnPopulateMesh_m767318148
or:__ZN17ConstraintManagerD2Ev
crf:_HMACSHA512_set_ProduceLegacyHmacValues_m3961135292
kpj:__ZL24UnresolvedVirtualCall_43P12Il2CppObjectS0_PK10MethodInfo
Jhf:_Dictionary_2_Remove_m4193450060_gshared
Soh:_ASN1_get_Tag_m1032367219
Nkj:_StandardEventPayload_set_name_m549984672
mTg:_Int64_TryParse_m3606398488
$Fi:_Array_InternalArray__set_Item_TisMark_t3471605523_m1299772331_gshared
VJc:__Z44Register_UnityEngine_GUIStyle_SetDefaultFontv
eyb:__Z18Transfer_BlittableI18StreamedBinaryReadILb1EELb1EiEvRK29SerializationCommandArgumentsR31RuntimeSerializationCommandInfo
KD:__ZN9BlobWrite8TransferI22OffsetPtrArrayTransferIKN4math7_float3EEEEvRT_PKc17TransferMetaFlags
Sgi:__Z173RuntimeInvoker_Int32_t2950945753_RuntimeObject_Int32_t2950945753_Int32_t2950945753_Int32_t2950945753_RuntimeObject_Int32_t2950945753_SByte_t1669577662_ContextU26_t3937453398PFvvEPK10MethodInfoPvPS4_
NOi:_List_1__ctor_m2576108087_gshared
tPj:__ZN15dense_hashtableINSt3__24pairIK10KeyWrapperINS1_IPK12PropertyInfoP11Il2CppClassEEEjEES9_17ReflectionMapHashIS8_EN14dense_hash_mapIS9_jSD_NS9_14EqualsComparerINS0_8equal_toIS8_EEEENS0_9allocatorISB_EEE9SelectKeyESI_SK_E12maybe_shrinkEv
jrj:__ZL25UnresolvedVirtualCall_150P12Il2CppObject19Vector2_t2156229523S1_fiPK10MethodInfo
K6i:_X509Certificate_get_DSA_m565099499
Fyb:__Z18Transfer_BlittableI18StreamedBinaryReadILb1EELb1EsEvRK29SerializationCommandArgumentsR31RuntimeSerializationCommandInfo
IIh:_StringBuilder_Remove_m940064945
s2a:__ZN14SafeBinaryRead21TransferSTLStyleArrayI13dynamic_arrayI16SplashScreenLogoLj0EEEEvRT_17TransferMetaFlags
Wlb:__ZN13dynamic_arrayIN16GeometryJobTasks15GeometryJobTaskELj0EE18resize_initializedEjRKS1_12ResizePolicy
Apf:_DESCryptoServiceProvider_GenerateIV_m683687014
bAh:_GenericComparer_1__ctor_m1900257738_gshared
WTa:__ZL21SetAnisoLimitEnumImplN7Texture20AnisotropicFilteringEb
Okd:__ZN22BaseUnityConnectClient17OnEnterStateReadyEv
c_f:_Text_get_fontSize_m1677872538
wHh:_List_1_System_Collections_IList_get_Item_m995551621_gshared
dpa:__ZN9Scripting11UnityEngine12Experimental9Rendering15ShadowSplitData9InitProxyEv
r0a:__ZN16BlendShapeVertex8TransferI19StreamedBinaryWriteILb0EEEEvRT_
brc:__Z29Input_CUSTOM_GetMouseButtonUpi
cRg:_Int16_Parse_m138525169
MKj:__ZN6il2cpp6icalls8mscorlib6System8MonoType16InternalGetEventEP20Il2CppReflectionTypeP12Il2CppStringi
kfj:_UriScheme_t722425697_marshal_pinvoke_back
x3c:_UNITY_tt_face_load_maxp
rrc:__Z46Input_CUSTOM_INTERNAL_set_compositionCursorPosRK13Vector2fIcall
Iv:__ZN7mecanim5human12FullBodyMaskEv
d_b:__ZN13BatchRenderer15ApplyShaderPassER17ShaderPassContextPK18SharedMaterialDataP6ShaderPN9ShaderLab4PassEi13BatchingFlagsbbPKNS7_10GrabPassesEPK22DeviceRenderStateBlock
U_a:__ZN19ShaderPropertySheet11ComputeHashEv
ZDj:__ZN30dense_hashtable_const_iteratorI10KeyWrapperIPK19Il2CppGenericMethodES4_N6il2cpp8metadata23Il2CppGenericMethodHashEN14dense_hash_setIS4_S7_NS4_14EqualsComparerINS6_26Il2CppGenericMethodCompareEEENSt3__29allocatorIS4_EEE8IdentityESB_SE_EppEv
JBd:_Resources_t1597885468_marshal_pinvoke_cleanup
Bzb:__ZN4PPtrI6ObjectE8TransferI18StreamedBinaryReadILb1EEEEvRT_
yZ:__ZN11UnityEngine15CloudWebService20WebRequestRestClient6IsDoneEv
_cj:_Group__ctor_m2980794822
L3i:_X509CertificateCollection_get_Item_m1033426577
f7h:_CachedInvokableCall_1_Invoke_m502907382_gshared
rfe:__ZL79Enumerable_t538148348_CustomAttributesCacheGenerator_Enumerable_Any_m1084009618P21CustomAttributesCache
Mi:_llvm_fabs_f32
bZ:__ZN11UnityEngine15CloudWebService16SessionContainer16GetJsonDataBlockEjRKN4core12basic_stringIcNS2_20StringStorageDefaultIcEEEERS6_PjSA_
Ooh:_ASN1_Decode_m1695284166
jeg:__ZN23GenericVirtFuncInvoker0IP28ValidationResult_t3834298736E6InvokeEPK10MethodInfoP12Il2CppObject
pRj:__ZN15dense_hashtableINSt3__24pairIK10KeyWrapperIPK14Il2CppAssemblyEPK22Il2CppMonoAssemblyNameEES6_N6il2cpp5utils11PointerHashIS4_EEN14dense_hash_mapIS6_SA_SF_NS6_14EqualsComparerINS0_8equal_toIS5_EEEENS0_9allocatorISB_EEE9SelectKeyESK_SM_E13set_empty_keyERKSB_
C0i:_Collection_1_RemoveAt_m2240641437_gshared
Sah:_Enum_ToString_m3248653065
yXc:__ZN18StreamedBinaryReadILb0EE21TransferSTLStyleArrayI13dynamic_arrayIcLj0EEEEvRT_17TransferMetaFlags
oQd:_ChannelServices__cctor_m2475086854
i7:__ZN14SafeBinaryReadD2Ev
Eeh:_SetPropertyUtility_SetStruct_TisFillMethod_t1167457570_m4164776730_gshared
$Eh:_Enumerator_MoveNext_m3859993671_gshared
VWc:__ZN14SafeBinaryRead21TransferSTLStyleArrayI13dynamic_arrayIN20TextRenderingPrivate8FontImpl13CharacterInfoELj0EEEEvRT_17TransferMetaFlags
Vzb:__ZN8Gradient8TransferI18StreamedBinaryReadILb1EEEEvRT_
Jag:_SequentialSearchPrimeGeneratorBase_IsPrimeAcceptable_m1127740833
T6f:_Capture__ctor_m3103117740
Qfi:__Z113RuntimeInvoker_Void_t1185182177_RuntimeObject_Int64_t3736567304_RuntimeObject_Int64_t3736567304_Int64_t3736567304PFvvEPK10MethodInfoPvPS4_
C_i:_Collection_1_get_Item_m1493027586_gshared
oFf:_RangeInt_get_end_m4128831787_AdjustorThunk
M$j:__ZN6il2cpp6icalls8mscorlib6System4Type15MakeGenericTypeEP20Il2CppReflectionTypeP11Il2CppArray
mj:_SDL_PauseAudio
msj:__ZL25UnresolvedVirtualCall_207P12Il2CppObject6Guid_tS1_PK10MethodInfo
mKg:_Hashtable_Clone_m3078962909
VUj:_il2cpp_class_from_type
FLj:__ZN6il2cpp2os4File11GetStdErrorEv
oyj:_NativeHeaderAttribute__ctor_m457462113
Qae:__ZL77Convert_t2465617642_CustomAttributesCacheGenerator_Convert_ToSByte_m516918950P21CustomAttributesCache
O4:__ZN9ShaderLab19CommonPropertyNames16StaticInitializeEPv
z8a:__ZN13MemoryManager31DisallowAllocationsOnThisThreadEv
_6e:_Comparer_1__cctor_m2517796511_gshared
nu:__ZN7mecanim9animation18CreateAvatarOutputEPKNS0_14AvatarConstantEbbRNS_6memory9AllocatorE
sig:_TlsServerCertificateRequest_Update_m2763887540
Kmj:_DelegatePInvokeWrapper_PCMSetPositionCallback_t1059417452
UYf:_Slider_set_maxValue_m2251404465
DZf:_SpriteState_get_pressedSprite_m3868967445_AdjustorThunk
nQ:__ZN11AudioSource23VirtualRedirectTransferER24GenerateTypeTreeTransfer
uAc:__ZN7Texture11SetWrapModeE15TextureWrapMode
Rld:__ZN22BaseUnityConnectClient13ResumeSessionEv
zOa:__ZN14Texture2DArray23VirtualRedirectTransferER14SafeBinaryRead
aKe:_MissingMemberException__ctor_m1220732369
S0b:__ZNK6Camera21CalculateCanDoShadowsEv
avi:__Z52RuntimeInvoker_Void_t1185182177_Int32U26_t1369213839PFvvEPK10MethodInfoPvPS4_
Pyj:_GenerateManagedProxyAttribute_set_NativeType_m3203265247
G7j:__ZN6il2cpp2os6Thread12SetStackSizeEj
lTf:_MaskableGraphic_RecalculateMasking_m183336762
FKi:_Array_InternalArray__get_Item_TisRuntimeObject_m3347010206_gshared
rsi:__Z38RuntimeInvoker_LightmapsMode_t12202505PFvvEPK10MethodInfoPvPS4_
tId:_TypeBuilder_IsSubclassOf_m3458909121
$qk:dynCall_viffii
cBb:__Z18Transfer_BlittableI18StreamedBinaryReadILb0EELb1EhEvRK29SerializationCommandArgumentsR31RuntimeSerializationCommandInfo
Ixg:_X509Certificate__cctor_m198658613
Jii:__Z43RuntimeInvoker_MethodAttributes_t2366443849PFvvEPK10MethodInfoPvPS4_
ZDf:_PlayableHandle_Equals_m1666612586_AdjustorThunk
cia:__ZN6prcoreL27StretchGenericFloatBilinearI15TexFormatRFloatEEvPKNS_9InnerInfoE
uee:__ZL139ServicePointManager_t170559685_CustomAttributesCacheGenerator_ServicePointManager_t170559685____CheckCertificateRevocationList_PropertyInfoP21CustomAttributesCache
cbh:_Enum_ToObject_m1628250250
By:__Z24ProcessAnimationMixBeginP35AnimationPlayableEvaluationConstantP32AnimationPlayableEvaluationInputP33AnimationPlayableEvaluationOutput
rTi:_List_1_set_Item_m2057272351_gshared
SXa:__ZN19StreamedBinaryWriteILb0EE21TransferSTLStyleArrayI13dynamic_arrayI8Vector2fLj0EEEEvRT_17TransferMetaFlags
kSa:__Z14PadImageBorderR14ImageReferenceii
VNj:__ZN15dense_hashtableINSt3__24pairIK10KeyWrapperINS1_IPK10MethodInfoP11Il2CppClassEEEjEES9_17ReflectionMapHashIS8_EN14dense_hash_mapIS9_jSD_NS9_14EqualsComparerINS0_8equal_toIS8_EEEENS0_9allocatorISB_EEE9SelectKeyESI_SK_E4findERSA_
hHj:__ZN6il2cpp2vm13MetadataCache28GetFieldDefaultValueForFieldEPK9FieldInfo
Vgh:_Array_IndexOf_TisUIVertex_t4057497605_m3336763564_gshared
_Zh:__ZN21InterfaceFuncInvoker1I22OrderBlock_t1585977831iE6InvokeEjP11Il2CppClassP12Il2CppObjecti
dz:__ZN27AnimationLayerMixerPlayableD2Ev
Wzd:_ColorBlock_Equals_m518833916_AdjustorThunk
PGh:_List_1_GetEnumerator_m2838255531_gshared
tZe:_InternalEnumerator_1_System_Collections_IEnumerator_get_Current_m1514266661_AdjustorThunk
mM:__ZN12AudioManager39HandlePendingAudioConfigurationCallbackEv
pma:__ZL43__ManagedRegistrationHelperFunction_Vector3Pv
lk:_emscripten_glIsFramebuffer
nrh:_RSAManaged_EncryptValue_m799827583
e7b:__ZN12_GLOBAL__N_16qAtan2Eff
ddi:__Z61RuntimeInvoker_UInt32_t2560061978_RuntimeObject_RuntimeObjectPFvvEPK10MethodInfoPvPS4_
nMh:_ThreadAbortException__ctor_m1955533141
pk:_JS_Sound_SetLoopPoints
ghk:__ZN6il2cpp2vm26MetadataAllocGenericMethodEv
Odh:_Array_InternalArray__ICollection_Remove_TisUInt16_t2177724958_m1766181761_gshared
sTb:__ZN19ConstantBuffersGLES12RecordRenderEv
jai:_UnityEvent_1__ctor_m3675246889_gshared
eOc:__ZN9JSONWrite8TransferI10RectOffsetEEvRT_PKc17TransferMetaFlags
bSa:__ZN4crnd12symbol_codec11decode_bitsEj
Uxi:__Z59RuntimeInvoker_Boolean_t97287965_KeyValuePair_2_t3842366416PFvvEPK10MethodInfoPvPS4_
Ccg:_EncryptedPrivateKeyInfo__ctor_m3415744930
F$c:_cf2_doFlex
A2f:_AsnEncodedData__ctor_m3792312694
Xij:_AesManaged_GenerateIV_m1368817386
euc:__ZN21FixedBehaviourManagerD0Ev
zL:__ZN4FMOD6System12createReverbEPPNS_6ReverbE
Dak:__ZN6il2cpp2vm6String21InitializeEmptyStringEP11Il2CppClass
Wy:__ZN7mecanim19ValueArrayBlendNodeILb1EEEvRKNS_10ValueArrayERKNS_14ValueArrayMaskERS1_RS4_RNS_16ValueArrayWeightEf
Cof:_CodeAccessPermission_GetHashCode_m880096813
B8a:__Z16MarkDependenciesR27GarbageCollectorThreadStatej
uPe:_AssemblyConfigurationAttribute__ctor_m3236176989
_bi:_ObjectPool_1_get_countInactive_m526975942_gshared
bpj:__ZL24UnresolvedVirtualCall_34P12Il2CppObjectPK10MethodInfo
Sif:_RemotingServices_DisposeIdentity_m2605848806
$ga:__ZNK9Transform11GetPositionEv
JWg:_WriteDelegate_EndInvoke_m952736984
rtf:_Bounds_set_size_m4127623202
EPg:_GuidParser_Reset_m2640004655
Yyc:__ZN31CanvasBatchIntermediateRenderer11AddSubBatchERK16DrawBuffersRangePK19ShaderPropertySheet
jvc:__ZN19RenderEventsContextC2Ei
$W:__Z6simd4fRKf
Cre:__ZL67SceneManager_t2787271929_CustomAttributesCacheGenerator_sceneLoadedP21CustomAttributesCache
eOg:_GregorianCalendar_GetEra_m2369958449
Tk:_emscripten_glEnable
$_e:_InternalEnumerator_1_System_Collections_IEnumerator_get_Current_m2982675020_gshared
pva:__ZN10TagManager23VirtualRedirectTransferER14SafeBinaryRead
kDe:__ZL51RawImage_t3182918964_CustomAttributesCacheGeneratorP21CustomAttributesCache
kWh:_Collection_1_System_Collections_IList_get_Item_m2931804586_gshared
yif:_ObjRef_get_EnvoyInfo_m1782007847
wea:__ZN14PlayableOutput26ClearInvalidSourcePlayableEv
O3b:__Z15InitLightMeshesv
sKd:_MonoCMethod_ToString_m3992577062
fWj:_RaycastHit_get_collider_m1464180279
a_d:__ZL76MarshalAsAttribute_t3522571978_CustomAttributesCacheGenerator_MarshalTypeRefP21CustomAttributesCache
nzj:__ZNK15dense_hashtableINSt3__24pairIK10KeyWrapperIPK22Il2CppGenericParameterEP11Il2CppClassEES6_N6il2cpp5utils11PointerHashIS4_EEN14dense_hash_mapIS6_S9_SE_NS6_14EqualsComparerINS0_8equal_toIS5_EEEENS0_9allocatorISA_EEE9SelectKeyESJ_SL_E10test_emptyEj
s1h:_ReadOnlyCollection_1_System_Collections_IList_Contains_m2904046095_gshared
LTa:__ZN15QualitySettings8TransferI19StreamedBinaryWriteILb0EEEEvRT_
qNc:__Z18Transfer_BlittableI9JSONWriteLb1E11ColorRGBA32EvRK29SerializationCommandArgumentsR31RuntimeSerializationCommandInfo
iPg:_SortKey_GetHashCode_m3547067087
uSf:_LayoutUtility_U3CGetFlexibleHeightU3Em__7_m2991026842
nwb:__Z18Transfer_BlittableI19StreamedBinaryWriteILb0EELb1E8Vector2fEvRK29SerializationCommandArgumentsR31RuntimeSerializationCommandInfo
h$c:_cf2_arrstack_init
OKi:_Array_InternalArray__get_Item_TisResourceCacheItem_t51292791_m1306056717_gshared
Yti:__Z157RuntimeInvoker_Void_t1185182177_RuntimeObject_RuntimeObject_RuntimeObject_RuntimeObject_RuntimeObject_RuntimeObject_RuntimeObject_RuntimeObject_RuntimeObjectPFvvEPK10MethodInfoPvPS4_
Ysd:_EventSystem_get_pixelDragThreshold_m1103650852
Bge:__ZL60StaticAccessorType_t186341701_CustomAttributesCacheGeneratorP21CustomAttributesCache
c2:__Z15CleanLogHandler7LogTypePKcz
nNe:_NumberFormatter_NumberToString_m2481532188
Whc:__ZN9ShaderLab19SerializedSubShader8TransferI19StreamedBinaryWriteILb0EEEEvRT_
dXf:_ScrollRect_InternalGetBounds_m599803667
$af:_Enumerator_MoveNext_m76191888_gshared
pT:__ZN14AudioBehaviour15ThreadedCleanupEv
Tra:__ZN9Scripting5Unity11Collections8LowLevel6Unsafe41NativeContainerIsAtomicWriteOnlyAttribute9InitProxyEv
QEb:__ZN6Camera17RemoveImageFilterERK11ImageFilter
Amb:__ZNSt3__218__insertion_sort_3IR25ValueParameterArraySorterPN20GpuProgramParameters14ValueParameterEEEvT0_S6_T_
lqe:__ZL90Display_t1387065949_CustomAttributesCacheGenerator_Display_GetRenderingExtImpl_m2069813991P21CustomAttributesCache
iee:__ZL67EditorBrowsableAttribute_t1475454531_CustomAttributesCacheGeneratorP21CustomAttributesCache
sJg:_Comparer__cctor_m3311686689
ffd:__ZZN2UI11CanvasGroup15InitializeClassEvEN38FunctorImpl_117kTransformParentChanged4CallEPviR11MessageData
txd:_UIBehaviour_OnDidApplyAnimationProperties_m2143584361
Q0f:_HttpWebRequest_get_Address_m2672661563
kOh:_TimeZone__ctor_m1831364098
YPj:__ZNK10KeyWrapperINSt3__24pairIPK9EventInfoP11Il2CppClassEEE14EqualsComparerINS0_8equal_toIS7_EEEclERKS8_SE_
D_e:_InternalEnumerator_1_get_Current_m3500427238_AdjustorThunk
ogd:__ZN2UI26InitializeDeviceForOverlayEi
_9f:_Kernel_PlusEq_m136676638
y3:__Z27LogRepeatingStringWithFlagsRKN4core12basic_stringIcNS_20StringStorageDefaultIcEEEE15LogMessageFlagsi
fSh:_UInt64_System_IConvertible_ToSingle_m925613075
dbh:_Enum_IsDefined_m1442314461
OLh:_Thread__cctor_m817723615
Rmj:_AudioExtensionManager_RegisterBuiltinDefinitions_m2742744104
iw:__ZN17AnimationPlayable28ComputeNeedsBindingRebuildedEv
nv:__ZN17AnimationPlayable23RequestAllocateBindingsEv
Q5h:_Predicate_1_EndInvoke_m3884403745_gshared
gvg:_DecoderReplacementFallbackBuffer_Fallback_m1261056214
uYb:__ZNSt3__227__insertion_sort_incompleteIRPFbP10GUIElementS2_EPS2_EEbT0_S7_T_
iLe:_Binder_get_DefaultBinder_m950908649
EVg:_StreamReader__ctor_m1616861391
N4c:_tt_cmap6_char_index
Lld:__ZN18UnityConnectClient33OnPlayerSessionStateChangedStaticEPS_jyy
iI:__ZN25RuntimeAnimatorController12CleanupClassEv
Wkg:_RSA_ToXmlString_m2922661427
i_:__ZNK11UnityEngine15CloudWebService23WebRequestUploadHandler11GetProgressEv
IOb:__ZN7ApiGLES4LoadE16GfxDeviceLevelGL
eve:__ZL61GUIContent_t3050628031_CustomAttributesCacheGenerator_m_ImageP21CustomAttributesCache
XRa:__ZN4crnd12crn_unpacker22decode_color_endpointsEv
u3j:__ZN15dense_hashtableI10KeyWrapperIP18Il2CppGenericClassES3_N6il2cpp8metadata22Il2CppGenericClassHashEN14dense_hash_setIS3_S6_NS3_14EqualsComparerINS5_25Il2CppGenericClassCompareEEENSt3__29allocatorIS3_EEE8IdentityESA_SD_E15insert_noresizeERKS3_
Nwc:__ZZL31RegisterOtherRendererPropertiesR22GenericPropertyBindingEN30Wrapper_RendererReceiveShadows13GetFloatValueEPv
jua:__ZN8Vector4f8TransferI18StreamedBinaryReadILb0EEEEvRT_
kch:_Array_InternalArray__ICollection_Contains_TisSlot_t384495010_m688761886_gshared
ARa:__ZN17SharedTextureDataC2E10MemLabelIdii13TextureFormatjiibb
Kvi:__Z114RuntimeInvoker_RuntimeObject_RuntimeObject_Int32_t2950945753_Int32_t2950945753_Int32_t2950945753_Int32_t2950945753PFvvEPK10MethodInfoPvPS4_
THb:__ZN8Material11SetPassFastEPN9ShaderLab4PassER17ShaderPassContextP6Shaderib
uld:__ZN11UnityEngine7Connect20BasePersistentValues10SaveValuesER9JSONWrite
e2i:_Collection_1_IsFixedSize_m3748602684_gshared
b5g:_DateTime_System_IConvertible_ToDouble_m2116720007
fbg:_BitConverterLE_GetUIntBytes_m795219058
iwf:_Display_GetSystemExtImpl_m2808197389
bNh:_WaitHandle_WaitOne_m2577152516
pof:_SByte_Parse_m2899090751
W5d:__ZL56ObjectManager_t1653064325_CustomAttributesCacheGeneratorP21CustomAttributesCache
uoa:__ZN9Scripting11UnityEngine20ManagedStreamHelpers12CleanupProxyEv
bda:__Z18GetITerrainManagerv
B6d:__ZL46DSA_t2386879874_CustomAttributesCacheGeneratorP21CustomAttributesCache
sWe:_ArrayReadOnlyList_1_GetEnumerator_m1835926958_gshared
wBc:__Z14ScaleCurveTimeR17AnimationCurveTplIfEf
Vba:__ZN20GlobalCachingManager7DisposeEv
xZb:__Z12SetupLODFadeR9GfxDeviceR17ShaderPassContextf
ZNa:__ZNK14PlayableOutput7GetTypeEv
WOc:__ZN9JSONWrite8TransferI13dynamic_arrayI4AABBLj0EEEEvRT_PKc17TransferMetaFlags
JZd:__ZL69Type_t_CustomAttributesCacheGenerator_Type_GetConstructors_m576905011P21CustomAttributesCache
B3b:__ZL24CollectForwardObjectsJobP27CollectForwardObjectsHeader
BGj:__ZNK15dense_hashtableINSt3__24pairIK10KeyWrapperIPK11Il2CppClassEPKcEES6_N6il2cpp5utils11PointerHashIS3_EEN14dense_hash_mapIS6_S9_SE_NS6_14EqualsComparerINS0_8equal_toIS5_EEEENS0_9allocatorISA_EEE9SelectKeyESJ_SL_E12test_deletedERK24dense_hashtable_iteratorISA_S6_SE_SN_SJ_SL_E
WQc:__ZN8JSONRead21TransferSTLStyleArrayI13dynamic_arrayIdLj0EEEEvRT_17TransferMetaFlags
X5b:__Z13IsNodeVisibleRK9SceneNodeRK4AABBRK22SceneCullingParameters
whh:_Array_InternalArray__IndexOf_TisLabelFixup_t858502054_m1491765395_gshared
bgi:__Z44RuntimeInvoker_RuntimeTypeHandle_t3027515415PFvvEPK10MethodInfoPvPS4_
a6e:__ZN21InterfaceFuncInvoker1IibE6InvokeEjP11Il2CppClassP12Il2CppObjectb
OId:__ZN30GenericInterfaceActionInvoker1IP20Delegate_t1188392813E6InvokeEPK10MethodInfoP12Il2CppObjectS1_
hmh:_SortKeyBuffer_AppendCJKExtension_m2591091991
Qed:__Z57RectTransformUtility_CUSTOM_INTERNAL_CALL_PixelAdjustRectP12Il2CppObjectS0_R5RectTIfE
sKh:_UTF8Encoding_GetByteCount_m4153686982
iAk:_emscripten_glStencilMask__wrapper
Fei:__Z49RuntimeInvoker_Void_t1185182177_Double_t594665363PFvvEPK10MethodInfoPvPS4_
PDj:__ZN15dense_hashtableI10KeyWrapperIPK19Il2CppGenericMethodES4_N6il2cpp8metadata23Il2CppGenericMethodHashEN14dense_hash_setIS4_S7_NS4_14EqualsComparerINS6_26Il2CppGenericMethodCompareEEENSt3__29allocatorIS4_EEE8IdentityESB_SE_EC2ERKSH_j
$za:__ZN15RenderNodeQueue7CleanupEv
nhe:__ZL66RuntimePlatform_t4159857903_CustomAttributesCacheGenerator_XBOX360P21CustomAttributesCache
Bdb:__ZNK17ArchiveFileSystem8PositionERK13FileEntryData
RUc:__ZN16NovodexAllocator8allocateEjPKcS1_i
X2b:__Z17PrepareShadowMapsRK11CullResultsRK11ActiveLightRK10MinMaxAABB
B6i:_DeriveBytes_DeriveIV_m973925711
PRg:_Int32_System_IConvertible_ToSByte_m3133688512
rrd:__ZN9Scripting11UnityEngine12Experimental23SubsystemDescriptorBase9InitProxyEv
t1h:_ReadOnlyCollection_1_System_Collections_IList_IndexOf_m848971554_gshared
$nj:_AudioSampleProvider_get_id_m2692334523
x3b:__ZN9ShaderLab10GrabPassesD2Ev
APa:__ZN14Texture2DArray13UploadTextureEv
XSf:_MaskableGraphic_UpdateCull_m2805101913
d4c:_tt_cmap14_done
B6a:__ZN18AwakeFromLoadQueue25RegisterObjectInstanceIDsEv
ZMf:_InputField_UpdateLabel_m1837760870
aEa:__ZN14VertexDataInfo12UpdateFormatEj17ShaderChannelMaskS0_RK19VertexStreamsLayoutRK20VertexChannelsLayout
iz:__ZNK27AnimationLayerMixerPlayable11DerivesFromE17ScriptingClassPtr
aYc:__ZN20TextRenderingPrivate19NativeTextGenerator15InsertCharacterEiPj
qhi:__Z77RuntimeInvoker_Void_t1185182177_RuntimeObject_SByte_t1669577662_RuntimeObjectPFvvEPK10MethodInfoPvPS4_
Yhi:__Z81RuntimeInvoker_Void_t1185182177_RuntimeObject_SByte_t1669577662_SByte_t1669577662PFvvEPK10MethodInfoPvPS4_
cLe:_MonoType_get_attributes_m1332507727
Ogj:_GUIContent_ClearStaticCache_m1205116045
SQi:_List_1_System_Collections_IList_get_IsFixedSize_m203251153_gshared
Ipg:_WindowsIdentity_Dispose_m3466258450
Rx:__ZN17AnimationPlayableD0Ev
fxb:__Z18Transfer_BlittableI19StreamedBinaryWriteILb0EELb0EyEvRK29SerializationCommandArgumentsR31RuntimeSerializationCommandInfo
Vkf:_BinaryCommon__cctor_m2978407547
k0:__GLOBAL__sub_I_Runtime_Burst_0_cpp
A1b:__Z19GetReflectionSampleRK23ReflectionProbesContextRK22ActiveReflectionProbesRK27PerObjectLightCullingOutputRK10RenderNodejP16ReflectionSample
ywc:__ZN28ReflectionProbeAnchorManager23HandleAnchorDestructionEPK15TransformAccessj
K_d:__ZL47ASN1_t2114160832_CustomAttributesCacheGeneratorP21CustomAttributesCache
rod:__ZL65__ManagedRegistrationHelperFunction_UnityWebRequestAsyncOperationPv
Iai:_IndexedSet_1__ctor_m2250384602_gshared
vwh:_DefaultComparer__ctor_m1306123661_gshared
JQh:_UInt16_TryParse_m4139137016
hEc:__Z41MonoBehaviour_Set_Custom_PropUseGUILayoutP12Il2CppObjecth
v7j:__ZN6il2cpp5utils13dynamic_arrayIPNS_2os6ThreadELj4EE9push_backEv
kna:__ZN9Scripting11UnityEngine15ResourceRequest12CleanupProxyEv
d7j:__ZN6il2cpp2gc16GarbageCollector9FreeFixedEPv
Mvg:_Encoding__ctor_m2997749867
Szf:_ManagedStreamHelpers_ManagedStreamSeek_m3158782053
wdj:_ExpressionAssertion_Compile_m2166597834
ynb:__ZN16ScriptingManagerD0Ev
Wqg:_Single_System_IConvertible_ToSByte_m1208276900_AdjustorThunk
ubk:__ZN6il2cpp6icalls8mscorlib6System7Convert24InternalFromBase64StringEP12Il2CppStringb
Lxh:_EqualityComparer_1__ctor_m2241711498_gshared
j4d:__ZL58ChannelServices_t3942013484_CustomAttributesCacheGeneratorP21CustomAttributesCache
I1j:__ZN30dense_hashtable_const_iteratorINSt3__24pairIK10KeyWrapperINS1_IPKcS4_EEEiEES6_24NamespaceAndNamePairHashN14dense_hash_mapIS6_iS9_NS6_14EqualsComparerI26NamespaceAndNamePairEqualsEENS0_9allocatorIS8_EEE9SelectKeyESD_SF_EppEv
JGc:__Z44Register_UnityEngine_Component_get_transformv
Lhe:__ZL81Camera_t4157153871_CustomAttributesCacheGenerator_Camera_GetAllCameras_m668492922P21CustomAttributesCache
PE:__ZN12_GLOBAL__N_120ProcessPlayableGraphERN8Animator11AnimatorJobER35AnimationPlayableEvaluationConstantR32AnimationPlayableEvaluationInputR33AnimationPlayableEvaluationOutputPFvS4_R17AnimationPlayableEPFvS4_S6_S8_EPFvS8_S4_S6_S8_fESE_MS9_FvPS3_PS5_PS7_E
Hvj:_CanvasRenderer_get_absoluteDepth_m2703237819
rPg:_TextInfo_ToLower_m2744057472
MUb:__ZN17ArchiveFileSystem12MountArchiveEPKcS1_
wCj:__ZN14dense_hash_mapI10KeyWrapperIP9FieldInfoEiN6il2cpp5utils11PointerHashIS1_EENS3_14EqualsComparerINSt3__28equal_toIS2_EEEENS9_9allocatorINS9_4pairIKS3_iEEEEE15set_deleted_keyERSF_
Gzh:_EqualityComparer_1_System_Collections_IEqualityComparer_Equals_m3977314386_gshared
iNc:__Z18Transfer_BlittableI9JSONWriteLb1E8Vector4fEvRK29SerializationCommandArgumentsR31RuntimeSerializationCommandInfo
M5:__Z11RequireTypePKcS0_S0_
xLg:_CCGregorianCalendar_year_from_fixed_m463929682
Nad:__ZN2UI13CanvasManagerD0Ev
Aig:_TlsServerHello_Update_m3935081401
fsf:_Debug_get_unityLogger_m2239795986
UWh:_ReadOnlyCollection_1_System_Collections_IEnumerable_GetEnumerator_m2123446296_gshared
Qbg:_MD2Managed_Initialize_m2341076836
q1h:_ReadOnlyCollection_1_System_Collections_IList_Add_m4240023232_gshared
Xib:__ZN9GfxDevice15ImmediateVertexEfff
Kke:__ZL56PreLateUpdate_t3194249939_CustomAttributesCacheGeneratorP21CustomAttributesCache
CVa:__ZNK16LightmapSettings22GetTypeVirtualInternalEv
TEa:__ZN16GraphicsSettings13AwakeFromLoadE17AwakeFromLoadMode
Wp:__ZN6Object13AwakeFromLoadE17AwakeFromLoadMode
cLb:__ZN13GfxDeviceGLES15SetStencilStateEPK18DeviceStencilStatei
UWg:__ZN28GenericInterfaceFuncInvoker3IiP22ByteU5BU5D_t4116647657iiE6InvokeEPK10MethodInfoP12Il2CppObjectS1_ii
PDg:_Buffer_BlockCopyInternal_m418318694
zmk:_cycle
wpe:__ZL138SupportedRenderingFeatures_t353898663_CustomAttributesCacheGenerator_SupportedRenderingFeatures_get_supportedLightmapBakeTypes_m1596512019P21CustomAttributesCache
kbk:__ZN6il2cpp2vm8Profiler7GCEventE13Il2CppGCEvent
qgi:__Z76RuntimeInvoker_Void_t1185182177_RuntimeObject_RuntimeFieldHandle_t1871169219PFvvEPK10MethodInfoPvPS4_
S6i:_PKCS12_Finalize_m507756088
Cd:_emscripten_glUniform1iv
Ilb:__ZN13ComputeShader14SetBufferParamEjRKN9ShaderLab16FastPropertyNameE15ComputeBufferIDb
kMh:_Thread_get_ManagedThreadId_m1068113671
Pfb:__ZN16MemoryFileSystemD2Ev
Hgi:__Z150RuntimeInvoker_Int32_t2950945753_RuntimeObject_Int32_t2950945753_Int32_t2950945753_RuntimeObject_Int32_t2950945753_Int32_t2950945753_Int32_t2950945753PFvvEPK10MethodInfoPvPS4_
QCg:_BitConverter_DoubleToInt64Bits_m3574395137
_$g:_DateTime_Parse_m3729096069
SOi:_List_1_System_Collections_IList_Add_m1540114404_gshared
eXe:_InternalEnumerator_1_System_Collections_IEnumerator_Reset_m81420524_AdjustorThunk
hFa:__ZN16GraphicsSettings27SetLightsUseLinearIntensityEb
eFc:__Z37Register_UnityEngine_Camera_get_depthv
eJf:_StackTraceUtility_ExtractStringFromExceptionInternal_m2686726792
Iwc:__ZZN8Renderer15InitializeClassEvEN32FunctorImpl_146kCullSceneChanged4CallEPviR11MessageData
XHe:_StringReader_Read_m3322058819
DQd:_CrossAppDomainChannel_get_ChannelPriority_m3418073750
Uwh:_EqualityComparer_1__ctor_m1860346363_gshared
TPf:_Selectable_StartColorTween_m3618813981
vsd:_BaseInputModule_HandlePointerExitAndEnter_m1705532066
DId:_EventInfo__ctor_m3033129999
apj:__ZL24UnresolvedVirtualCall_33P12Il2CppObjectiS0_S0_PK10MethodInfo
npc:__ZN15ApplicationInfo16GetInstallerNameEv
scc:__Z23ConvertIntegerToTypePtrItEbPvR14SafeBinaryRead
$8g:_Delegate_CombineImpl_m3572135514
Lxc:__Z13RegisterClassI15EditorExtensionEvPKc
oNe:_NumberFormatter_IntegerToString_m1679294587
gmg:_SHA256Managed_AddLength_m1060552216
z_h:_ReadOnlyCollection_1_System_Collections_IList_RemoveAt_m422909114_gshared
BF:__ZN7mecanim5human29HumanGetGoalOrientationOffsetENS0_4GoalE
Td:_emscripten_glStencilFunc
Boj:__ZL23UnresolvedVirtualCall_6P12Il2CppObjectiPK10MethodInfo
upj:__ZL24UnresolvedVirtualCall_53P12Il2CppObjectPK10MethodInfo
jjc:__ZN9ShaderLab20SerializedSubProgram14AddMatrixParamEPKcii15ShaderParamTypei
_d:_glGetActiveUniformBlockName
ize:__ZL90PointerEventData_t3807901092_CustomAttributesCacheGenerator_U3CpointerIdU3Ek__BackingFieldP21CustomAttributesCache
mei:__Z67RuntimeInvoker_Int32_t2950945753_RuntimeObject_Int32U26_t1369213839PFvvEPK10MethodInfoPvPS4_
Rdj:_Parser_IsIgnoreCase_m2210120858
ZGj:__ZN6il2cpp2vm13MetadataCache28GetGenericContainerFromIndexEi
p8a:__ZN27UnloadUnusedAssetsOperationD0Ev
jN:__ZN4FMOD7Channel20set3DConeOrientationEP11FMOD_VECTOR
mn:FUNCTION_TABLE_iiifii
UQe:_AssemblyBuilder_not_supported_m1735277432
s3e:_InternalEnumerator_1_MoveNext_m1344185775_AdjustorThunk
k5j:__ZN6il2cpp2vm12GenericClass11SetupEventsEP11Il2CppClass
VYc:_ft_open_face_internal
B4c:_tt_cmap12_get_info
S0j:__ZN6il2cpp2vm15ReboxIReferenceEP14Il2CppIUnknownP11Il2CppClass
SUh:_Collection_1_Contains_m1707523067_gshared
vEh:_Enumerator__ctor_m2029608698_AdjustorThunk
gxj:__ZN6il2cpp6icalls8mscorlib6System7Decimal14decimalCompareEP19il2cpp_decimal_reprS5_
Ihf:_Dictionary_2_OnDeserialization_m4209543208_gshared
Ubk:__ZThn4_N6il2cpp2vm13CachedCCWBaseINS0_13ManagedObjectEE7ReleaseEv
Pkg:_RNGCryptoServiceProvider_GetNonZeroBytes_m1918423726
Xpi:__Z100RuntimeInvoker_Void_t1185182177_RuntimeObject_Int32_t2950945753_Int32_t2950945753_UInt16_t2177724958PFvvEPK10MethodInfoPvPS4_
nxk:_glCopyTexImage2D__wrapper
P9d:__ZL62ArithmeticException_t4283546778_CustomAttributesCacheGeneratorP21CustomAttributesCache
cIb:__Z18ClearByDrawingQuad13GfxClearFlagsRK10ColorRGBAffjR17ShaderPassContext
Jha:__ZN6prcoreL17RemapGenericFloatI14TexFormatRHalf15TexFormatRFloatEEvPKNS_9InnerInfoE
o0c:_cf2_getBlueValues
_ji:__Z155RuntimeInvoker_Void_t1185182177_RuntimeObject_SByte_t1669577662_SByte_t1669577662_Int64U26_t200113976_ObjectU26_t2146539884_SerializationInfoU26_t419328957PFvvEPK10MethodInfoPvPS4_
pea:__ZN15DirectorManager21RebuildStageCallbacksEv
uIb:__ZN19RuntimeSceneManager9LoadSceneERKN4core12basic_stringIcNS0_20StringStorageDefaultIcEEEES6_S6_RK9UnityGUIDiNS_11LoadingModeE
hsf:_Application_Internal_ApplicationQuit_m2936209313
MNb:__ZN7ApiGLES10DrawArraysE16GfxPrimitiveTypejjj
dR:__ZN10SampleClip13LoadBaseSoundEv
zyg:_SmallXmlParser_SkipWhitespaces_m4243606597
rMg:_CompareInfo_IndexOf_m2631915198
irb:__ZN14SafeBinaryRead21TransferSTLStyleArrayI13dynamic_arrayI10Matrix4x4fLj0EEEEvRT_17TransferMetaFlags
MTd:_MethodCall__ctor_m3669645
rEg:_Byte_CompareTo_m4285128861
Otd:_TriggerEvent__ctor_m87299207
moi:__Z48RuntimeInvoker_ExchangeAlgorithmType_t1320888206PFvvEPK10MethodInfoPvPS4_
wrd:__ZN9Scripting11UnityEngine12Experimental27Internal_SubsystemInstances12CleanupProxyEv
zU:__Z57AudioSource_CUSTOM_INTERNAL_CALL_ClearExtensionPropertiesP12Il2CppObjectRK12PropertyName
d5j:__ZN15dense_hashtableINSt3__24pairIK10KeyWrapperIP12Il2CppObjectEN6il2cpp2gc9CachedCCWEEES5_NS7_5utils11PointerHashIS3_EEN14dense_hash_mapIS5_S9_SD_NS5_14EqualsComparerINS0_8equal_toIS4_EEEENS0_9allocatorISA_EEE9SelectKeyESI_SK_E15insert_noresizeERKSA_
deg:_CertificateValidationCallback2__ctor_m1685875113
Vwh:_EqualityComparer_1__cctor_m3962593840_gshared
VNa:__ZN22DeviceMVPMatricesStateC2ER9GfxDevice
vkg:_SslClientStream_Finalize_m1251363641
fZb:__ZNK6Camera32ResolveLastTargetToCurrentTargetEv
Ezf:_Logger_set_logEnabled_m1180597166
LIg:_Comparer_Compare_m3984347512
TSj:__ZN6il2cpp2vm10Reflection12HasAttributeEP9FieldInfoP11Il2CppClass
lpa:__ZN9Scripting11UnityEngine12Experimental9Rendering11CullResults9InitProxyEv
ec:invoke_viiifi
$rc:__Z13RegisterClassI6SpriteEvPKc
bMd:_MonoProperty_GetCustomAttributes_m3619796755
WKj:__ZNSt3__214__split_bufferIP11Il2CppClassRNS_9allocatorIS2_EEEC2EjjS5_
RUd:_MethodDictionary_System_Collections_IEnumerable_GetEnumerator_m4169036899
Eyg:__ZN23InterfaceActionInvoker2IP8String_tP12Il2CppObjectE6InvokeEjP11Il2CppClassS3_S1_S3_
P1h:_ReadOnlyCollection_1_System_Collections_Generic_IListU3CTU3E_get_Item_m3666607533_gshared
_Nh:_TimeSpan_Subtract_m1264203589
pQd:_CrossContextChannel__ctor_m3755842292
$uh:_DefaultComparer_Equals_m3257444875_gshared
hf:_JS_Sound_SetPosition
NIa:__ZN19RenderBufferManager13GetTempBufferEii17DepthBufferFormat19RenderTextureFormatj22RenderTextureReadWrite14VRTextureUsagei23RenderTextureMemoryless
KGj:__ZL13GetSharedInstPK17Il2CppGenericInst
Mze:__ZL98PointerEventData_t3807901092_CustomAttributesCacheGenerator_PointerEventData_get_delta_m1062010255P21CustomAttributesCache
VDa:__Z27ConvertSubMeshesToTrianglesIjEvR13dynamic_arrayI7SubMeshLj0EERS0_IhLj0EE
pjd:__ZN22BaseUnityConnectClient17SaveSessionValuesEv
GYe:_InternalEnumerator_1_get_Current_m476140818_gshared
vQi:_List_1_Sort_m4240158523_gshared
rMf:_WaitForEndOfFrame__ctor_m1381314187
E3b:__Z24SetupActiveLightsContextR21ActiveLightingContextRK12ActiveLightsRK11CullResultsP14ShadowMapCacheRK10MinMaxAABB
Fxd:_AnimationTriggers_set_disabledTrigger_m933056574
mlc:__Z38Sprite_CUSTOM_INTERNAL_get_textureRectP12Il2CppObjectP5RectTIfE
FRj:__ZNK15dense_hashtableINSt3__24pairIK10KeyWrapperIPK22Il2CppGenericParameterEPK24MonoGenericParameterInfoEES6_N6il2cpp5utils11PointerHashIS4_EEN14dense_hash_mapIS6_SA_SF_NS6_14EqualsComparerINS0_8equal_toIS5_EEEENS0_9allocatorISB_EEE9SelectKeyESK_SM_E3endEv
kNi:_List_1_Add_m238442097_gshared
xnc:__ZN9TextAsset7SetTextERKN4core12basic_stringIcNS0_20StringStorageDefaultIcEEEE
Nya:__ZN6Camera8TransferI24GenerateTypeTreeTransferEEvRT_
Jsj:__ZL25UnresolvedVirtualCall_230P12Il2CppObjectPK10MethodInfo
Ga:invoke_iiiiiiif
Ea:invoke_iiiiiiii
uFi:_Array_InternalArray__set_Item_TisByte_t1134296376_m3104140039_gshared
CEc:__Z56Register_UnityEngine_MonoBehaviour_IsObjectMonoBehaviourv
AGf:_Rect_ToString_m447614148
d7i:_PKCS12_GetBytes_m415958948
pgg:_Context_get_HandshakeState_m2425796590
sXb:__ZN8Renderer17PendingAddToSceneEv
OUh:_Collection_1_System_Collections_IList_set_Item_m2625856224_gshared
jBk:b122
uBk:b125
qBk:b124
vBk:b126
Ylc:__Z52Register_UnityEngine_RectTransform_INTERNAL_get_rectv
bBf:_Mesh_SetSizedArrayForChannel_m2565120436
w5:__Z21PostprocessStacktracePKcRN4core12basic_stringIcNS1_20StringStorageDefaultIcEEEE
Tzf:_ManagedStreamHelpers_ManagedStreamLength_m2930872960
Ilc:__Z43RectTransform_CUSTOM_INTERNAL_get_anchorMinP12Il2CppObjectP13Vector2fIcall
P5i:_BasicConstraintsExtension_Encode_m2009213240
Goc:__Z47Register_UnityEngine_Camera_get_allCamerasCountv
fzd:___clang_call_terminate
tjd:__ZN22BaseUnityConnectClient20StartEventDispatcherEv
OAc:__ZNSt3__26vectorIj13stl_allocatorIjL18MemLabelIdentifier1ELi16EEE6assignIPKtEENS_9enable_ifIXaasr21__is_forward_iteratorIT_EE5valuesr16is_constructibleIjNS_15iterator_traitsIS9_E9referenceEEE5valueEvE4typeES9_S9_
eE:__ZN7mecanim9animation16EvaluateAvatarIKEPKNS0_14AvatarConstantEPKNS0_11AvatarInputEPNS0_12AvatarOutputEPNS0_12AvatarMemoryEPNS0_15AvatarWorkspaceEb
uA:__ZN26AnimatorControllerPlayable10GetIntegerEiRi
jCc:__Z12Base64EncodePKhjRN4core12basic_stringIcNS1_20StringStorageDefaultIcEEEEiRKS5_
Lbc:__Z29StdTemplateConversionFunctionIsiEbPvR14SafeBinaryRead
EWb:__ZN12InputManager13InputEndFrameEv
hKj:__ZNSt3__26__treeIP11Il2CppClassNS_4lessIS2_EENS_9allocatorIS2_EEE25__emplace_unique_key_argsIS2_JRKS2_EEENS_4pairINS_15__tree_iteratorIS2_PNS_11__tree_nodeIS2_PvEEiEEbEERKT_DpOT0_
qBf:_Object_get_name_m4211327027
AWj:__ZN6il2cpp2vm6Thread5SetupEP12Il2CppThread
d8j:__ZNSt3__26vectorIN6il2cpp2os10ThreadImpl10APCRequestENS_9allocatorIS4_EEE21__push_back_slow_pathIS4_EEvOT_
jYh:_ReadOnlyCollection_1_System_Collections_IList_get_IsReadOnly_m1248651675_gshared
Z9e:_Enumerator_System_Collections_IDictionaryEnumerator_get_Key_m2500634048_gshared
ePg:_SortKey_Compare_m1705990888
uyj:_NativeNameAttribute__ctor_m3296876808
Utj:_TextGenerator_t3211863866_marshal_pinvoke_back
Enk:___munmap
$f:_localtime_r
TXb:__ZN22RenderingCommandBuffer13GetAndCheckRTE24BuiltinRenderTextureTypeRKN9ShaderLab16FastPropertyNameEPKcPP13RenderTexture
mPd:_InterfaceTypeAttribute__ctor_m3307583035
C$e:_InternalEnumerator_1_System_Collections_IEnumerator_Reset_m3619766341_AdjustorThunk
a1:__Z19free_alloc_internalPv10MemLabelId
a5d:__ZL56ReturnMessage_t1376985608_CustomAttributesCacheGeneratorP21CustomAttributesCache
ot:__ZN9Scripting11UnityEngine10Animations18PositionConstraint9InitProxyEv
cg:_strftime
cJa:__ZN7Texture33SetStoredColorSpaceNoDirtyNoApplyE17TextureColorSpace
gOd:_ResourceSet__ctor_m3618395942
K7g:_Decimal_System_IConvertible_ToDouble_m3125524987_AdjustorThunk
jaa:__ZN12FileAccessorD2Ev
Qya:__ZN10ColorRGBAf8TransferI18StreamedBinaryReadILb0EEEEvRT_
iEa:__ZN14VertexDataInfoC2Ev
P6j:__ZN6il2cpp2gc16GarbageCollector14CollectALittleEv
Wpe:__ZL87Sprite_t280657092_CustomAttributesCacheGenerator_Sprite_INTERNAL_get_border_m3728071101P21CustomAttributesCache
ozc:__ZNK9HPlayable15GetPlayableTypeEv
gBi:__Z117RuntimeInvoker_Void_t1185182177_CustomAttributeTypedArgumentU5BU5DU26_t2503877664_Int32_t2950945753_Int32_t2950945753PFvvEPK10MethodInfoPvPS4_
szb:__ZL17Transfer_GUIStyleI18StreamedBinaryReadILb1EELb1EEvRK29SerializationCommandArgumentsR31RuntimeSerializationCommandInfo
hUf:_RectMask2D_IsRaycastLocationValid_m1652308696
z3:__ZNSt3__26__treeINS_12__value_typeIPKciEENS_19__map_value_compareIS3_S4_15compare_tstringIS3_ELb1EEENS_9allocatorIS4_EEE21__emplace_unique_implIJNS_4pairIPciEEEEENSD_INS_15__tree_iteratorIS4_PNS_11__tree_nodeIS4_PvEEiEEbEEDpOT_
CKj:__ZN6il2cpp6icalls8mscorlib6SystemL9IsPrivateEPK12PropertyInfo
m7i:_X501_ToString_m1148552872
pHf:_RectTransform_add_reapplyDrivenProperties_m1374850920
K4:__ZN9shadertag10InitializeEv
Lxi:__Z69RuntimeInvoker_Void_t1185182177_Int32_t2950945753_Color32_t2600501292PFvvEPK10MethodInfoPvPS4_
GVc:__GLOBAL__sub_I_Modules_Terrain_Public_1_cpp
ITa:__ZN15QualitySettings14QualitySetting8TransferI24GenerateTypeTreeTransferEEvRT_
Yhk:__ZN6il2cpp5utils6Memory11AlignedFreeEPv
ssj:__ZL25UnresolvedVirtualCall_213P12Il2CppObjectS0_aPK10MethodInfo
Xeg:_Context_get_ClientWriteKey_m3174706656
Mye:__ZL77ExecuteEvents_t3484638744_CustomAttributesCacheGenerator_U3CU3Ef__mgU24cache7P21CustomAttributesCache
ANf:_InputField_get_textComponent_m948764648
wGc:__Z44Register_UnityEngine_Object_DestroyImmediatev
YTc:__ZL34CleanupModule_PerformanceReportingv
p3g:_Convert_ToSingle_m835189399
Gkc:__ZN22BlockMemoryCacheWriter14LockCacheBlockEjPPhS1_
lJc:__ZNSt3__218__insertion_sort_3IRPFbPKN5IMGUI9GUIWindowES4_EPPS2_EEvT0_SA_T_
epf:_CryptographicUnexpectedOperationException__ctor_m69881930
v7d:__ZL73TripleDESCryptoServiceProvider_t3595206342_CustomAttributesCacheGeneratorP21CustomAttributesCache
CYi:_Collection_1_SetItem_m1218178236_gshared
DSh:_UInt64_ToString_m2177233542
Ks:__ZN9Scripting11UnityEngine21StateMachineBehaviour9InitProxyEv
VQc:__Z22TransferField_NonArrayI8JSONRead27Converter_SimpleNativeClassI8GUIStyleEEvRK23StaticTransferFieldInfoR31RuntimeSerializationCommandInfoRT0_
Vpa:__ZN9Scripting11UnityEngine26ExcludeFromPresetAttribute9InitProxyEv
Jg:_llvm_eh_typeid_for
Gue:__ZL79Event_t2956885303_CustomAttributesCacheGenerator_Event_get_modifiers_m995073384P21CustomAttributesCache
Vjf:_RemotingServices_FindInterfaceMethod_m2125212568
GB:__ZNK23AnimationPlayableOutput7GetTypeEv
ZYg:_StreamWriter__cctor_m1229272693
Oah:_Enum_System_IConvertible_ToSByte_m779472798
FOh:_Type_get_IsInterface_m3284996719
zYe:_InternalEnumerator_1_MoveNext_m1543390728_gshared
JBb:__Z18Transfer_BlittableI18StreamedBinaryReadILb0EELb1E8Vector4fEvRK29SerializationCommandArgumentsR31RuntimeSerializationCommandInfo
Zpb:__ZNSt3__26vectorI17ScriptingFieldPtr13stl_allocatorIS1_L18MemLabelIdentifier1ELi16EEE21__push_back_slow_pathIRKS1_EEvOT_
fPg:_SortKey_get_OriginalString_m1428586816
Pxi:__Z51RuntimeInvoker_Void_t1185182177_Vector4_t3319028937PFvvEPK10MethodInfoPvPS4_
ZWc:__ZN14SafeBinaryRead21TransferSTLStyleArrayI13dynamic_arrayIN4core17string_with_labelILi35EEELj0EEEEvRT_17TransferMetaFlags
brj:__ZL25UnresolvedVirtualCall_142P12Il2CppObject17Color_t2555686324faaaPK10MethodInfo
ugi:__Z67RuntimeInvoker_Void_t1185182177_SByte_t1669577662_SByte_t1669577662PFvvEPK10MethodInfoPvPS4_
Muh:_Dictionary_2_U3CCopyToU3Em__0_m2023886030_gshared
dyi:__Z64RuntimeInvoker_Boolean_t97287965_RefEmitPermissionSet_t484390987PFvvEPK10MethodInfoPvPS4_
Kzk:_glBindVertexArray__wrapper
Qlf:_SerializationInfo__ctor_m2923079689
lMa:__ZN8Material8TransferI14SafeBinaryReadEEvRT_
CQa:__ZN12CubemapArray17UploadToGfxDeviceEv
M4h:_Func_2__ctor_m1150804732_gshared
hRg:_Int32_JumpOverWhite_m208298144
BCj:__ZN15dense_hashtableINSt3__24pairIK10KeyWrapperIP9FieldInfoEiEES5_N6il2cpp5utils11PointerHashIS3_EEN14dense_hash_mapIS5_iSB_NS5_14EqualsComparerINS0_8equal_toIS4_EEEENS0_9allocatorIS7_EEE9SelectKeyESG_SI_E4swapERSL_
Gzi:__Z53RuntimeInvoker_Int32_t2950945753_UIVertex_t4057497605PFvvEPK10MethodInfoPvPS4_
Lyk:_emscripten_glGetUniformiv__wrapper
Nbk:__ZN6il2cpp2vm13ManagedObject14QueryInterfaceERK10Il2CppGuidPPv
SN:__ZN11AudioSource4StopEb
gmk:_frexp
jnk:_fscanf
wgk:__ZN6il2cpp2os14WindowsRuntime13DeleteHStringEP15Il2CppHString__
_mb:__ZN18GlslGpuProgramGLESD2Ev
U9b:__ZN13RenderTexture14SetVolumeDepthEi
FY:__ZN11UnityEngine15CloudWebService14DataErrorEvent12ToJsonStringERN4core12basic_stringIcNS2_20StringStorageDefaultIcEEEEjPKc
npi:__Z86RuntimeInvoker_Void_t1185182177_UInt16_t2177724958_SByte_t1669577662_SByte_t1669577662PFvvEPK10MethodInfoPvPS4_
Yic:__Z22LoadGpuProgramFromDataPKhS0_Rj
zRc:__ZN10Matrix4x4f8TransferI8JSONReadEEvRT_
TTf:_PositionAsUV1_ModifyMesh_m4231919476
NJg:_Hashtable__ctor_m1941859523
Y0b:__Z26FindForwardLightsForObjectR13dynamic_arrayIhLj0EEPK11CulledLightjRK12ActiveLightsRK10RenderNodePK19ShaderPropertySheetbRK23FindForwardLightsParamsf
Xla:__ZL44__ManagedRegistrationHelperFunction_GPUFencePv
NWf:_ScrollRect_set_horizontalScrollbarSpacing_m2209919081
PRb:__ZN25TransformFeedbackSkinning31CleanupTransformFeedbackShadersEv
bPh:_Type_GetTypeCodeInternal_m1968182887
uza:__Z22scripting_object_unbox18ScriptingObjectPtr
KOd:_CriticalFinalizerObject__ctor_m3245424448
BTd:_AsyncResult_get_NextSink_m1844209137
cYc:__ZNK20TextRenderingPrivate8FontImpl19GetCharacterAdvanceEjijfPj
bjh:_Array_InternalArray__ICollection_Add_TisUriScheme_t722425697_m3142345403_gshared
amk:_fmt_u
ZIi:_Dictionary_2_Do_CopyTo_TisDictionaryEntry_t3123975638_TisDictionaryEntry_t3123975638_m1126292988_gshared
KXa:__ZN10VertexData8TransferI18StreamedBinaryReadILb0EEEEvRT_
dkk:__ZN6il2cpp8metadata25Il2CppGenericClassCompare7CompareEPK18Il2CppGenericClassS4_
KLe:_MonoType_get_Assembly_m4290914179
Hjc:__ZN9ShaderLab7ProgramC2E10MemLabelIdi10ShaderType
Bra:__ZN9Scripting5Unity11Collections8LowLevel6Unsafe29NativeSetThreadIndexAttribute9InitProxyEv
wxa:__ZN12BaseRendererD2Ev
wnc:__ZNSt3__26vectorI4PPtrI10MonoScriptE13stl_allocatorIS3_L18MemLabelIdentifier79ELi16EEE6insertENS_11__wrap_iterIPKS3_EERS9_
Xsg:_String_LastIndexOf_m95398196
qGi:_Array_InternalArray__set_Item_TisUILineInfo_t4195266810_m2313892078_gshared
U2e:_InternalEnumerator_1_System_Collections_IEnumerator_Reset_m3355902602_AdjustorThunk
MDf:_PlayableAsset__ctor_m2395156306
kAe:__ZL79StandaloneInputModule_t2760469101_CustomAttributesCacheGenerator_m_SubmitButtonP21CustomAttributesCache
m3:__ZN13RuntimeStaticI13dynamic_arrayI22RenderingExtPluginDescLj0EELb0EE13StaticDestroyEPv
pdc:__ZNK21UnityDefaultAllocatorI17LowLevelAllocatorE8ContainsEPKv
TIj:__ZNSt3__213__vector_baseI6pollfdNS_9allocatorIS1_EEED2Ev
Cnf:_RuntimeTypeHandle_Equals_m2857439487
Th:_emscripten_get_main_loop_timing
DPd:_SafeHandle_Finalize_m3866180675
HTa:__ZN24GenerateTypeTreeTransfer21TransferSTLStyleArrayINSt3__26vectorIN15QualitySettings14QualitySettingENS1_9allocatorIS4_EEEEEEvRT_17TransferMetaFlags
GXg:_MemoryStream_ToArray_m3911744835
y9e:_Enumerator_System_Collections_IDictionaryEnumerator_get_Entry_m859540448_AdjustorThunk
gwi:__Z72RuntimeInvoker_Boolean_t97287965_RaycastHitU26_t2429360258_RuntimeObjectPFvvEPK10MethodInfoPvPS4_
g9b:__ZN23ManagedAttributeManager52CallManagedGetParentTypeDisallowingMultipleInclusionE17ScriptingClassPtr
I1a:__Z10AddGUIAxesR13dynamic_arrayI9InputAxisLj0EE
Rjk:__ZN6il2cpp2os5Event4WaitEjb
iPh:_Type_GetHashCode_m1947148725
wki:__Z91RuntimeInvoker_Void_t1185182177_RuntimeObject_RuntimeObject_RuntimeObject_SByte_t1669577662PFvvEPK10MethodInfoPvPS4_
L9a:__ZNK2UI13RectTransform22GetTypeVirtualInternalEv
Ndf:__ZN28GenericInterfaceFuncInvoker2IP12Il2CppObjectS1_bE6InvokeEPK10MethodInfoS1_S1_b
cp:getTempRet0
zpg:_StrongName_get_Version_m4243032012
R$e:_InternalEnumerator_1_MoveNext_m2234422530_gshared
bMj:__ZN6il2cpp2gc19AppendOnlyGCHashMapINSt3__24pairIPK14Il2CppAssemblyP11Il2CppClassEEP24Il2CppReflectionAssembly17ReflectionMapHashIS9_ENS2_8equal_toIS9_EEE10CopyValuesEPv
Psd:_BaseRaycaster_OnEnable_m2678466030
txf:_UnityEventBase__ctor_m1851535676
vIi:_Array_Sort_TisVector4_t3319028937_m2797285308_gshared
Ohg:_HandshakeMessage_Update_m2417837686
Gle:__ZL58ProfilerEndFrame_t852348665_CustomAttributesCacheGeneratorP21CustomAttributesCache
wZj:__ZN6il2cpp6icalls8mscorlib6System9ThreadingL21lookup_cached_cultureEP12Il2CppThreadi
Qwf:_NetFxCoreExtensions_CreateDelegate_m751211712
B4b:__ZN18DeferredRenderLoopD2Ev
jwj:_AnimationLayerMixerPlayable__cctor_m4086299972
usa:__ZNK16TypeTreeIterator4NameEv
OIi:_Array_swap_TisUICharInfo_t75501106_m3934244159_gshared
SXd:__ZL40UIntPtr_t_CustomAttributesCacheGeneratorP21CustomAttributesCache
J9:__ZN15FileSystemEntry3SetEPKc
pRe:_ConstructorBuilder_Invoke_m3010446651
Hxd:_AspectRatioFitter_get_aspectMode_m3735191157
Apc:__Z52Register_UnityEngine_Application_set_targetFrameRatev
v1f:_IPv6Address_set_ScopeId_m3907190992
pXh:_ReadOnlyCollection_1_System_Collections_Generic_IListU3CTU3E_Insert_m568455025_gshared
SM:__ZN20SoundChannelInstance15ParameterBuffer5ApplyEPN4FMOD7ChannelE
j1f:_IPv6Address__ctor_m4117281080
L2g:_Convert_ToInt64_m2075293963
$Xc:__ZN20TextRenderingPrivate19NativeTextGenerator9InsertTabEv
tqk:_sbrk
U2d:__ZL92ResourceSet_t2827911187_CustomAttributesCacheGenerator_ResourceSet_GetEnumerator_m3459697719P21CustomAttributesCache
L_i:_Collection_1_System_Collections_Generic_ICollectionU3CTU3E_get_IsReadOnly_m1032650589_gshared
VK:__ZL49__ManagedRegistrationHelperFunction_AudioSettingsPv
Pkd:__ZN11UnityEngine15PlatformWrapper24GetRuntimePlatformStringEv
Di:_glIsEnabled
$8a:__ZN15CacheWriterBaseD2Ev
ZQe:_DerivedType__ctor_m1853298054
Wpb:__Z25scripting_class_get_image17ScriptingClassPtr
Xpg:_SecurityException__ctor_m836898292
THh:_List_1_RemoveAt_m2730968292_gshared
q4a:__ZNSt3__26vectorIN4core12basic_stringIcNS1_20StringStorageDefaultIcEEEE13stl_allocatorIS5_L18MemLabelIdentifier13ELi16EEEC2INS_11__wrap_iterIPS5_EEEET_SE_RKS8_PNS_9enable_ifIXaasr21__is_forward_iteratorISE_EE5valuesr16is_constructibleIS5_NS_15iterator_traitsISE_E9referenceEEE5valueEvE4typeE
Hi:_emscripten_glDrawElementsInstanced
qA:__ZN26AnimatorControllerPlayable27SetupStateMachineBehavioursEv
bfh:_Array_InternalArray__IEnumerable_GetEnumerator_TisSlot_t3975888750_m1869932007_gshared
Dhe:__ZL79Camera_t4157153871_CustomAttributesCacheGenerator_Camera_RaycastTry_m3913529496P21CustomAttributesCache
fRf:_LayoutGroup_get_preferredWidth_m3816902260
UHa:__ZN18JobBatchDispatcherD2Ev
G9a:__ZN9Transform17MainThreadCleanupEv
Bek:_GC_clear_hdr_marks
FAk:_emscripten_glCreateShader__wrapper
G_c:_cff_fd_select_get
VZf:_Text_set_resizeTextForBestFit_m4095249125
s3f:_OidEnumerator_MoveNext_m3138911739
pyi:__Z53RuntimeInvoker_Boolean_t97287965_Keyframe_t4206410242PFvvEPK10MethodInfoPvPS4_
Si:_emscripten_glGetShaderiv
jO:__ZN4FMOD6System10getVersionEPj
Gbd:__ZN2UI6Canvas23VirtualRedirectTransferER24GenerateTypeTreeTransfer
cYf:_Selectable_set_animationTriggers_m2970345687
P1i:_Collection_1_CopyTo_m4271769704_gshared
bPc:__ZN9JSONWrite8TransferIN4math12int2_storageEEEvRT_PKc17TransferMetaFlags
LWc:__ZN13TextRendering4Font13AwakeFromLoadE17AwakeFromLoadMode
xMg:_CompareInfo_LastIndexOf_m2688553706
Cah:_Enum__ctor_m3602080049
Uhb:__ZN9GfxDevice21ReleaseSharedMeshDataEP14SharedMeshData
Fvd:_MouseState__ctor_m1467839005
Hej:_Uri_IsDomainAddress_m2867513594
r3a:__ZNSt3__27__sort5IRNS_6__lessINS_4pairIPKN5Unity4TypeE7Hash128EES8_EEPS8_EEjT0_SC_SC_SC_SC_T_
oae:__ZL79Convert_t2465617642_CustomAttributesCacheGenerator_Convert_ToDouble_m2949593046P21CustomAttributesCache
FCd:_Dropdown_CreateItem_m2954407740
Ghh:_Array_InternalArray__IndexOf_TisSingle_t1397266774_m2563096608_gshared
Idk:_GC_unreachable_finalize_mark_proc
vEf:_PlayerConnectionInternal_PollInternal_m3759016321
P4f:_X509Chain_ProcessCrlExtensions_m236234529
efk:_maybe_finalize
mBj:__ZN6il2cpp2vm5Class40GetInterfaceInvokeDataFromVTableSlowPathEPK12Il2CppObjectPK11Il2CppClassj
ODe:__ZL85ScrollRect_t4137855814_CustomAttributesCacheGenerator_m_HorizontalScrollbarVisibilityP21CustomAttributesCache
Llc:__Z43RectTransform_CUSTOM_INTERNAL_get_anchorMaxP12Il2CppObjectP13Vector2fIcall
ouj:_TextGenerator_INTERNAL_CALL_Populate_Internal_cpp_m4171649399
fjf:_RealProxy_get_ObjectIdentity_m2790771985
Cjf:_RemotingConfiguration_RegisterChannelTemplate_m3105688054
c1g:_Decimal_Parse_m942471224
TBa:__ZN8Material28UpdateHashesOnPropertyChangeEN9ShaderLab16FastPropertyNameE
DZi:_Collection_1_System_Collections_IList_get_Item_m1368877441_gshared
h9f:_Locale_GetText_m3520169047
voc:__Z53Register_UnityEngine_SortingLayer_GetLayerValueFromIDv
$ag:_ASN1_GetBytes_m1968380955
eme:__ZL85RectOffset_t1369453676_CustomAttributesCacheGenerator_RectOffset_set_right_m807318764P21CustomAttributesCache
Pob:__Z18Transfer_BlittableI14SafeBinaryReadLb1E8Vector4fEvRK29SerializationCommandArgumentsR31RuntimeSerializationCommandInfo
xqd:__ZN13RuntimeStaticINSt3__26vectorI23UnityVRDeviceDefinition13stl_allocatorIS2_L18MemLabelIdentifier90ELi16EEEELb0EE13StaticDestroyEPv
rQ:__ZN11AudioSource12AddToManagerEv
Xu:__ZN8Animator23VirtualRedirectTransferER19StreamedBinaryWriteILb0EE
aC:__ZN11UnityEngine9Animation32CreateAnimatorGenericBindingsOptERKNS0_20AnimationSetBindingsER9TransformPKN7mecanim9animation14AvatarConstantEPKNS0_21AvatarBindingConstantEbRNS6_6memory9AllocatorER8Animator
N2h:_ReadOnlyCollection_1_get_Count_m3746330764_gshared
N1j:__ZN6il2cpp2vm5Image13ClassFromNameEPK11Il2CppImagePKcS6_
Yqk:dynCall_vdddddd
ehc:__ZN24GenerateTypeTreeTransfer21TransferSTLStyleArrayINSt3__26vectorIN9ShaderLab14SerializedPassENS1_9allocatorIS4_EEEEEEvRT_17TransferMetaFlags
k5:__ZL32MarkLevelGameManagerDependenciesR27GarbageCollectorThreadState
UMb:__ZNK13GfxDeviceGLES26HasActiveRandomWriteTargetEv
Cqj:__ZL25UnresolvedVirtualCall_115P12Il2CppObjectsaaaPK10MethodInfo
NZd:__ZL54_MemberInfo_t3922476713_CustomAttributesCacheGeneratorP21CustomAttributesCache
Avk:_glGetActiveUniformsiv__wrapper
zMa:__ZN14SafeBinaryRead8TransferINSt3__24pairIN9ShaderLab16FastPropertyNameE10ColorRGBAfEEEEvRT_PKc17TransferMetaFlags
vBf:_Mesh_GetIndices_m2873123901
F7:__ZN13MonoBehaviour19SetupScriptingCacheE17ScriptingClassPtrP10MonoScript
kJj:__ZNSt3__214__split_bufferIP12Il2CppThreadRNS_9allocatorIS2_EEED2Ev
jF:__Z20AnimationEventToMonoRK14AnimationEventR18MonoAnimationEvent
Hwc:__ZZN8Renderer15InitializeClassEvEN28FunctorImpl_145kLayerChanged4CallEPviR11MessageData
RAd:_FloatTween_set_targetValue_m3604919944_AdjustorThunk
iGg:_ArrayList_get_IsReadOnly_m913775115
tvd:_PointerEventData_get_dragging_m746831934
UOh:_Type_get_TypeHandle_m160082026
p1h:_ReadOnlyCollection_1_System_Collections_IEnumerable_GetEnumerator_m2781605075_gshared
epa:__ZN9Scripting11UnityEngine12Experimental9Rendering15ShadowSplitData12CleanupProxyEv
$da:__ZZN15DirectorManager15InitializeClassEvEN52PreLateUpdateDirectorUpdateAnimationBeginRegistrator7ForwardEv
Nbh:_Array_get_swapper_TisCustomAttributeNamedArgument_t287865710_m4254011335_gshared
JEd:_Graphic_RegisterDirtyMaterialCallback_m106898453
Tgj:_GUILayoutEntry_get_margin_m3174861737
Yta:__ZN4PPtrI6SpriteE8TransferI14SafeBinaryReadEEvRT_
kxh:_EqualityComparer_1_System_Collections_IEqualityComparer_Equals_m1672604045_gshared
MYi:_Collection_1_System_Collections_IList_Add_m2739652888_gshared
GXj:__ZN15dense_hashtableINSt3__24pairIK10KeyWrapperIP11Il2CppClassES4_EES5_N6il2cpp8metadata16SZArrayClassHashEN14dense_hash_mapIS5_S4_SA_NS5_14EqualsComparerINS9_19SZArrayClassCompareEEENS0_9allocatorIS7_EEE9SelectKeyESE_SG_E16reset_thresholdsEv
dSi:_List_1_GetEnumerator_m2095602005_gshared
p1j:__ZNK15dense_hashtableINSt3__24pairIK10KeyWrapperINS1_IPKcS4_EEEiEES6_24NamespaceAndNamePairHashN14dense_hash_mapIS6_iS9_NS6_14EqualsComparerI26NamespaceAndNamePairEqualsEENS0_9allocatorIS8_EEE9SelectKeyESD_SF_E13find_positionERS7_
vgc:__ZNSt3__26vectorIN9ShaderLab14SerializedPassENS_9allocatorIS2_EEE8__appendEj
Kfc:__ZNSt3__26vectorIN9ShaderLab20SerializedSubProgram13BufferBindingENS_9allocatorIS3_EEEC2INS_11__wrap_iterIPS3_EEEET_SB_RKS5_PNS_9enable_ifIXaasr21__is_forward_iteratorISB_EE5valuesr16is_constructibleIS3_NS_15iterator_traitsISB_E9referenceEEE5valueEvE4typeE
TDi:__Z37RuntimeInvoker_Enumerator_t3436819725PFvvEPK10MethodInfoPvPS4_
jEf:_PlayableOutputHandle_op_Equality_m388301694
Qtg:_Encoding_get_ISOLatin1_m2107621369
oag:_BigInteger_op_Inequality_m2697143438
Rie:__ZL89Mathf_t3464937446_CustomAttributesCacheGenerator_Mathf_SmoothDamp_m394423605____maxSpeed4P21CustomAttributesCache
MXd:__ZL72IntPtr_t_CustomAttributesCacheGenerator_IntPtr_op_Inequality_m3063970704P21CustomAttributesCache
hGb:__ZNK25PathNamePersistentManager30PathIDToFileIdentifierInternalEi
NSa:__ZN9Texture2D23VirtualRedirectTransferER18StreamedBinaryReadILb0EE
c5g:_DateTime_System_IConvertible_ToDouble_m2116720007_AdjustorThunk
AIg:_BitArrayEnumerator__ctor_m2359341397
xDh:_Enumerator_MoveNext_m1177880931_gshared
vQa:__ZNK12CubemapArray12GetDataWidthEv
e6e:_DefaultComparer__ctor_m3288720761_gshared
Wyi:__Z102RuntimeInvoker_Int32_t2950945753_RuntimeObject_Vector2_t2156229523_Int32_t2950945753_Int32_t2950945753PFvvEPK10MethodInfoPvPS4_
mCj:__ZN30dense_hashtable_const_iteratorINSt3__24pairIK10KeyWrapperIPKcEP11Il2CppClassEES5_N6il2cpp5utils11StringUtils12StringHasherIS4_EEN14dense_hash_mapIS5_S8_SE_NS5_14EqualsComparerINSB_13VmStringUtils21CaseSensitiveComparerEEENS0_9allocatorIS9_EEE9SelectKeyESJ_SL_E30advance_past_empty_and_deletedEv
rse:__ZL73g_UnityEngine_TextRenderingModule_Assembly_CustomAttributesCacheGeneratorP21CustomAttributesCache
k8:__ZN16ScriptingManager27NativeTypeForScriptingClassE17ScriptingClassPtr
TRh:_UInt64_System_IConvertible_ToDateTime_m3434604642
POh:_Type_get_IsSerializable_m1040556850
n3c:_get_sfnt_table
rHi:_Array_Resize_TisUIVertex_t4057497605_m1219201596_gshared
N0d:__ZL55StreamWriter_t1266378904_CustomAttributesCacheGeneratorP21CustomAttributesCache
hbj:_Parser_ResolveReferences_m1518052352
GNb:__ZThn10632_N13GfxDeviceGLES25SetStereoConstantPlatformEijRK8Vector4f
xUa:__ZN8Renderer20RendererAddedToSceneEv
d6b:__ZL22ScheduleSceneNodesJobsP25ScheduleSceneNodesJobDataj
Kk:_emscripten_set_canvas_size
fNa:__ZN18StreamedBinaryReadILb0EE19TransferSTLStyleMapINSt3__23mapIN9ShaderLab16FastPropertyNameEfNS2_4lessIS5_EENS2_9allocatorINS2_4pairIKS5_fEEEEEEEEvRT_17TransferMetaFlags
NDd:_Graphic_SetVerticesDirty_m2124914069
AMg:_CultureInfo__ctor_m3285927757
WSf:_MaskableGraphic_get_rootCanvasRect_m3492154629
_Oc:__ZN9JSONWrite8TransferI13dynamic_arrayI11QuaternionfLj0EEEEvRT_PKc17TransferMetaFlags
iUc:__ZN9Scripting11UnityEngine9Physics2D9InitProxyEv
mHi:_Array_Resize_TisRaycastResult_t3360306849_m1811054291_gshared
avc:__ZN12MeshRenderer27PrepareSingleRendererUpdateER13RendererSceneRS_10MemLabelId
YXh:_ReadOnlyCollection_1_System_Collections_Generic_ICollectionU3CTU3E_get_IsReadOnly_m3152485890_gshared
bgc:__ZNSt3__26vectorIN9ShaderLab20SerializedSubProgramENS_9allocatorIS2_EEE8__appendEj
n1:__ZN20DynamicHeapAllocatorI17LowLevelAllocatorE8AllocateEji
hhd:__ZN11UnityEngine9Analytics15UserCustomEvent12ToJsonStringER9JSONWrite
pij:_Locale_GetText_m2427493201
g_b:__ZN20DynamicPropertySheet15SetVectorQueuedERKN9ShaderLab16FastPropertyNameERK8Vector4fN19ShaderPropertySheet8SetFlagsE
pD:__ZN7mecanim9animation22EvaluateAvatarRetargetEPKNS0_14AvatarConstantEPKNS0_11AvatarInputEPNS0_12AvatarOutputEPNS0_12AvatarMemoryEPNS0_15AvatarWorkspaceEb
c3e:_InternalEnumerator_1_System_Collections_IEnumerator_Reset_m996811230_AdjustorThunk
LGa:__ZN14RenderSettings23VirtualRedirectTransferER19StreamedBinaryWriteILb0EE
hRe:_ConstructorBuilder_get_TypeBuilder_m2755629087
zNc:__ZL26Transfer_SimpleNativeClassI9JSONWrite10RectOffsetLb0EEvRK29SerializationCommandArgumentsR31RuntimeSerializationCommandInfo
aek:_GC_push_conditional
_gd:__ZN21UnityAnalyticsManager23VirtualRedirectTransferER24GenerateTypeTreeTransfer
o_a:__ZN17GenericDynamicVBO10AllocateVBEjR21DynamicVBOChunkHandle
m7g:_DBNull_ToString_m3638608738
h3j:__ZN30dense_hashtable_const_iteratorI10KeyWrapperIP18Il2CppGenericClassES3_N6il2cpp8metadata22Il2CppGenericClassHashEN14dense_hash_setIS3_S6_NS3_14EqualsComparerINS5_25Il2CppGenericClassCompareEEENSt3__29allocatorIS3_EEE8IdentityESA_SD_EppEv
xIg:_BitArray_Clone_m3537018332
slf:_ObjectRecord_UnchainFixup_m3191243952
k5i:_TlsStream_get_CanWrite_m16389328
Ved:__Z15GetUIModuleSpecv
Csi:__Z65RuntimeInvoker_RuntimeObject_RuntimeObject_Vector3U26_t3464235976PFvvEPK10MethodInfoPvPS4_
xWc:__ZN9Scripting11UnityEngine8UIVertex9InitProxyEv
hl:_glMapBufferRange
FSa:__ZN9Texture2D8TransferI18StreamedBinaryReadILb0EEEEvRT_
arc:__Z31Input_CUSTOM_GetMouseButtonDowni
Dzc:__ZN13PlayableGraph4PlayEv
rab:__ZNK9Transform16GetLocalPositionEv
qvg:_EncoderExceptionFallbackBuffer_get_Remaining_m1573636148
NLe:_MonoType_get_BaseType_m1098640416
y5a:__ZN13LoadOperation19IntegrateTimeSlicedEi
D5i:_TlsStream_Read_m3392972801
RJf:_TouchScreenKeyboard_get_status_m3936201565
cNb:__ZN13GfxDeviceGLES22DispatchComputeProgramE12ObjectHandleI18ComputeProgram_TagPvE15ComputeBufferIDj
yUb:__ZN20DefaultGfxDeviceImpl32InitStereoGlobalsBuffersPlatformEiijPKv
qIh:_Latin1Encoding_GetString_m254210343
A7a:__Z17TransformAABBSlowRK4AABBRK10Matrix4x4fRS_
KBg:_Array_combsort_m4052486289
hFg:_Char_System_IConvertible_ToUInt16_m2449138174
gP:__ZN24AudioScriptBufferManager27InitialCompleteDomainReloadEv
jMi:_List_1_System_Collections_ICollection_get_SyncRoot_m314215814_gshared
Bec:__ZN9ShaderLab21SerializedShaderState8TransferI14SafeBinaryReadEEvRT_
Ebh:_Environment_GetWindowsFolderPath_m1738399646
QWi:_Queue_1_System_Collections_Generic_IEnumerableU3CTU3E_GetEnumerator_m2263220760_gshared
gUi:_List_1_Sort_m378918663_gshared
wwh:_DefaultComparer_GetHashCode_m77036565_gshared
G$c:_cf2_stack_pushInt
wG:__ZN7mecanim9animation20DestroyLayerConstantEPNS0_13LayerConstantERNS_6memory9AllocatorE
hD:__ZN8Animator19FireAnimationEventsERNS_11AnimatorJobE
SJd:_Module_GetCustomAttributes_m76573271
Yof:_CryptoConfig_EncodeOID_m2635914623
aNa:__ZN15SerializeTraitsINSt3__24pairIN4core12basic_stringIcNS2_20StringStorageDefaultIcEEEES6_EEE8TransferI24GenerateTypeTreeTransferEEvRS7_RT_
hzk:b89
gzk:b88
Jxk:b81
Ixk:b80
pSb:__ZN7ApiGLES19CreateSparseTextureEjj14GraphicsFormatiiiiRiS1_S1_
_8:__ZN18ResourceImageGroup7CleanupEv
Wxk:b85
Vxk:b84
fzk:b87
dug:_String_CharCopy_m3838781968
tq:__ZN11Quaternionf8TransferI24GenerateTypeTreeTransferEEvRT_
GVd:_RemotingSurrogateSelector_GetSurrogate_m3900875713
kpi:__Z69RuntimeInvoker_Boolean_t97287965_UInt16_t2177724958_Int16_t2552820387PFvvEPK10MethodInfoPvPS4_
D_h:_ReadOnlyCollection_1_System_Collections_IList_get_IsReadOnly_m3626439112_gshared
Wdg:_CertificateValidationCallback_Invoke_m1014111289
BIa:__ZN8Playable19SetOutputConnectionEPS_i
ZUh:__ZN23InterfaceActionInvoker2Ii19Vector2_t2156229523E6InvokeEjP11Il2CppClassP12Il2CppObjectiS0_
CCa:__Z20RenderMultipleMeshesRK15RenderNodeQueueRK18RenderMultipleData16VertexInputMasks
Xl:_glDeleteShader
Rha:__ZN6prcoreL17RemapGenericFloatI15TexFormatRGHalf16TexFormatRGFloatEEvPKNS_9InnerInfoE
gIi:_Array_Sort_TisUICharInfo_t75501106_m128665067_gshared
T1c:_otv_GSUB_validate
xlg:_RSAPKCS1SignatureDeformatter_SetHashAlgorithm_m1602190713
Gah:_Enum_System_IConvertible_ToByte_m1219166845
xhf:_Dictionary_2_CopyToCheck_m45332585_gshared
MRi:_List_1_System_Collections_ICollection_get_IsSynchronized_m3630704857_gshared
OYe:_InternalEnumerator_1_System_Collections_IEnumerator_Reset_m4239728915_AdjustorThunk
Ojc:__Z27scripting_add_internal_callPKcPKv
Xui:__Z38RuntimeInvoker_ContentType_t1787303396PFvvEPK10MethodInfoPvPS4_
lSj:__ZN13Il2CppHashMapINSt3__24pairIPK9EventInfoP11Il2CppClassEEj17ReflectionMapHashIS7_ENS0_8equal_toIS7_EENS0_9allocatorINS1_IK10KeyWrapperIS7_EjEEEEEC2EjRKS9_RKSB_
n4j:__GLOBAL__sub_I_GarbageCollector_cpp
gCa:__Z17GetPlayerSettingsv
mtj:__ZL25UnresolvedVirtualCall_261P12Il2CppObject19Vector3_t3722313464PK10MethodInfo
PD:__ZN34BlobWriteTransferSTLStyleArrayImplI22OffsetPtrArrayTransferIiEEclERS1_17TransferMetaFlagsR9BlobWrite
jzf:_Input_get_inputString_m1307069105
KKd:_MonoField_get_FieldHandle_m3729647377
THc:__ZN9Scripting11UnityEngine3GUI9InitProxyEv
kWf:_ScrollRect_get_content_m2477524320
G9e:_Enumerator_MoveNext_m1556953412_AdjustorThunk
rv:__ZN26AnimatorControllerPlayable18SetLayerAutoWeightEv
ddd:__Z44Register_UnityEngine_Canvas_get_pixelPerfectv
Gdj:_Literal_GetAnchorInfo_m810577400
p9e:_Enumerator__ctor_m65667165_AdjustorThunk
hgd:__ZN2UI14CanvasRenderer12SyncMaterialENS0_8SyncFlagE
iZg:_StreamWriter_Write_m1660535366
rAi:__Z66RuntimeInvoker_Void_t1185182177_Int32_t2950945753_Link_t3209266973PFvvEPK10MethodInfoPvPS4_
aik:__ZN6il2cpp2vm9Parameter30GetDefaultParameterValueObjectEPK10MethodInfoPK13ParameterInfoPb
rKh:_UTF8Encoding_GetByteCount_m4152118078
T1f:_ServicePoint_set_UseNagleAlgorithm_m1374731041
vqh:_KeyPairPersistence__CanSecure_m3516574278
rc:invoke_iiiiiiiii
fli:__Z95RuntimeInvoker_Void_t1185182177_RuntimeObject_RuntimeObject_Int32_t2950945753_SByte_t1669577662PFvvEPK10MethodInfoPvPS4_
wrf:_MD5CryptoServiceProvider_Dispose_m3502499818
G$i:_Collection_1_System_Collections_IList_get_Item_m2422562729_gshared
yri:__Z87RuntimeInvoker_Void_t1185182177_RuntimeObject_StringU26_t181565287_StringU26_t181565287PFvvEPK10MethodInfoPvPS4_
zHa:__ZN12LightManager28IsLightTransformDataUpToDateEPK5Light
IYd:__ZL74RuntimeArray_CustomAttributesCacheGenerator_Array_BinarySearch_m3171087170P21CustomAttributesCache
$3c:_UNITY_tt_face_done_kern
afg:_SecurityParameters_get_ServerWriteMAC_m3430427271
$ve:__ZL90GUIStyle_t3956901511_CustomAttributesCacheGenerator_GUIStyle_get_stretchHeight_m4172805773P21CustomAttributesCache
tye:__ZL68g_UnityEngine_StandardEvents_Assembly_CustomAttributesCacheGeneratorP21CustomAttributesCache
wWe:_ArrayReadOnlyList_1_RemoveAt_m2104218585_gshared
AXa:__ZN12BoneWeights48TransferI24GenerateTypeTreeTransferEEvRT_
sfh:_Array_InternalArray__IEnumerable_GetEnumerator_TisParameterModifier_t1461694466_m3675077728_gshared
Vka:__ZL49__ManagedRegistrationHelperFunction_PreLateUpdatePv
mDe:__ZL60RawImage_t3182918964_CustomAttributesCacheGenerator_m_UVRectP21CustomAttributesCache
zVh:__ZN21InterfaceFuncInvoker1I19Vector3_t3722313464iE6InvokeEjP11Il2CppClassP12Il2CppObjecti
ZGb:__Z19scripting_gc_enablev
I3e:_InternalEnumerator_1_get_Current_m2907722321_gshared
wVb:__ZZ23InitPlayerLoopCallbacksvEN41InitializationPlayerUpdateTimeRegistrator7ForwardEv
mCc:__ZN11UTF16StringC2ERKS_10MemLabelId
obc:__Z29StdTemplateConversionFunctionIihEbPvR14SafeBinaryRead
T4e:_InternalEnumerator_1_get_Current_m3792939945_AdjustorThunk
sed:__Z55Register_UnityEngine_CanvasRenderer_DisableRectClippingv
tt:__ZN9Scripting11UnityEngine10Animations16ConstraintSource12CleanupProxyEv
$Nh:_TimeSpan_Subtract_m1264203589_AdjustorThunk
qJd:_MethodBase__ctor_m1907868998
SCe:__ZL118U3CCaretBlinkU3Ec__Iterator0_t2589889038_CustomAttributesCacheGenerator_U3CCaretBlinkU3Ec__Iterator0_Reset_m1547565867P21CustomAttributesCache
Fib:__ZN9GfxDevice22UploadTextureCubeArrayE9TextureIDPKhjii14GraphicsFormati18TextureUploadFlags
n_e:_InternalEnumerator_1_System_Collections_IEnumerator_get_Current_m888718134_gshared
ahi:__Z175RuntimeInvoker_Void_t1185182177_SByte_t1669577662_SByte_t1669577662_SByte_t1669577662_SByte_t1669577662_SByte_t1669577662_SByte_t1669577662_SByte_t1669577662_SByte_t1669577662PFvvEPK10MethodInfoPvPS4_
pgh:_Array_compare_TisRaycastResult_t3360306849_m822404090_gshared
iDf:_Object_Destroy_m3118546832
RWh:_ReadOnlyCollection_1_System_Collections_Generic_IListU3CTU3E_set_Item_m519295790_gshared
A5g:_DateTime_FromTicks_m4059645178_AdjustorThunk
lKi:_Array_InternalArray__get_Item_TisClientCertificateType_t1004704908_m2297379651_gshared
tRd:_ConfigHandler_ParseTime_m1787834288
Qic:__ZN9ShaderLab7Program27CreateFromSerializedProgramERKNS_17SerializedProgramE10ShaderTypeiP16PropertyNamesSetPK6Shader
Kdh:_Array_InternalArray__ICollection_Remove_TisX509ChainStatus_t133602714_m3635989134_gshared
qPe:_Assembly_Load_m3487507613
yK:__ZNSt3__27__sort4IRNS_6__lessIN4core12basic_stringIcNS2_20StringStorageDefaultIcEEEES6_EEPS6_EEjT0_SA_SA_SA_T_
zrk:dynCall_viiiifii
PQj:__ZN6il2cpp2gc19AppendOnlyGCHashMapINSt3__24pairIPK11Il2CppImageP11Il2CppClassEEP22Il2CppReflectionModule17ReflectionMapHashIS9_ENS2_8equal_toIS9_EEEC2Ev
q6:__Z20GetPersistentManagerv
j7c:_UNITY_TT_Set_Var_Design
L2:__ZN21SystemInfoStringCache16StaticInitializeEPv
mae:__ZL80Convert_t2465617642_CustomAttributesCacheGenerator_Convert_ToDecimal_m1695757674P21CustomAttributesCache
I$f:_NameObjectCollectionBase_FindFirstMatchedItem_m840305173
qXh:_ReadOnlyCollection_1_System_Collections_Generic_ICollectionU3CTU3E_Remove_m1100818788_gshared
u4j:__ZNK10KeyWrapperIP12Il2CppObjectE14EqualsComparerINSt3__28equal_toIS1_EEEclERKS2_S9_
Efc:__ZNSt3__26vectorIN9ShaderLab20SerializedSubProgram15StructParameterENS_9allocatorIS3_EEE6assignIPS3_EENS_9enable_ifIXaasr21__is_forward_iteratorIT_EE5valuesr16is_constructibleIS3_NS_15iterator_traitsISA_E9referenceEEE5valueEvE4typeESA_SA_
WVh:_Collection_1_IsSynchronized_m2291009199_gshared
yid:__ZN9Scripting11UnityEngine9Analytics21AnalyticsSessionState12CleanupProxyEv
yEb:__ZNK13MonoBehaviour7GetNameEv
H8a:__ZN19ScriptingInvocation28AdjustArgumentsToMatchMethodEv
Pai:_IndexedSet_1_Contains_m1525966688_gshared
sM:__Z15_CheckFMODError11FMOD_RESULTPKciS1_
n_j:__ZN6il2cpp6icalls8mscorlib6SystemL16ThrowInvalidCastEPK11Il2CppClassS5_
Gyh:_EqualityComparer_1_get_Default_m79107703_gshared
Iqf:_HMAC_KeySetup_m661741544
Sbe:__ZL61MonoEnumInfo_t3694469084_CustomAttributesCacheGenerator_cacheP21CustomAttributesCache
eIh:_Latin1Encoding__ctor_m498920120
UTj:__ZN6il2cpp2vm4Type19GetGenericParameterEPK10Il2CppType
LYg:_StreamReader_Peek_m2272511193
TNg:_DateTimeFormatInfo_FillAllDateTimePatterns_m2683124783
Bdd:__Z51Register_UnityEngine_CanvasGroup_get_blocksRaycastsv
bNe:_NumberFormatter_get_IsFloatingSource_m3714711779
R0i:_Collection_1_System_Collections_IList_Add_m1403891193_gshared
UZe:_InternalEnumerator_1_System_Collections_IEnumerator_Reset_m169899350_AdjustorThunk
yPh:_Type_GetConstructor_m1195697116
rd:_glBeginQuery
wgh:__ZN21InterfaceFuncInvoker2Ii19Vector2_t2156229523S0_E6InvokeEjP11Il2CppClassP12Il2CppObjectS0_S0_
fla:__ZL48__ManagedRegistrationHelperFunction_VisibleLightPv
Euj:_Canvas_get_scaleFactor_m3314757802
lXb:__ZN6Camera12RenderStereoENS_10RenderFlagE8CullFlagPNS_24PerformEyeRenderFunctionE
qcb:__ZN20LocalFileSystemPosix10ToAbsoluteEPKc
dGa:__ZN20TierGraphicsSettings8TransferI19StreamedBinaryWriteILb0EEEEvRT_
_Ak:b111
G7a:__Z23CollectSceneGameObjectsR13dynamic_arrayIiLj0EE
Zak:__ZN6il2cpp2vm13ComObjectBase16DisconnectObjectEj
hAh:_GenericComparer_1__ctor_m3652072706_gshared
Cm:f0
Gp:__ZN6Object17MainThreadCleanupEv
yFa:__Z32TransferEnumWithNameForceIntSizeI14SafeBinaryRead7HDRModeEvRT_RT0_PKc17TransferMetaFlags
ank:_getcwd
Nua:__ZN25ThreadsafeLinearAllocatorD2Ev
G6a:__Z21SendMessageToEveryoneRK17MessageIdentifier11MessageData
Dca:__ZN21BillboardBatchManager16StaticInitializeEPv
H0g:_DateTime_AbsoluteDays_m4235097773
g4:__ZN12_GLOBAL__N_138ArchiveRedirectFileSystemStaticDestroyEPv
yZd:__ZL126U3CGetEnumeratorU3Ec__Iterator0_t1202911786_CustomAttributesCacheGenerator_U3CGetEnumeratorU3Ec__Iterator0_Dispose_m2078994225P21CustomAttributesCache
lci:__Z74RuntimeInvoker_RuntimeObject_RuntimeObject_RuntimeObject_SByte_t1669577662PFvvEPK10MethodInfoPvPS4_
IZd:__ZL69Type_t_CustomAttributesCacheGenerator_Type_GetConstructor_m1195697116P21CustomAttributesCache
FBd:_DefaultControls_CreateScrollView_m3842770629
cUc:__ZL55__ManagedRegistrationHelperFunction_PhysicsJobOptions2DPv
zQa:__ZN12CubemapArray34UpdateFileTextureUploadInstructionEP26FileAssetUploadInstructionj
Y0d:__ZL94EnumBuilder_t2400448213_CustomAttributesCacheGenerator_EnumBuilder_GetConstructors_m3294436155P21CustomAttributesCache
zBi:__Z55RuntimeInvoker_TableRange_t3332867892_Int32_t2950945753PFvvEPK10MethodInfoPvPS4_
f1e:_InternalEnumerator_1_MoveNext_m1020308708_gshared
oSb:__Z23CreateSparseTextureGLES9TextureIDii14GraphicsFormati
z2c:_otv_Anchor_validate
PR:__ZN13dynamic_arrayI12SoundChannelLj0EE9push_backERKS0_
dIg:_SynchronizedArrayListWrapper_CopyTo_m4207791406
tLg:_CCMath_mod_m3631663509
ZNh:_TimeSpan_Negate_m1889505500_AdjustorThunk
X_h:_ReadOnlyCollection_1_System_Collections_ICollection_CopyTo_m2715087453_gshared
_we:__ZL84Canvas_t3310196443_CustomAttributesCacheGenerator_Canvas_get_scaleFactor_m3314757802P21CustomAttributesCache
Ocf:_Transform_1__ctor_m2810088858_gshared
Qfb:__ZN16MemoryFileSystemD0Ev
Ild:__ZN11UnityEngine7Connect20RemoteConfigSettings7SetJSONER8JSONReadb
jHj:__ZN6il2cpp2vm13MetadataCache37GetParameterDefaultValueDataFromIndexEi
_Uj:_il2cpp_class_get_assemblyname
Xli:__Z50RuntimeInvoker_SByte_t1669577662_SByte_t1669577662PFvvEPK10MethodInfoPvPS4_
sEd:_Graphic_OnFillVBO_m1026749972
Qzj:__ZN6il2cpp2vm5Class15GetEnumBaseTypeEP11Il2CppClass
hhg:_Context_set_WriteSequenceNumber_m942577065
Wd:_glVertexAttrib4fv
M5f:_X509CertificateEnumerator_Reset_m4026698923
tbk:__ZNK6il2cpp5utils13VmStringUtils23CaseInsensitiveComparerclERKNSt3__212basic_stringIcNS3_11char_traitsIcEENS3_9allocatorIcEEEEPKc
Nyd:_CanvasScaler_SetScaleFactor_m3006968999
CDi:__Z78RuntimeInvoker_Boolean_t97287965_Navigation_t3049316579_Navigation_t3049316579PFvvEPK10MethodInfoPvPS4_
_Qa:__ZNK9Texture2D16GetNpotTexelSizeEv
RMe:_NumberFormatter_Init_m3576155222
odb:__ZL33FileEntryInfoListToFolderContentsRKN4core12basic_stringIcNS_20StringStorageDefaultIcEEEERK19dynamic_block_arrayI13FileEntryInfoLj32EERNSt3__23setIS3_NSB_4lessIS3_EENSB_9allocatorIS3_EEEE
fSf:_LayoutUtility_GetLayoutProperty_m714717302
tlk:_Terminal_NotifyCommandHandlers_m909296863
JPj:__ZN24dense_hashtable_iteratorINSt3__24pairIK10KeyWrapperINS1_IPK12PropertyInfoP11Il2CppClassEEEjEES9_17ReflectionMapHashIS8_EN14dense_hash_mapIS9_jSD_NS9_14EqualsComparerINS0_8equal_toIS8_EEEENS0_9allocatorISB_EEE9SelectKeyESI_SK_E30advance_past_empty_and_deletedEv
$Sh:__ZN23InterfaceActionInvoker1IP39UnhandledExceptionEventArgs_t2886101344E6InvokeEjP11Il2CppClassP12Il2CppObjectS1_
Xsd:_EventSystem_set_sendNavigationEvents_m983981895
Hhb:__ZN9GfxDevice22GetDefaultVertexBufferE26GfxDefaultVertexBufferTypej
qch:_Array_InternalArray__ICollection_Contains_TisInt64_t3736567304_m2911357929_gshared
eIb:__Z17BeginSplashScreenb
S$i:_Collection_1_Remove_m3022471627_gshared
snk:___fseeko_unlocked
Ipa:__ZN9Scripting11UnityEngine12Experimental9Playables21TexturePlayableOutput12CleanupProxyEv
qOe:_Object_ToString_m1740002499
knk:_sscanf
uud:_ExecuteEvents_GetEventChain_m2404658789
qHi:_Array_Resize_TisUILineInfo_t4195266810_m3763058392_gshared
sof:_SByte_ToString_m3584531119_AdjustorThunk
Thc:__ZN9ShaderLab16SerializedShader8TransferI19StreamedBinaryWriteILb0EEEEvRT_
Xkj:_TrackableProperty_GetHashCode_m3407865350
ku:__ZN7mecanim9animation18CreateAvatarMemoryEPKNS0_14AvatarConstantERNS_6memory9AllocatorE
p2g:_Convert_ToInt32_m1876369743
O9f:_ModulusRing__ctor_m2420310199
M0g:_Convert_ToDateTime_m626620011
$9e:_Enumerator_System_Collections_IDictionaryEnumerator_get_Key_m2500634048_AdjustorThunk
zE:__ZN7mecanim8skeleton16SkeletonPoseCopyIN4math4trsXENS2_7affineXEEEvPKNS0_13SkeletonPoseTIT_EEPNS5_IT0_EE
$wb:__Z18Transfer_BlittableI19StreamedBinaryWriteILb0EELb0EaEvRK29SerializationCommandArgumentsR31RuntimeSerializationCommandInfo
VGh:_List_1_Remove_m3037048099_gshared
RPb:__ZN18GfxFramebufferGLES18GetFramebufferNameERK20GfxRenderTargetSetup
zna:__ZN9Scripting11UnityEngine9Transform9InitProxyEv
mTj:__ZN6il2cpp2vm14TypeNameParser12ParseVersionERKNSt3__212basic_stringIcNS2_11char_traitsIcEENS2_9allocatorIcEEEERtSB_SB_SB_
tPf:_InputField_MoveDown_m1455948167
mIc:__Z30Event_Get_Custom_PropCharacterP12Il2CppObject
lea:__ZN13PlayableGraph27SchedulePlayableDestructionERK9HPlayable
K1c:_cff_get_mm_var
Cuk:_glGetFramebufferAttachmentParameteriv__wrapper
mQd:_ChannelServices_GetCurrentChannelInfo_m3041604116
h4e:_InternalEnumerator_1__ctor_m2635640285_AdjustorThunk
Tpb:__Z22scripting_array_length17ScriptingArrayPtr
bIe:_SynchronizedReader_Peek_m148942882
Wfi:__Z95RuntimeInvoker_Void_t1185182177_RuntimeObject_Int32_t2950945753_Int32_t2950945753_RuntimeObjectPFvvEPK10MethodInfoPvPS4_
JPa:__ZN14SafeBinaryRead20TransferTypelessDataEjPvi
J6j:__ZN15dense_hashtableINSt3__24pairIK10KeyWrapperIPcES3_EES4_N6il2cpp5utils15PassThroughHashIS3_EEN14dense_hash_mapIS4_S3_SA_NS4_14EqualsComparerINS0_8equal_toIS3_EEEENS0_9allocatorIS6_EEE9SelectKeyESF_SH_E3endEv
B8c:_Horizontal_Sweep_Init
XBa:__Z19GetActiveColorSpacev
C3c:_UNITY_tt_face_load_kern
mKd:_MonoMethodInfo_GetDeclaringType_m2924452727
AJb:__ZN13sorted_vectorINSt3__24pairIiN17InstancingBatcher12PropertyTypeEEEN10vector_mapIiS3_NS0_4lessIiEE13stl_allocatorIS4_L18MemLabelIdentifier1ELi16EEE13value_compareESA_E21sort_clear_duplicatesEv
x3:__Z6StrCmpPKcS0_
aWf:_Scrollbar_OnInitializePotentialDrag_m3588541308
Gjc:__Z21CheckGpuProgramUsable20ShaderGpuProgramType
muc:__ZN13ProduceHelperI14Texture2DArrayLb0EE7ProduceE10MemLabelId18ObjectCreationMode
I8j:__ZN6il2cpp2os9Directory20GetFileSystemEntriesERKNSt3__212basic_stringIcNS2_11char_traitsIcEENS2_9allocatorIcEEEESA_iiPi
wAg:_Array_System_Collections_IList_Add_m1063688101
SXc:__ZN20TextRenderingPrivate19NativeTextGenerator5SetupEv
$2b:__ZNK15SharedLightData24GetFinalShadowResolutionEv
Kaj:_PatternCompiler_EmitAlternationEnd_m2444359097
Aqe:__ZL91GameObject_t1113636619_CustomAttributesCacheGenerator_GameObject_get_activeSelf_m1767405923P21CustomAttributesCache
G2a:__ZN12AspectRatios8TransferI18StreamedBinaryReadILb0EEEEvRT_
_kc:__ZN10GameObject14CopyPropertiesERS_
QJc:__Z44Register_UnityEngine_GUIStyle_get_fixedWidthv
ndh:_Array_InternalArray__ICollection_Remove_TisLink_t544317964_m1280781374_gshared
e8j:__ZNSt3__214__split_bufferIN6il2cpp2os10ThreadImpl10APCRequestERNS_9allocatorIS4_EEEC2EjjS7_
OCg:_BitConverter_DoubleWordsAreSwapped_m1474345095
rHg:_FixedSizeArrayListWrapper_set_Capacity_m4221053039
Nnk:_rand
evk:_emscripten_glFramebufferRenderbuffer__wrapper
$Ac:__ZN13MeshScripting10CreateMeshE21ScriptingObjectOfTypeI4MeshE
Nbi:_ListPool_1__cctor_m3480273184_gshared
nri:__Z56RuntimeInvoker_Void_t1185182177_PropertyName_t3749835189PFvvEPK10MethodInfoPvPS4_
Wx:__ZN17AnimationPlayable22PrepareAnimationEventsEfR13dynamic_arrayI22AnimationClipEventInfoLj0EE
aud:__ZN23InterfaceActionInvoker1IP25BaseEventData_t3903027533E6InvokeEjP11Il2CppClassP12Il2CppObjectS1_
Sqb:__ZN14SafeBinaryRead21TransferSTLStyleArrayINSt3__26vectorI17AnimationCurveTplIfE13stl_allocatorIS4_L18MemLabelIdentifier1ELi16EEEEEEvRT_17TransferMetaFlags
WHg:_SynchronizedArrayListWrapper_Contains_m3809499313
yig:_HandshakeMessage_Compare_m2214647946
Adh:_Array_InternalArray__ICollection_Remove_TisLabelData_t360167391_m3556246844_gshared
VOj:__ZN15dense_hashtableINSt3__24pairIK10KeyWrapperINS1_IPK11Il2CppImageP11Il2CppClassEEEjEES9_17ReflectionMapHashIS8_EN14dense_hash_mapIS9_jSD_NS9_14EqualsComparerINS0_8equal_toIS8_EEEENS0_9allocatorISB_EEE9SelectKeyESI_SK_E12expand_arrayEjN21dense_hash_map_traits17integral_constantIbLb0EEE
akb:__ZN9GfxDevice30ResolveComputeProgramResourcesE12ObjectHandleI18ComputeProgram_TagPvER19ComputeShaderKernelR13dynamic_arrayI15ComputeShaderCBLj0EERS6_I18ComputeShaderParamLj0EEb
Wqf:_HMACSHA256__ctor_m346174875
Huf:_Color_op_Multiply_m2887457390
VVi:_List_1_Remove_m2092443302_gshared
y5b:__Z22PrepareOptimizedPlanesPK5PlaneiPKN4math7_float4E
a_e:_InternalEnumerator_1__ctor_m1559487635_gshared
Y$:__ZN11UnityEngine15CloudWebService17WebFileDownloaderINS0_20WebRequestRestClientENS0_23WebRequestRestHeaderMapEE10InitializeERKN4core12basic_stringIcNS5_20StringStorageDefaultIcEEEE
Bca:__ZN17UniqueIDGenerator15CreatePureIndexEv
Asc:__Z48InitializeRectTransformAnimationBindingInterfacev
d5a:__ZNSt3__26vectorIN15ResourceManager10DependencyE13stl_allocatorIS2_L18MemLabelIdentifier52ELi16EEE6assignINS_11__wrap_iterIPS2_EEEENS_9enable_ifIXaasr21__is_forward_iteratorIT_EE5valuesr16is_constructibleIS2_NS_15iterator_traitsISC_E9referenceEEE5valueEvE4typeESC_SC_
dzj:__ZN15dense_hashtableINSt3__24pairIK10KeyWrapperIPK22Il2CppGenericParameterEP11Il2CppClassEES6_N6il2cpp5utils11PointerHashIS4_EEN14dense_hash_mapIS6_S9_SE_NS6_14EqualsComparerINS0_8equal_toIS5_EEEENS0_9allocatorISA_EEE9SelectKeyESJ_SL_E14squash_deletedEv
oLa:__ZN9ShaderLabL27GetDesiredRenderTextureDescEPK6Camera
a7d:__ZL131RSACryptoServiceProvider_t2683512874_CustomAttributesCacheGenerator_RSACryptoServiceProvider_t2683512874____PublicOnly_PropertyInfoP21CustomAttributesCache
WEi:_Array_InternalArray__Insert_TisMark_t3471605523_m2854535880_gshared
EAc:__ZN4Mesh24UpdateSubMeshVertexRangeEi
OIc:__Z14GUIClipTextureP9Texture2DPhiiii
vte:__ZL52HumanBone_t2465339518_CustomAttributesCacheGeneratorP21CustomAttributesCache
nVd:_MethodReturnDictionary__cctor_m278392388
XYb:__ZNK9Transform18TransformDirectionERK8Vector3f
o4i:_SslStreamBase_get_CanWrite_m1622082918
_db:__ZNK17ArchiveFileSystem12GetAssetGUIDERK13FileEntryData
NEe:__ZL80CanvasScaler_t2767979955_CustomAttributesCacheGenerator_m_ReferencePixelsPerUnitP21CustomAttributesCache
H6d:__ZL47HMAC_t2621101144_CustomAttributesCacheGeneratorP21CustomAttributesCache
boh:_PrimalityTests_RabinMillerTest_m1471415870
$Ch:_Enumerator_MoveNext_m2114485647_gshared
NTe:_GenericTypeParameterBuilder_GetCustomAttributes_m580748276
jkj:_AnalyticsTracker_get_TP_m2800669040
UFj:__ZN15dense_hashtableINSt3__24pairIK10KeyWrapperIPK11Il2CppClassEPKcEES6_N6il2cpp5utils11PointerHashIS3_EEN14dense_hash_mapIS6_S9_SE_NS6_14EqualsComparerINS0_8equal_toIS5_EEEENS0_9allocatorISA_EEE9SelectKeyESJ_SL_E12resize_deltaEjj
wpk:__ZNK10__cxxabiv120__si_class_type_info27has_unambiguous_public_baseEPNS_19__dynamic_cast_infoEPvi
T9f:_Kernel_LeftShift_m4140742987
dPe:_Assembly_GetManifestResourceInternal_m1224391897
KCa:__Z30AddDefaultStreamsToMeshBuffersR9GfxDeviceR11MeshBuffersj17ShaderChannelMaskS3_
J3:__ZL16GetInterfaceImpl18UnityInterfaceGUID
gbk:__ZN6il2cpp6icalls8mscorlib6System15MonoCustomAttrs27GetCustomAttributesInternalEP12Il2CppObjectP20Il2CppReflectionTypeb
r1e:_InternalEnumerator_1_get_Current_m1408339225_AdjustorThunk
G7c:_UNITY_TT_Set_MM_Blend
jra:__ZN9Scripting11UnityEngine11Application9InitProxyEv
q3i:_InternalAsyncResult_get_FromWrite_m4228047810
jji:__Z53RuntimeInvoker_MonoEventInfo_t346866618_RuntimeObjectPFvvEPK10MethodInfoPvPS4_
fUh:_Collection_1_CopyTo_m955200729_gshared
wIb:__ZN14PreloadManager35WaitForAllAsyncOperationsToCompleteEv
sBj:__ZN13Il2CppHashMapIP9FieldInfoiN6il2cpp5utils11PointerHashIS0_EENSt3__28equal_toIS1_EENS6_9allocatorINS6_4pairIK10KeyWrapperIS1_EiEEEEEC2EjRKS5_RKS8_
rxe:__ZL103UISystemProfilerApi_t2230074258_CustomAttributesCacheGenerator_UISystemProfilerApi_AddMarker_m495483138P21CustomAttributesCache
A5:__ZNK18ScriptingObjectPtr17ToScriptingStringEv
oM:__ZL31InitializeAudioScriptingClassesv
qYb:__Z14SortGUIByDepthP10GUIElementS0_
WAb:__ZN18StreamedBinaryReadILb1EE21TransferSTLStyleArrayI13dynamic_arrayIhLj0EEEEvRT_17TransferMetaFlags
tCf:_PlayerConnection_OnEnable_m4286555589
boi:__Z69RuntimeInvoker_UInt32_t2560061978_Int32_t2950945753_SByte_t1669577662PFvvEPK10MethodInfoPvPS4_
rF:__ZN12_GLOBAL__N_120ProcessRootMotionMixER33AnimationPlayableEvaluationOutputR35AnimationPlayableEvaluationConstantR32AnimationPlayableEvaluationInputS1_f
qfj:_UriParser__cctor_m3655686731
XRf:_LayoutRebuilder_U3Cs_RebuildersU3Em__0_m589488547
fDi:__Z53RuntimeInvoker_KeyValuePair_2_t71524366_RuntimeObjectPFvvEPK10MethodInfoPvPS4_
Scb:__ZNK20LocalFileSystemPosix21GetAvailableDiskSpaceEPKcRy
uK:__ZNSt3__26__treeIiNS_4lessIiEENS_9allocatorIiEEE7destroyEPNS_11__tree_nodeIiPvEE
shb:__ZNK9GfxDevice14GetWorldMatrixEv
vIj:_RemoteConfigSettings_t1247263429_marshal_pinvoke
vKf:_Transform_set_parent_m786917804
_nj:_AudioSampleProvider_InternalSetScriptingPtr_m3742743270
XYf:_Slider_get_value_m739683640
obb:__Z19scripting_array_new17ScriptingClassPtrjj
x2g:_Convert_ToInt32_m2128774575
IR:__ZN11SoundHandle13CreateChannelEb
rMh:_WaitCallback_BeginInvoke_m3012509827
jgc:__ZNSt3__26vectorIN9ShaderLab20SerializedSubProgram16TextureParameterENS_9allocatorIS3_EEE6assignIPS3_EENS_9enable_ifIXaasr21__is_forward_iteratorIT_EE5valuesr16is_constructibleIS3_NS_15iterator_traitsISA_E9referenceEEE5valueEvE4typeESA_SA_
vEj:__ZN13Il2CppHashMapIN6il2cpp5utils13dynamic_arrayIPK10Il2CppTypeLj4EEEPFvvENS0_8metadata19Il2CppSignatureHashENS9_22Il2CppSignatureCompareENSt3__29allocatorINSC_4pairIK10KeyWrapperIS6_ES8_EEEEEC2EjRKSA_RKSB_
WRi:__ZN21InterfaceFuncInvoker0I22UILineInfo_t4195266810E6InvokeEjP11Il2CppClassP12Il2CppObject
vgi:__Z122RuntimeInvoker_Void_t1185182177_RuntimeObject_RuntimeObject_ContractionU5BU5DU26_t2277527001_Level2MapU5BU5DU26_t359320357PFvvEPK10MethodInfoPvPS4_
vRj:__ZN15dense_hashtableINSt3__24pairIK10KeyWrapperIPK22Il2CppGenericParameterEPK24MonoGenericParameterInfoEES6_N6il2cpp5utils11PointerHashIS4_EEN14dense_hash_mapIS6_SA_SF_NS6_14EqualsComparerINS0_8equal_toIS5_EEEENS0_9allocatorISB_EEE9SelectKeyESK_SM_E15set_deleted_keyERKSB_
qof:_SByte_TryParse_m2431806379
FCj:__ZNK15dense_hashtableINSt3__24pairIK10KeyWrapperIP9FieldInfoEiEES5_N6il2cpp5utils11PointerHashIS3_EEN14dense_hash_mapIS5_iSB_NS5_14EqualsComparerINS0_8equal_toIS4_EEEENS0_9allocatorIS7_EEE9SelectKeyESG_SI_E8min_sizeEjj
Ace:__ZL64ObjectDisposedException_t21392786_CustomAttributesCacheGeneratorP21CustomAttributesCache
jIa:__ZN6prcoreL11inner_clearILj2EEEvPhjjj
Vra:__ZN9Scripting5Unity11Collections8LowLevel6Unsafe24NativeContainerAttribute9InitProxyEv
Upf:_DSACryptoServiceProvider_get_KeySize_m786836990
qCj:__ZNSt3__218uninitialized_fillIPNS_4pairIK10KeyWrapperIPKcEP11Il2CppClassEES9_EEvT_SB_RKT0_
Hg:_emscripten_exit_fullscreen
wGi:_Array_qsort_TisBoolean_t97287965_TisBoolean_t97287965_m214793583_gshared
iCh:_Enumerator_System_Collections_IEnumerator_Reset_m1564381721_gshared
Gsc:__ZZL31RegisterRectTransformPropertiesR22GenericPropertyBindingEN39Wrapper_RectTransformAnchoredPositiony113GetFloatValueEPv
kOe:_Object_MemberwiseClone_m1474068832
p7j:__ZN6il2cpp6icalls8mscorlib6System6String19InternalAllocateStrEi
$Rc:__Z29Transfer_Blittable_ArrayFieldI8JSONRead11QuaternionfEvRT_R9ArrayInfoRK23StaticTransferFieldInfo
zcb:__ZN20LocalFileSystemPosix8SetFlagsER13FileEntryDatajj
Foc:__Z45Register_UnityEngine_Camera_get_targetDisplayv
fxc:__ZNK24RendererAnimationBinding15GenerateBindingERKN4core12basic_stringIcNS0_20StringStorageDefaultIcEEEEbRN11UnityEngine9Animation14GenericBindingE
z1f:_IPv6Address__ctor_m3704187391
xHa:__Z15GetFlareManagerv
opc:__ZN15ApplicationInfo24GetApplicationIdentifierEv
Vsa:__ZN9Behaviour8TransferI18StreamedBinaryReadILb0EEEEvRT_
ou:__ZN8Animator13GetAvatarRootEv
Sih:_Array_InternalArray__ICollection_Add_TisResourceCacheItem_t51292791_m3851804827_gshared
Nlk:___toread
lGb:__ZNSt3__26vectorI10vector_mapIiiNS_4lessIiEE13stl_allocatorINS_4pairIiiEEL18MemLabelIdentifier38ELi16EEES4_IS9_LS7_38ELi16EEE26__swap_out_circular_bufferERNS_14__split_bufferIS9_RSA_EE
p9f:_BigInteger_get_Rng_m3283260184
Zpk:___cxa_is_pointer_type
lJ:__ZN8Animator22ScriptingStringToCRC32ERK11ICallString
jde:__ZL55EventHandler_t1348719766_CustomAttributesCacheGeneratorP21CustomAttributesCache
tF:__ZN7mecanim9animation16EvaluateAvatarDXEPKNS0_14AvatarConstantEPKNS0_11AvatarInputEPNS0_12AvatarMemoryEPNS0_15AvatarWorkspaceEPNS0_12AvatarOutputE
owd:_RaycastResult_ToString_m2678663776_AdjustorThunk
uKi:_Array_InternalArray__get_Item_TisKeyValuePair_2_t2530217319_m2886833132_gshared
OAb:__ZN18StreamedBinaryReadILb1EE21TransferSTLStyleArrayI13dynamic_arrayIN4math12int3_storageELj0EEEEvRT_17TransferMetaFlags
Gka:__ZL50__ManagedRegistrationHelperFunction_UnityEventBasePv
hqc:__Z34Transform_CUSTOM_SetAsFirstSiblingP12Il2CppObject
kMj:__ZNK15dense_hashtableINSt3__24pairIK10KeyWrapperINS1_IPK14Il2CppAssemblyP11Il2CppClassEEEjEES9_17ReflectionMapHashIS8_EN14dense_hash_mapIS9_jSD_NS9_14EqualsComparerINS0_8equal_toIS8_EEEENS0_9allocatorISB_EEE9SelectKeyESI_SK_E10test_emptyEj
Qqj:__ZL25UnresolvedVirtualCall_129P12Il2CppObjectjijPK10MethodInfo
ogi:__Z63RuntimeInvoker_Void_t1185182177_RuntimeObject_SByte_t1669577662PFvvEPK10MethodInfoPvPS4_
bie:__ZL57SetupCoroutine_t2062820429_CustomAttributesCacheGeneratorP21CustomAttributesCache
iPf:_InputField_Delete_m3471899192
Bbe:__ZL79Convert_t2465617642_CustomAttributesCacheGenerator_Convert_ToUInt64_m1627266664P21CustomAttributesCache
i4d:__ZL91UrlAttribute_t221584584_CustomAttributesCacheGenerator_UrlAttribute_IsContextOK_m1228378186P21CustomAttributesCache
ojf:_RemotingConfiguration_get_ProcessId_m2180277012
tsj:__ZL25UnresolvedVirtualCall_214P12Il2CppObjectS0_iPK10MethodInfo
uY:__ZN11UnityEngine15CloudWebService17SessionEventQueue14ParseEventDataERKN4core12basic_stringIcNS2_20StringStorageDefaultIcEEEE
d2f:_WebHeaderCollection_Add_m183143026
ZFh:_List_1_Remove_m2605758101_gshared
KOb:__ZN13TranslateGLES4InitERK12GraphicsCaps16GfxDeviceLevelGL
dDb:__Z29Transfer_Blittable_ArrayFieldI18StreamedBinaryReadILb0EE10ColorRGBAfEvRT_R9ArrayInfoRK23StaticTransferFieldInfo
yyj:_NativeTypeAttribute_set_CodegenOptions_m3839252515
qxh:_EqualityComparer_1_get_Default_m180770000_gshared
VSg:_Int64_System_IConvertible_ToUInt16_m848637338_AdjustorThunk
$hd:__Z32CustomEventData_CUSTOM_AddUInt32P12Il2CppObjectP12Il2CppStringj
ihh:_Array_InternalArray__IndexOf_TisLink_t544317964_m455584088_gshared
zWi:_Enumerator_get_Current_m2282646120_AdjustorThunk
L_h:_ReadOnlyCollection_1_IndexOf_m2539022912_gshared
trh:_KeyGeneratedEventHandler__ctor_m1990062371
VDe:__ZL66Selectable_t3250028441_CustomAttributesCacheGenerator_m_TransitionP21CustomAttributesCache
Gik:__ZN6il2cpp2os6Memory12AlignedAllocEjj
rCh:_Enumerator_get_Current_m2305210644_AdjustorThunk
dPc:__ZN9JSONWrite8TransferI13dynamic_arrayIN4math12int3_storageELj0EEEEvRT_PKc17TransferMetaFlags
b_f:_Text_set_alignByGeometry_m3828822280
fck:__ZN6il2cpp8metadataL7CompareEPK10Il2CppTypeS3_
Rsb:__Z18Transfer_BlittableI17RemapPPtrTransferLb0E11ColorRGBA32EvRK29SerializationCommandArgumentsR31RuntimeSerializationCommandInfo
F_f:_HybridDictionary__ctor_m1681134385
fya:__ZN21ScalableBufferManager11GetInstanceEv
uBb:__Z18Transfer_BlittableI18StreamedBinaryReadILb0EELb1E10ColorRGBAfEvRK29SerializationCommandArgumentsR31RuntimeSerializationCommandInfo
rQa:__ZN12CubemapArray23VirtualRedirectTransferER17RemapPPtrTransfer
hOh:_TimeSpan_op_LessThan_m1594498345
Qmc:__ZL27GetComponentsImplementationILb0ELi0EEbR10GameObjectbRK17CompareParametersRK39GetComponentsImplementation_ReturnValue
kFb:__ZN9Scripting36IsSystemCollectionsGenericDictionaryE17ScriptingClassPtr
T9h:_UnityEvent_1_FindMethod_Impl_m322741469_gshared
M4d:__ZL92ConstructionCallDictionary_t686578562_CustomAttributesCacheGenerator_U3CU3Ef__switchU24map24P21CustomAttributesCache
pEe:__ZL64Slider_t3903728902_CustomAttributesCacheGenerator_m_WholeNumbersP21CustomAttributesCache
JKf:_Enumerator_get_Current_m2591725252
D9:__ZL16ReadTypeTreeImplILb0EEbR8TypeTreeRK16TypeTreeIteratorRPKhS6_i
R8f:_Interval_Contains_m110351300_AdjustorThunk
q2g:_Convert_ToInt32_m3048308591
Eu:__ZN25RuntimeAnimatorControllerD2Ev
VFe:__ZL77LayoutUtility_t2745813735_CustomAttributesCacheGenerator_U3CU3Ef__amU24cache6P21CustomAttributesCache
kUf:_RectMask2D_OnCanvasHierarchyChanged_m3195492255
K6g:_DateTimeOffset_Equals_m3030958070
aHa:__ZNK22BuiltinResourceManager21GetResourceInstanceIDEPKN5Unity4TypeERKN4core12basic_stringIcNS4_20StringStorageDefaultIcEEEE
eDb:__ZN18StreamedBinaryReadILb0EE21TransferSTLStyleArrayI13dynamic_arrayI10ColorRGBAfLj0EEEEvRT_17TransferMetaFlags
joc:__Z42Register_UnityEngine_RectOffset_set_bottomv
nkj:_AnalyticsTracker_BuildParameters_m43920649
Fsj:__ZL25UnresolvedVirtualCall_226P12Il2CppObject23SpriteState_t1362986479PK10MethodInfo
yJc:__Z28GUIStyleState_CUSTOM_CleanupP12Il2CppObject
xNg:_DateTimeFormatInfo_GetMonthName_m2034512315
v_b:__ZN28LightProbeProxyVolumeContext8CopyFromERKS_
w$h:_ReadOnlyCollection_1_System_Collections_Generic_IListU3CTU3E_Insert_m2489506856_gshared
mxa:__ZN23TransformChangeDispatch32QueueTransformChangeIfHasChangedER18TransformHierarchy
Vlh:_SimpleCollator_ToDashTypeValue_m6184468
qRb:__ZN7ApiGLES18DeleteRenderbufferERj
BQb:__ZL23ProgramUniformMatrix4fvPK7ApiGLESjiihPKv
DKb:__ZN7ApiGLES13CreateTextureEjj14GraphicsFormatiiiii
PBg:_Array_new_gap_m262136975
Rfc:__ZN9ShaderLab20SerializedSubProgram15MatrixParameter8TransferI14SafeBinaryReadEEvRT_
Smc:__ZL27GetComponentsImplementationILb0ELi1EEbR10GameObjectbRK17CompareParametersRK39GetComponentsImplementation_ReturnValue
U4f:_X509Store__ctor_m275383717
eKf:_Transform_INTERNAL_get_position_m1310184257
r6c:_Round_Down_To_Grid
oHj:__ZN6il2cpp2vm13MetadataCache40AddThreadLocalStaticOffsetForFieldLockedEP9FieldInfoiRKNS_2os12FastAutoLockE
Fza:__ZN13RenderTexture7ReleaseEv
yPc:__Z18Transfer_BlittableI8JSONReadLb1EN4math12int3_storageEEvRK29SerializationCommandArgumentsR31RuntimeSerializationCommandInfo
B_a:__ZN10MeshFilter23VirtualRedirectTransferER14SafeBinaryRead
uFe:__ZL64LayoutGroup_t2436138090_CustomAttributesCacheGenerator_m_PaddingP21CustomAttributesCache
I2f:_AsnEncodedData_get_Oid_m402887164
R0a:__ZN12MeshRenderer17MainThreadCleanupEv
Uzj:__ZN6il2cpp2vmL10InitLockedEP11Il2CppClassRKNS_2os12FastAutoLockE
bmb:__ZN22CreateGpuProgramOutput12CreateParamsEv
wN:__ZN10ObjectPoolIN4FMOD7ChannelENS0_8ChannelIEE7GetFreeEi
Bs:__ZL62__ManagedRegistrationHelperFunction_AnimatorOverrideControllerPv
J$h:_ReadOnlyCollection_1_System_Collections_IList_Insert_m177536056_gshared
_Cd:_FontData_get_font_m2720086288
R_e:_InternalEnumerator_1_System_Collections_IEnumerator_get_Current_m548105685_gshared
BOb:__ZNK14GfxContextGLES13GetDefaultFBOEv
qBi:__Z99RuntimeInvoker_Void_t1185182177_UILineInfoU5BU5DU26_t2468919161_Int32_t2950945753_Int32_t2950945753PFvvEPK10MethodInfoPvPS4_
QDg:_Byte_System_IConvertible_ToType_m2251112646
FEc:__Z55Register_UnityEngine_MonoBehaviour_StopCoroutineManagedv
hvi:__Z81RuntimeInvoker_Char_t3634460470_RuntimeObject_Int32_t2950945753_Int16_t2552820387PFvvEPK10MethodInfoPvPS4_
bLc:__GLOBAL__sub_I_artifacts_WebGL_codegenerator_0_cpp_3254
E5g:_DateTime_get_Hour_m4153505178_AdjustorThunk
jnj:_AudioExtensionManager_WriteExtensionProperties_m3028464154
bpg:_Evidence_Equals_m1478353107
$8i:_CostDelegate__ctor_m4027655829
gAc:__Z13GetImagePixelI10ColorRGBAfET_PKhii13TextureFormat15TextureWrapModeS5_ii
ZPi:_List_1_System_Collections_IList_set_Item_m1842844683_gshared
Wbi:_ObjectPool_1__ctor_m2535233435_gshared
zai:_EventFunction_1__ctor_m4292798223_gshared
GWj:__ZN6il2cpp2vm6Thread49CheckCurrentThreadForInterruptAndThrowIfNecessaryEv
X$g:_Convert_ToChar_m3757390865
pCa:__ZNSt3__23mapIN9ShaderLab16FastPropertyNameEN18UnityPropertySheet11UnityTexEnvENS_4lessIS2_EENS_9allocatorINS_4pairIKS2_S4_EEEEEixERS9_
EKb:__ZNK13TranslateGLES25GetTextureTargetDimensionEj
TOe:_RankException__ctor_m3453633632
k3h:_Comparison_1__ctor_m533218197_gshared
wBi:__Z96RuntimeInvoker_Void_t1185182177_Vector3U5BU5DU26_t3038522815_Int32_t2950945753_Int32_t2950945753PFvvEPK10MethodInfoPvPS4_
JYh:_ReadOnlyCollection_1_System_Collections_IList_Remove_m1842121503_gshared
CVg:_File_OpenRead_m2936789020
r5:__ZN9Scripting12LogExceptionE21ScriptingExceptionPtriPKcb
Zri:__Z94RuntimeInvoker_Void_t1185182177_RuntimeObject_PlayableGraph_t3515989261_RuntimeObject_IntPtr_tPFvvEPK10MethodInfoPvPS4_
Ii:_emscripten_glVertexAttrib4f
Qrb:__ZN14SafeBinaryRead21TransferSTLStyleArrayI13dynamic_arrayIN4math12int3_storageELj0EEEEvRT_17TransferMetaFlags
e5e:_InternalEnumerator_1_System_Collections_IEnumerator_Reset_m4072625129_AdjustorThunk
djc:__ZNSt3__26vectorIN20GpuProgramParameters14ConstantBufferENS_9allocatorIS2_EEE8__appendEj
C5f:_X509CertificateCollection_AddRange_m3683116910
S1e:_InternalEnumerator_1_Dispose_m1837758743_AdjustorThunk
Sxj:_CustomEventData_t317522481_marshal_pinvoke_cleanup
OQd:_SinkProviderData__ctor_m1624738837
Q$b:__ZN11HaloManager21ReleaseGeometryJobMemEP25DynamicVBOGeometryJobData
rVg:_DirectoryNotFoundException__ctor_m1689636868
Dui:__Z88RuntimeInvoker_RuntimeObject_RuntimeObject_SByte_t1669577662_RuntimeObject_RuntimeObjectPFvvEPK10MethodInfoPvPS4_
cZh:_ReadOnlyCollection_1_System_Collections_Generic_IListU3CTU3E_get_Item_m978644313_gshared
qUh:_Collection_1_get_Item_m2253972692_gshared
mHd:_RefEmitPermissionSet_t484390987_marshal_pinvoke_cleanup
BQe:_CustomAttributeTypedArgument_Equals_m2261980307
Wz:__ZN7mecanim12statemachine24CreateStateMachineMemoryEPKNS0_20StateMachineConstantERNS_6memory9AllocatorE
mjb:__ZN9GfxDevice18SetGlobalDepthBiasEff
BJj:__ZN6il2cpp6icalls8mscorlib6System8MonoType12get_AssemblyEP20Il2CppReflectionType
nXg:_IsolatedStorageException__ctor_m3386787868
oId:_TypeBuilder_MakeGenericType_m2799607032
a8f:_RepeatContext_get_Start_m1076992038
i2h:_ReadOnlyCollection_1_IndexOf_m3669095250_gshared
Wi:_emscripten_glGetPointerv
LPi:_List_1_System_Collections_Generic_IEnumerableU3CTU3E_GetEnumerator_m3687886202_gshared
kJi:_Dictionary_2_Do_CopyTo_TisKeyValuePair_2_t3842366416_TisRuntimeObject_m1564656153_gshared
aF:__ZN8Animator22ApplyBuiltinRootMotionEv
Lqc:__Z14BezierExtractUfff
UHb:__Z26ApplyMaterialPassWithCacheRK18SharedMaterialDataR17ShaderPassContextP6ShaderPN9ShaderLab4PassEibPKNS6_10GrabPassesEPNS6_11SubProgramsEPK22DeviceRenderStateBlock
Cmi:__Z55RuntimeInvoker_DateTime_t3738529785_TimeSpan_t881159249PFvvEPK10MethodInfoPvPS4_
Ehe:__ZL81Camera_t4157153871_CustomAttributesCacheGenerator_Camera_RaycastTry2D_m2460696262P21CustomAttributesCache
hMe:_MulticastDelegate_KPM_m22863605
x2e:_InternalEnumerator_1_get_Current_m1897120917_AdjustorThunk
GLe:_MonoType_ReorderParamArrayArguments_m2458683451
Rkf:_FormatterConverter_ToInt16_m4282804414
kki:__Z81RuntimeInvoker_Void_t1185182177_Int64_t3736567304_RuntimeObject_Int64_t3736567304PFvvEPK10MethodInfoPvPS4_
Uwd:_StandaloneInputModule_ProcessTouchPress_m4019232747
yVg:_FileStream__ctor_m3151488352
OBg:_Array_swap_m547389985
pUa:__ZN8Renderer23VirtualRedirectTransferER14SafeBinaryRead
KRh:_UInt32_ToString_m2420423038
_Mi:_List_1_System_Collections_IList_Add_m634558835_gshared
b2h:_ReadOnlyCollection_1_System_Collections_IList_get_IsFixedSize_m1923250479_gshared
aWg:_FileStream_get_Length_m426703983
Pyc:__Z13RegisterClassI10TagManagerEvPKc
sff:_Enumerator__ctor_m1558933899_AdjustorThunk
vde:__ZL88BigInteger_t2902905090_CustomAttributesCacheGenerator_BigInteger_op_Implicit_m3414367033P21CustomAttributesCache
cAj:__ZN6il2cpp2vmL15GetBitmapNoInitEP11Il2CppClassPjRjj
usj:__ZL25UnresolvedVirtualCall_215P12Il2CppObjectS0_iPK10MethodInfo
bUi:_List_1_Remove_m2092085040_gshared
Pcc:__ZL13MotionHandleriPK27EmscriptenDeviceMotionEventPv
WL:__ZN12AudioManager5ResetEv
tdi:__Z67RuntimeInvoker_Boolean_t97287965_RuntimeObject_SByteU26_t3619038962PFvvEPK10MethodInfoPvPS4_
$ge:__ZL68DisallowMultipleComponent_t1422053217_CustomAttributesCacheGeneratorP21CustomAttributesCache
WYh:_ReadOnlyCollection_1_get_Count_m1336304542_gshared
bGe:__ZL111LayoutUtility_t2745813735_CustomAttributesCacheGenerator_LayoutUtility_U3CGetPreferredHeightU3Em__6_m3049688934P21CustomAttributesCache
bia:__ZN6prcoreL17RemapGenericFloatI17TexFormatRGBAHalf15TexFormatRGHalfEEvPKNS_9InnerInfoE
iRj:__ZNK15dense_hashtableINSt3__24pairIK10KeyWrapperIPK14Il2CppAssemblyEPK22Il2CppMonoAssemblyNameEES6_N6il2cpp5utils11PointerHashIS4_EEN14dense_hash_mapIS6_SA_SF_NS6_14EqualsComparerINS0_8equal_toIS5_EEEENS0_9allocatorISB_EEE9SelectKeyESK_SM_E10test_emptyEj
V8j:__ZN6il2cpp6icalls8mscorlib6System11Environment20GetWindowsFolderPathEi
k$g:_Convert_ToBoolean_m2833752130
Ky:__ZN7mecanim5human18HumanPoseBlendNodeERNS0_9HumanPoseEPS1_f
K0c:_UNITY_FT_RoundFix
BX:__ZN23CloudWebServicesManager23VirtualRedirectTransferER17RemapPPtrTransfer
hUc:__ZN9Scripting11UnityEngine19PhysicsJobOptions2D12CleanupProxyEv
Bfk:_GC_is_heap_ptr
Nig:_HandshakeMessage_EncodeMessage_m3919107786
Poh:_ASN1_DecodeTLV_m1200977460
Axf:_UnityEventBase_PrepareInvoke_m1785382128
NId:__ZN23InterfaceActionInvoker2IP12Il2CppObjectP20Delegate_t1188392813E6InvokeEjP11Il2CppClassS1_S1_S3_
T0a:__ZNK12MeshRenderer22GetTypeVirtualInternalEv
jFg:_Char_System_IConvertible_ToUInt32_m3901815580
vVf:_Scrollbar_set_onValueChanged_m346467699
Kmi:__Z157RuntimeInvoker_Int32_t2950945753_RuntimeObject_Int32_t2950945753_Int32_t2950945753_Int32_t2950945753_SByte_t1669577662_SByte_t1669577662_Int32U26_t1369213839PFvvEPK10MethodInfoPvPS4_
Abi:_ListPool_1_Release_m957266927_gshared
y5d:__ZL105ConfigHandler_t4192437216_CustomAttributesCacheGenerator_ConfigHandler_ValidatePath_m3895556516____paths1P21CustomAttributesCache
TO:__ZN4FMOD6System17setSoftwareFormatEi17FMOD_SOUND_FORMATii18FMOD_DSP_RESAMPLER
mMa:__ZN14SafeBinaryRead19TransferSTLStyleMapINSt3__23mapIN4core12basic_stringIcNS3_20StringStorageDefaultIcEEEES7_NS1_4lessIS7_EE13stl_allocatorINS1_4pairIKS7_S7_EEL18MemLabelIdentifier1ELi16EEEEEEvRT_17TransferMetaFlags
js:__ZL49__ManagedRegistrationHelperFunction_AimConstraintPv
lgd:__ZN2UI6Canvas27UpdateEventIndexesRecursiveERi
BY:__ZN11UnityEngine15CloudWebService16SessionContainer21PrepareDataErrorEventERN4core12basic_stringIcNS2_20StringStorageDefaultIcEEEE
iud:_ExecuteEvents_get_pointerUpHandler_m3515704212
dGg:_ArrayList_set_Item_m2003485935
E9j:__ZNSt3__218uninitialized_copyIPNS_4pairIK10KeyWrapperIPK19Il2CppGenericMethodEP10MethodInfoEESB_EET0_T_SD_SC_
vOd:_SatelliteContractVersionAttribute__ctor_m3630863995
ybe:__ZL79Convert_t2465617642_CustomAttributesCacheGenerator_Convert_ToUInt64_m3102114524P21CustomAttributesCache
bwd:_MouseButtonEventData_PressedThisFrame_m1060658845
Hrd:_AxisEventData_get_moveVector_m270528189
vxb:__Z19TransferField_ArrayI19StreamedBinaryWriteILb0EE27Converter_SimpleNativeClassI8GUIStyleEEvRK23StaticTransferFieldInfoR31RuntimeSerializationCommandInfoRT0_
dYb:__Z27SetClippingPlaneShaderPropsR9GfxDevice
bZh:_ReadOnlyCollection_1_System_Collections_Generic_IListU3CTU3E_RemoveAt_m3969985996_gshared
nue:__ZL83AudioSource_t3935305588_CustomAttributesCacheGenerator_AudioSource_Play_m3389845180P21CustomAttributesCache
DEa:__Z28BuildSingleStreamChannelInfoP11ChannelInfo17ShaderChannelMaskS1_
MYa:__ZNK13ScreenManager12GetIsFocusedEv
rCf:_PlayerConnection_get_isConnected_m911966057
WEd:_GraphicRegistry_GetGraphicsForCanvas_m4219276355
cXg:__ZN23InterfaceActionInvoker3IP22ByteU5BU5D_t4116647657iiE6InvokeEjP11Il2CppClassP12Il2CppObjectS1_ii
BMe:_NumberFormatter_FastToDecHex_m699829267
eaj:_PatternCompiler_MakeFlags_m1977119795
mPc:__Z35Transfer_Blittable_FixedBufferFieldI8JSONReadiEvRK29SerializationCommandArgumentsR31RuntimeSerializationCommandInfo
f6d:__ZL59StreamingContext_t3711869237_CustomAttributesCacheGeneratorP21CustomAttributesCache
ZHj:__ZNSt3__213__vector_baseIN6il2cpp2os19SocketHandleWrapperENS_9allocatorIS3_EEED2Ev
PZd:__ZL48_Type_t3588564251_CustomAttributesCacheGeneratorP21CustomAttributesCache
MBe:__ZL81FontUpdateTracker_t1839077620_CustomAttributesCacheGenerator_U3CU3Ef__mgU24cache0P21CustomAttributesCache
YUa:__ZN28ReflectionProbeAnchorManager18RemoveCachedAnchorERK4PPtrI9TransformE
$b:invoke_viiffi
e0d:__ZL103RegionInfo_t1090270226_CustomAttributesCacheGenerator_RegionInfo_t1090270226____NativeName_PropertyInfoP21CustomAttributesCache
zac:__ZN13sorted_vectorINSt3__24pairIN4core12basic_stringIcNS2_20StringStorageDefaultIcEEEEPK17MessageIdentifierEEN10vector_mapIS6_S9_NS0_4lessIS6_EENS0_9allocatorISA_EEE13value_compareESF_E10insert_oneERKSA_
_E:__ZNSt3__227__insertion_sort_incompleteIRPFbPKN8Animator11AnimatorJobES4_EPS4_EEbT0_S9_T_
lY:__ZNSt3__26__treeINS_12__value_typeIN4core12basic_stringIcNS2_20StringStorageDefaultIcEEEEjEENS_19__map_value_compareIS6_S7_NS_4lessIS6_EELb1EEE13stl_allocatorIS7_L18MemLabelIdentifier88ELi16EEE4findIS6_EENS_15__tree_iteratorIS7_PNS_11__tree_nodeIS7_PvEEiEERKT_
zSc:__ZN5Unity9rapidjson13GenericReaderINS0_4UTF8IcEES3_13JSONAllocatorE10ParseFalseILj0ENS0_19GenericStringStreamIS3_EENS0_15GenericDocumentIS3_S4_S4_EEEEvRT0_RT1_
QCa:__ZL13MeshExtractorPv16VertexInputMasksiR11MeshBuffersR16DrawBuffersRangeRiS5_
oQa:__ZNK12CubemapArray20GetRuntimeMemorySizeEv
SNh:_TimeSpan_FromHours_m1109641064
Ngc:__Z14resize_trimmedINSt3__26vectorIN9ShaderLab18SerializedPropertyENS0_9allocatorIS3_EEEEEvRT_j
msb:__Z18Transfer_BlittableI17RemapPPtrTransferLb0EN4math12int3_storageEEvRK29SerializationCommandArgumentsR31RuntimeSerializationCommandInfo
Dge:__ZL92StaticAccessorAttribute_t2432663902_CustomAttributesCacheGenerator_U3CNameU3Ek__BackingFieldP21CustomAttributesCache
O3e:_InternalEnumerator_1__ctor_m4124630986_gshared
BFj:__ZN6il2cpp2vm13MetadataCache38GetMethodInfoFromMethodDefinitionIndexEi
Vsd:_EventSystem_set_current_m38955169
sEc:__Z39MonoBehaviour_CUSTOM_GetScriptClassNameP12Il2CppObject
TDe:__ZL53Selectable_t3250028441_CustomAttributesCacheGeneratorP21CustomAttributesCache
f9i:_CostDelegate_EndInvoke_m2797921932
yXa:__ZN10VertexData8TransferI24GenerateTypeTreeTransferEEvRT_
A$g:_Double_IsInfinity_m820013146
C1g:__ZN21InterfaceFuncInvoker1I19Decimal_t2948259380P12Il2CppObjectE6InvokeEjP11Il2CppClassS2_S2_
j9j:__ZN13Il2CppHashMapIPK19Il2CppGenericMethodP10MethodInfoN6il2cpp8metadata23Il2CppGenericMethodHashENS6_26Il2CppGenericMethodCompareENSt3__29allocatorINS9_4pairIK10KeyWrapperIS2_ES4_EEEEEC2EjRKS7_RKS8_
OMi:_List_1_TrimExcess_m440552561_gshared
kIf:_Screen_get_dpi_m495672463
qKh:_UTF8Encoding_InternalGetByteCount_m2120178851
vge:__ZL130NativeTypeAttribute_t2250406315_CustomAttributesCacheGenerator_NativeTypeAttribute_set_IntermediateScriptingStructName_m3613994509P21CustomAttributesCache
Y4b:__ZL10CullLightsRK22SceneCullingParametersR11CullResults
v4g:_Convert_ToUInt64_m3170916409
mrd:__ZN9Scripting11UnityEngine12Experimental2XR14ReferencePoint12CleanupProxyEv
JSg:_Int64_System_IConvertible_ToInt16_m4062196970_AdjustorThunk
bMe:_MonoType_GetGenericTypeDefinition_m3201894896
jpc:__Z40GetTemporaryCachePathApplicationSpecificv
Phb:__ZN9GfxDevice16EndAsyncJobFrameEv
lwi:__Z99RuntimeInvoker_Int32_t2950945753_Ray_t3785851493_RuntimeObject_Single_t1397266774_Int32_t2950945753PFvvEPK10MethodInfoPvPS4_
GPj:__ZNK15dense_hashtableINSt3__24pairIK10KeyWrapperINS1_IPK12PropertyInfoP11Il2CppClassEEEjEES9_17ReflectionMapHashIS8_EN14dense_hash_mapIS9_jSD_NS9_14EqualsComparerINS0_8equal_toIS8_EEEENS0_9allocatorISB_EEE9SelectKeyESI_SK_E10test_emptyERK30dense_hashtable_const_iteratorISB_S9_SD_SM_SI_SK_E
v3c:_UNITY_tt_face_load_hhea
eSe:_DerivedType_get_Assembly_m2979298667
o6j:__ZN15dense_hashtableINSt3__24pairIK10KeyWrapperIPcES3_EES4_N6il2cpp5utils15PassThroughHashIS3_EEN14dense_hash_mapIS4_S3_SA_NS4_14EqualsComparerINS0_8equal_toIS3_EEEENS0_9allocatorIS6_EEE9SelectKeyESF_SH_E16reset_thresholdsEv
Uk:___syscall3
oje:__ZL95MonoBehaviour_t3962482529_CustomAttributesCacheGenerator_MonoBehaviour_CancelInvoke_m3252264575P21CustomAttributesCache
Xk:___syscall6
Tib:__ZN9GfxDevice15GetNextCPUFenceEv
Zk:___syscall4
PRe:_DerivedType_GetMethods_m3787404845
IVd:_ReturnMessage__ctor_m2352989078
Lgb:__ZNSt3__26__treeINS_12__value_typeIN4core12basic_stringIcNS2_20StringStorageDefaultIcEEEEPN16MemoryFileSystem4NodeEEENS_19__map_value_compareIS6_SA_NS_4lessIS6_EELb1EEE13stl_allocatorISA_L18MemLabelIdentifier55ELi16EEE7destroyEPNS_11__tree_nodeISA_PvEE
_si:__Z67RuntimeInvoker_Boolean_t97287965_TextGenerationSettings_t1351628751PFvvEPK10MethodInfoPvPS4_
$4j:__ZN6il2cpp2vm3RCW14QueryInterfaceILb1EEEP14Il2CppIUnknownP15Il2CppComObjectRK10Il2CppGuid
tgg:_TlsServerCertificateRequest__ctor_m1334974076
aTc:__ZN27PerformanceReportingManager23VirtualRedirectTransferER14SafeBinaryRead
t2g:_Convert_ToInt32_m1613163543
XBi:__Z52RuntimeInvoker_TimeSpan_t881159249_Int32_t2950945753PFvvEPK10MethodInfoPvPS4_
ioa:__ZN9Scripting11UnityEngine9Playables8Playable12CleanupProxyEv
BYh:_ReadOnlyCollection_1_System_Collections_ICollection_CopyTo_m3127175806_gshared
ml:_emscripten_glShaderBinary
Bpg:_String_op_Inequality_m215368492
OZ:__ZN15DownloadHandler19OnFinishReceiveDataEv
RQh:_UInt16_ToString_m760649087
Kcb:__ZNK20LocalFileSystemPosix6ExistsERK13FileEntryData
mni:__Z21RuntimeInvoker_Guid_tPFvvEPK10MethodInfoPvPS4_
koi:__Z46RuntimeInvoker_CipherAlgorithmType_t1174400495PFvvEPK10MethodInfoPvPS4_
quf:_Camera_GetAllCameras_m668492922
odd:__Z58Register_UnityEngine_Canvas_GetETC1SupportedCanvasMaterialv
gOh:_TimeSpan_op_Inequality_m2467851530
_zb:__ZN17AnimationCurveTplIfE8TransferI18StreamedBinaryReadILb1EEEEvRT_
qUd:__ZN28GenericInterfaceFuncInvoker1IP12Il2CppObjectP23HeaderU5BU5D_t204812840E6InvokeEPK10MethodInfoS1_S3_
lIi:_Array_Sort_TisUIVertex_t4057497605_m3996333845_gshared
ahg:_Context_get_ReceivedConnectionEnd_m4011125537
ong:_ToBase64Transform_get_CanReuseTransform_m702204640
lri:__Z53RuntimeInvoker_PropertyName_t3749835189_RuntimeObjectPFvvEPK10MethodInfoPvPS4_
gCg:_Swapper_BeginInvoke_m1688449973
ewf:_Display_get_renderingWidth_m1970428952
Yjj:_U3CTimedTriggerU3Ec__Iterator0_MoveNext_m825792986
ewa:__ZN16LevelGameManager23VirtualRedirectTransferER19StreamedBinaryWriteILb0EE
ooi:__Z81RuntimeInvoker_Void_t1185182177_RuntimeObject_Int32_t2950945753_Int64_t3736567304PFvvEPK10MethodInfoPvPS4_
rXa:__Z32TransferEnumWithNameForceIntSizeI14SafeBinaryRead16GfxPrimitiveTypeEvRT_RT0_PKc17TransferMetaFlags
jJ:__ZNSt3__26vectorIN4core12basic_stringIcNS1_20StringStorageDefaultIcEEEE13stl_allocatorIS5_L18MemLabelIdentifier1ELi16EEE21__push_back_slow_pathIS5_EEvOT_
gje:__ZL92Mesh_t3648964284_CustomAttributesCacheGenerator_Mesh_SetTriangles_m2205169959____baseVertex3P21CustomAttributesCache
Dzi:__Z52RuntimeInvoker_Int32_t2950945753_HitInfo_t3229609740PFvvEPK10MethodInfoPvPS4_
Oki:__Z86RuntimeInvoker_Boolean_t97287965_Int16_t2552820387_Int16_t2552820387_Int32_t2950945753PFvvEPK10MethodInfoPvPS4_
X9d:__ZL80Convert_t2465617642_CustomAttributesCacheGenerator_Convert_ToBoolean_m2807110707P21CustomAttributesCache
WXd:__ZL72Enum_t4135868527_CustomAttributesCacheGenerator_Enum_GetName_m2151614395P21CustomAttributesCache
Tai:_IndexedSet_1_IndexOf_m241693686_gshared
tkd:__ZN11UnityEngine15PlatformWrapper30GetGraphicsDriverLibraryStringEv
wnf:_RuntimeMethodHandle_Equals_m3301340296_AdjustorThunk
gSh:_UInt64_System_IConvertible_ToSingle_m925613075_AdjustorThunk
hpj:__ZL24UnresolvedVirtualCall_40P12Il2CppObjectS0_PK10MethodInfo
Vbi:_ListPool_1__cctor_m704263611_gshared
vBb:__Z18Transfer_BlittableI18StreamedBinaryReadILb0EELb0E4AABBEvRK29SerializationCommandArgumentsR31RuntimeSerializationCommandInfo
k5a:__ZN24GenerateTypeTreeTransfer19TransferSTLStyleMapINSt3__28multimapIN4core12basic_stringIcNS3_20StringStorageDefaultIcEEEE4PPtrI6ObjectENS1_4lessIS7_EE13stl_allocatorINS1_4pairIKS7_SA_EEL18MemLabelIdentifier52ELi16EEEEEEvRT_17TransferMetaFlags
Qt:__ZN16MecanimAnimation24DeleteAnimatedPropertiesERP26IAnimatedPropertyEvaluator
rvj:_CanvasRenderer_SetMaterial_m824577244
TWb:__Z14DrawGUITextureRK5RectTIfEP7Texture11ColorRGBA32P8Materiali
ame:__ZL84RectOffset_t1369453676_CustomAttributesCacheGenerator_RectOffset_Cleanup_m2552807639P21CustomAttributesCache
cLa:__ZNK15PlayableMethods18InvokeProcessFrameER18ScriptingObjectPtrRK9HPlayableP18ScriptingFrameDataRK9FrameData
LD:__ZN9BlobWrite8TransferI22OffsetPtrArrayTransferIKN4math7_float4EEEEvRT_PKc17TransferMetaFlags
FKf:_Transform_IsChildOf_m224006092
eKa:__ZN15TextureSettings8TransferI24GenerateTypeTreeTransferEEvRT_
XOc:__ZN9JSONWrite8TransferI4AABBEEvRT_PKc17TransferMetaFlags
Qec:__ZN15dense_hashtableINSt3__24pairIKiN4core17string_with_labelILi1EEEEEi18SInt32HashFunctionN14dense_hash_mapIiS5_S7_NS0_8equal_toIiEE13stl_allocatorIS6_L18MemLabelIdentifier1ELi16EEE9SelectKeyESA_SD_E12expand_arrayEjN21dense_hash_map_traits17integral_constantIbLb0EEE
JGh:_List_1_Clear_m2154023298_gshared
Lrc:__Z13RegisterClassI15QualitySettingsEvPKc
Apj:__ZL24UnresolvedVirtualCall_59P12Il2CppObjectiPK10MethodInfo
Crd:_AbstractEventData_get_used_m2991176710
Cwi:__Z94RuntimeInvoker_Void_t1185182177_ObjectU5BU5DU26_t712384779_Int32_t2950945753_Int32_t2950945753PFvvEPK10MethodInfoPvPS4_
Uzi:__Z71RuntimeInvoker_Void_t1185182177_CustomAttributeNamedArgument_t287865710PFvvEPK10MethodInfoPvPS4_
Ar:__ZN13ConstraintJob17ConstraintJobDataD2Ev
Vij:_Aes__ctor_m178909601
QQa:__ZNK9Texture2D20GetRuntimeMemorySizeEv
LUd:_MethodCall_get_MethodSignature_m2407904958
ySc:__ZN5Unity9rapidjson13GenericReaderINS0_4UTF8IcEES3_13JSONAllocatorE9ParseTrueILj0ENS0_19GenericStringStreamIS3_EENS0_15GenericDocumentIS3_S4_S4_EEEEvRT0_RT1_
ZRi:_List_1_Clear_m2003943277_gshared
vm:_emscripten_glUniform2iv
tka:__ZL46__ManagedRegistrationHelperFunction_ColorGamutPv
iJh:_UnicodeEncoding_CopyChars_m785272451
cBh:_Enumerator_Dispose_m1204547613_AdjustorThunk
EYc:_UNITY_FT_Outline_Transform
Flc:__Z60Register_UnityEngine_Sprites_DataUtility_Internal_GetMinSizev
nge:__ZL118NativeMethodAttribute_t4187428193_CustomAttributesCacheGenerator_NativeMethodAttribute_set_HasExplicitThis_m2961870915P21CustomAttributesCache
vAj:__ZN6il2cpp2vm5Class10GetMethodsEP11Il2CppClassPPv
Iod:__ZNK25UnityWebRequestJavaScript17GetUploadProgressEv
D0b:__Z30AddDefaultStreamsToMeshBuffersR9GfxDeviceR11MeshBuffersRK16DrawBuffersRange17ShaderChannelMaskS6_
tOi:_List_1_GetEnumerator_m1430071802_gshared
TQb:__ZN7ApiGLES17DeleteFramebufferERN2gl6HandleILNS0_10ObjectTypeE9EEES3_
kTb:__ZN15UniformTFMethod13MapBoneBufferEj
ebd:__ZN2UI14CanvasRendererD2Ev
NKi:_Array_InternalArray__get_Item_TisParameterModifier_t1461694466_m29553316_gshared
$Sg:_Int64_CompareTo_m1928360444_AdjustorThunk
pSj:__ZN15dense_hashtableINSt3__24pairIK10KeyWrapperINS1_IPK9EventInfoP11Il2CppClassEEEjEES9_17ReflectionMapHashIS8_EN14dense_hash_mapIS9_jSD_NS9_14EqualsComparerINS0_8equal_toIS8_EEEENS0_9allocatorISB_EEE9SelectKeyESI_SK_E15set_deleted_keyERKSB_
KGb:__Z9SetupArgviPPKc
O2g:_Convert_ToInt64_m2075031821
mme:__ZL111ScriptableObject_t2528358522_CustomAttributesCacheGenerator_ScriptableObject_CreateScriptableObject_m3504774547P21CustomAttributesCache
m0e:_InternalEnumerator_1__ctor_m236665673_gshared
Ujj:_AnalyticsEventTracker_OnDisable_m1553012800
iyk:_glTexParameteri__wrapper
fta:__ZN12ImmediatePtrI10GameObjectE8TransferI19StreamedBinaryWriteILb0EEEEvRT_
sQa:__ZN12CubemapArray23VirtualRedirectTransferER24GenerateTypeTreeTransfer
zka:__ZL49__ManagedRegistrationHelperFunction_RenderTexturePv
HFa:__ZNSt3__26vectorI4PPtrI6ShaderE13stl_allocatorIS3_L18MemLabelIdentifier53ELi16EEE8__appendEj
H8j:__ZN6il2cpp2os9Directory6CreateERKNSt3__212basic_stringIcNS2_11char_traitsIcEENS2_9allocatorIcEEEEPi
SFa:__ZN4PPtrI6ShaderE8TransferI18StreamedBinaryReadILb0EEEEvRT_
jxa:__ZN23TransformChangeDispatch32QueueTransformChangeIfHasChangedERK15TransformAccess
reb:__ZN15ArchiveReadFile5WriteEyPKvPy
$Oe:_Assembly_get_FullName_m293988418
Utf:_Camera_get_pixelRect_Injected_m2326986893
VZc:__ZNSt3__26__treeINS_12__value_typeIN20TextRenderingPrivate7FontRefENS2_6OSFontEEENS_19__map_value_compareIS3_S5_NS_4lessIS3_EELb1EEENS_9allocatorIS5_EEE12__find_equalIS3_EERPNS_16__tree_node_baseIPvEESI_RKT_
B:tempValue
qAb:__ZN18StreamedBinaryReadILb1EE21TransferSTLStyleArrayI13dynamic_arrayI8Vector4fLj0EEEEvRT_17TransferMetaFlags
bcc:__Z29StdTemplateConversionFunctionIaiEbPvR14SafeBinaryRead
qjk:__ZN6il2cpp8metadata24Il2CppGenericContextHash4HashEPK20Il2CppGenericContext
F0e:_InternalEnumerator_1_get_Current_m356936020_AdjustorThunk
BXb:__ZN6Camera21RenderODSWorldTextureERK11CullResultsRK19SharedRendererSceneR17ShaderPassContextNS_10RenderFlagE
oSg:_Int32_ToString_m141394615_AdjustorThunk
U5:__Z29scripting_class_from_fullnamePKcS0_S0_
XUg:_Directory_GetCurrentDirectory_m219218555
Cyg:_SmallXmlParser_UnexpectedEndError_m1914362401
oA:__ZN26AnimatorControllerPlayable18DeallocateBindingsEv
M5d:__ZL61FormatterTypeStyle_t3400733584_CustomAttributesCacheGeneratorP21CustomAttributesCache
Dlb:__ZN14DelayedDeletorI15dense_hashtableINSt3__24pairIK9TextureIDiEES3_14GfxGenericHashIS3_EN14GfxDoubleCacheIS3_iS7_NS1_8equal_toIS3_EEN31GfxDoubleCacheConcurrencyPolicy11LocklessGetE42GfxDoubleCacheDefaultEmptyDeletedGeneratorIS3_EE9SelectKeyESA_13stl_allocatorIS5_L18MemLabelIdentifier24ELi16EEEEclEv
UR:__ZN11AudioSource19CreateOpenALRolloffEfff
p3c:_UNITY_FT_Stream_ReadAt
Znj:_AudioSampleProvider_Dispose_m1993565764
fNh:_TimeSpan__ctor_m1896986612_AdjustorThunk
KEj:__ZN15dense_hashtableINSt3__24pairIK10KeyWrapperIN6il2cpp5utils13dynamic_arrayIPK10Il2CppTypeLj4EEEEPFvvEEESA_NS3_8metadata19Il2CppSignatureHashEN14dense_hash_mapISA_SD_SG_NSA_14EqualsComparerINSF_22Il2CppSignatureCompareEEENS0_9allocatorISE_EEE9SelectKeyESK_SM_E9set_valueEPSE_RKSE_
Ewg:_ArgumentException__ctor_m1216717135
xFf:_Ray_ToString_m1732834890_AdjustorThunk
LOc:__ZN9JSONWrite8TransferI13dynamic_arrayI5RectTIfELj0EEEEvRT_PKc17TransferMetaFlags
PPi:_List_1_System_Collections_IList_Contains_m3860993176_gshared
AV:__ZN11AudioModule22CreateAudioClipFromWWWEP10IWWWStreamPKcbbi
puc:__ZN9Texture2DC2E10MemLabelId18ObjectCreationMode
cKb:__Z17DebugStringToFileIA59_cEvRKT_iPKci15LogMessageFlagsiiPFvRK11CppLogEntryE
Ri:_emscripten_glRotatef
VQh:_UInt32_System_IConvertible_ToBoolean_m1763673183_AdjustorThunk
uxf:_UnityEvent_AddListener_m2276267359
hr:__Z9SetLocalR15TransformAccessRKN4math7_float4Ey
Fqi:__Z35RuntimeInvoker_RangeInt_t2094684618PFvvEPK10MethodInfoPvPS4_
lIa:__ZN6prcoreL11inner_clearILj4EEEvPhjjj
IUd:_MethodCall_get_Args_m148309537
kVd:_DictionaryEnumerator_get_Value_m2166220004
Cyj:_NativeTypeAttribute__ctor_m1677513894
Imj:_PCMReaderCallback_BeginInvoke_m3391809637
K0:__GLOBAL__sub_I_Runtime_SceneManager_0_cpp
mfi:__Z74RuntimeInvoker_Void_t1185182177_RuntimeObject_StreamingContext_t3711869237PFvvEPK10MethodInfoPvPS4_
Vek:_GC_initialize_offsets
kea:__ZNK8Playable6HandleEv
HNf:_SetPropertyUtility_SetColor_m2229203028
Wpk:___cxa_guard_abort
h8:__ZN14MessageHandler28MessageIDToMessageIdentifierEi
bYa:__ZNK11SpriteAtlas20GetRuntimeRenderDataEPK6Sprite
NUg:_FileSystemInfo__ctor_m3035148496
L1a:__ZNSt3__26__treeINS_12__value_typeIN4core12basic_stringIcNS2_20StringStorageDefaultIcEEEEiEENS_19__map_value_compareIS6_S7_NS_4lessIS6_EELb1EEENS_9allocatorIS7_EEE4findIS6_EENS_15__tree_iteratorIS7_PNS_11__tree_nodeIS7_PvEEiEERKT_
HRg:_Int32_System_IConvertible_ToDecimal_m2190376994_AdjustorThunk
IBh:_KeyValuePair_2_set_Key_m2121548577_AdjustorThunk
wCi:__Z46RuntimeInvoker_RefEmitPermissionSet_t484390987PFvvEPK10MethodInfoPvPS4_
L8d:__ZL88UTF7Encoding_t2644108479_CustomAttributesCacheGenerator_UTF7Encoding_GetBytes_m521917477P21CustomAttributesCache
rma:__ZL43__ManagedRegistrationHelperFunction_Vector4Pv
my:__ZN7mecanim14ValueArrayCopyILb0EEEvPKNS_10ValueArrayEPS1_
BJ:__Z51Register_UnityEngine_Animator_get_hasBoundPlayablesv
s_i:_Collection_1_CopyTo_m3142835220_gshared
Dd:emscriptenWebGLGetUniform
ro:FUNCTION_TABLE_iiiiiiiiiii
fgj:_GUI_CallWindowDelegate_m3309453386
I1c:_cff_set_mm_blend
nUb:__ZN19GfxThreadableDevice15OnDeviceCreatedEb
Q6b:__ZL10CleanUpJobP20CullingGroupsJobData
B0b:__Z20IsRunningNativeTestsv
JUg:_DirectoryInfo_get_Exists_m3142069876
A_a:__ZN10MeshFilter23VirtualRedirectTransferER24GenerateTypeTreeTransfer
Mrc:__Z13RegisterClassI16LightmapSettingsEvPKc
KWb:__ZN13RenderManager15BatchModeUpdateEv
H5h:_Predicate_1__ctor_m327447107_gshared
R4f:_X509Chain_get_CertificateAuthorities_m804805415
g1b:__Z14SetupLightmapsRK8Vector4fS1_R17ShaderPassContext
CHf:_Vector2_get_one_m738793577
lAc:__ZNK4Mesh14GetIndexFormatEv
xid:__ZN9Scripting11UnityEngine9Analytics21AnalyticsSessionState9InitProxyEv
QAh:_GenericEqualityComparer_1__ctor_m4072188982_gshared
ufj:_UriParser_set_DefaultPort_m4007715058
r4j:__ZN14dense_hash_mapI10KeyWrapperIP12Il2CppObjectEN6il2cpp2gc9CachedCCWENS4_5utils11PointerHashIS1_EENS3_14EqualsComparerINSt3__28equal_toIS2_EEEENSB_9allocatorINSB_4pairIKS3_S6_EEEEE13set_empty_keyERSH_
Ykj:_FieldWithTarget__ctor_m583221563
gd:_glVertexAttribIPointer
$yf:_Input_GetAxisRaw_m2316819917
ulc:__ZNK6Sprite10GetPaddingE20SpriteRenderDataMode
Pdh:_Array_InternalArray__ICollection_Remove_TisUInt32_t2560061978_m733727733_gshared
Lof:_CryptographicException__ctor_m503735289
VTd:_ConstructionCall_get_CallSiteActivationAttributes_m3498917408
uWg:_Stream_EndRead_m1896469262
Eci:__Z93RuntimeInvoker_Boolean_t97287965_Int32_t2950945753_SByte_t1669577662_ExceptionU26_t3600731591PFvvEPK10MethodInfoPvPS4_
k_b:__ZN14qsort_internal5QSortIP15RODataDepthPassi17ROSorterDepthPassEEvT_S4_T0_T1_
_3c:_UNITY_ft_glyphslot_alloc_bitmap
VWh:_ReadOnlyCollection_1_System_Collections_IList_Add_m3642938800_gshared
Tjg:_RSASslSignatureDeformatter_SetHashAlgorithm_m895570787
r4:__ZL36TransformAccessArray_InitializeClassPv
v8i:_X509CrlEntry__ctor_m4013514048
xDj:__ZN15dense_hashtableI10KeyWrapperIPK17Il2CppGenericInstES4_N6il2cpp8metadata21Il2CppGenericInstHashEN14dense_hash_setIS4_S7_NS4_14EqualsComparerINS6_24Il2CppGenericInstCompareEEENSt3__29allocatorIS4_EEE8IdentityESB_SE_E16reset_thresholdsEv
xqi:__Z87RuntimeInvoker_Color_t2555686324_Color_t2555686324_Color_t2555686324_Single_t1397266774PFvvEPK10MethodInfoPvPS4_
O8c:_ft_raster1_render
xVh:_Collection_1_System_Collections_IList_get_IsReadOnly_m2288996004_gshared
LFc:__Z47Register_UnityEngine_Mesh_RecalculateBoundsImplv
aib:__ZN9GfxDevice27UpdateComputeSkinPoseBufferEP9GfxBufferP12SkinMeshInfo
tEh:_Enumerator_get_Current_m3382684163_AdjustorThunk
kYe:_InternalEnumerator_1_System_Collections_IEnumerator_Reset_m3677481164_AdjustorThunk
Gok:__ZNKSt3__221__basic_string_commonILb1EE20__throw_length_errorEv
Yxh:_EqualityComparer_1_System_Collections_IEqualityComparer_Equals_m245992594_gshared
vmi:__Z52RuntimeInvoker_UInt64_t4134040092_Single_t1397266774PFvvEPK10MethodInfoPvPS4_
Ahh:_Array_InternalArray__IndexOf_TisParameterModifier_t1461694466_m1227120810_gshared
CRb:__ZN18GfxFramebufferGLES13ReadbackImageER14ImageReferenceiiiiii
BLc:__ZN5Unity9rapidjson6WriterI16TempBufferWriterNS0_4UTF8IcEES4_13JSONAllocatorE11WriteStringEPKcj
oye:__ZL95WebRequestUtils_t3541624225_CustomAttributesCacheGenerator_WebRequestUtils_RedirectTo_m55747000P21CustomAttributesCache
Cia:__ZN6prcoreL12RemapGenericI17TexFormatARGB888815TexFormatRGB565EEvPKNS_9InnerInfoE
fN:__ZN4FMOD7Channel19setReverbPropertiesEPK29FMOD_REVERB_CHANNELPROPERTIES
Rkj:_StandardEventPayload_GetParameters_m2672427676
IYg:_StreamReader_Dispose_m156389394
I7:__ZN13MonoBehaviour22GetScriptFullClassNameEv
FVj:_il2cpp_object_get_class
hng:_SymmetricAlgorithm_get_Padding_m1011382560
fyc:__ZN13ProduceHelperI11MonoManagerLb0EE7ProduceE10MemLabelId18ObjectCreationMode
Q2i:_RIPEMD160Managed_JJ_m112143231
wZb:__ZN13BatchRendererC2ER15RenderLoopStatsRK15RenderNodeQueuebb
L7e:_Comparer_1__ctor_m191896560_gshared
Wmh:_PreviousInfo_t2148130204_marshal_pinvoke_back
zgb:__ZNK16MemoryFileSystem9EnumerateEPKcP19dynamic_block_arrayI13FileEntryInfoLj32EEbPPv19FileEnumerationFlag
UEb:__ZN13MonoBehaviour9CallAwakeEv
$Ha:__ZN20SphericalHarmonicsL211AddWeightedERKS_f
Hfi:__Z82RuntimeInvoker_RuntimeObject_Int64_t3736567304_Int64_t3736567304_Int64_t3736567304PFvvEPK10MethodInfoPvPS4_
ztb:__Z19TransferField_ArrayI17RemapPPtrTransfer27Converter_SimpleNativeClassI8GUIStyleEEvRK23StaticTransferFieldInfoR31RuntimeSerializationCommandInfoRT0_
G2:__ZL22StaticInitializeShaderPv
pMc:__ZN9JSONWrite8TransferI10ColorRGBAfEEvRT_PKc17TransferMetaFlags
Pnd:__ZN11UnityEngine9Analytics22EventLimitResumedEventC2EjRKN4core12basic_stringIcNS2_20StringStorageDefaultIcEEEEb
r4e:_InternalEnumerator_1__ctor_m3913006324_AdjustorThunk
b8:__Z25scripting_method_get_name18ScriptingMethodPtr
ckg:_SslCipherSuite_ComputeKeys_m661027754
U4e:_InternalEnumerator_1__ctor_m3322594868_gshared
gDf:_Object_set_name_m291480324
_ke:__ZL68UpdateCanvasRectTransform_t1832875547_CustomAttributesCacheGeneratorP21CustomAttributesCache
o$g:_Convert_ToBoolean_m481380807
w8g:_Decimal_Equals_m2486655999
Xek:_GC_exit_check
NPe:_AssemblyName_SetPublicKeyToken_m582470133
iri:__Z52RuntimeInvoker_Boolean_t97287965_HitInfo_t3229609740PFvvEPK10MethodInfoPvPS4_
wQ:__ZNK4PPtrI9AudioClipEcvPS0_Ev
B6:__Z20UnlockObjectCreationv
A3h:__ZN16VirtFuncInvoker2Ii19Color32_t2600501292S0_E6InvokeEjP12Il2CppObjectS0_S0_
D1b:__Z34SetupObjectBakedOcclusionInForwardbRK15SharedLightDataRK26SharedLightmapSettingsDataRK15LightmapIndicesR17ShaderPassContext
Kph:_DSAManaged_get_Random_m923751780
v4:__ZL29TransformAccessChangeCallbackPK15TransformAccessj
KLf:_Vector3_set_Item_m1772472431_AdjustorThunk
K7f:_Interpreter_PopulateGroup_m4042796257
zod:__ZN9Scripting11UnityEngine10Networking18CertificateHandler9InitProxyEv
hrd:__ZN9Scripting11UnityEngine12Experimental2XR13TrackableType9InitProxyEv
oPh:_Type_GetProperty_m3414567179
t$j:__ZN6il2cpp2vm13LivenessState25FieldCanContainReferencesEP9FieldInfo
Tac:__ZNSt3__26vectorINS_4pairIN4core12basic_stringIcNS2_20StringStorageDefaultIcEEEES6_EE13stl_allocatorIS7_L18MemLabelIdentifier38ELi16EEE6insertENS_11__wrap_iterIPKS7_EERSD_
gyf:_RenderPipelineManager_DoRenderLoop_Internal_m3799666479
Vpe:__ZL78Sprite_t280657092_CustomAttributesCacheGenerator_Sprite_get_packed_m1179604684P21CustomAttributesCache
CD:__ZN9BlobWrite8TransferI22OffsetPtrArrayTransferI9OffsetPtrIN7mecanim12statemachine18StateMachineMemoryEEEEEvRT_PKc17TransferMetaFlags
Woj:__ZL24UnresolvedVirtualCall_27P12Il2CppObjectS0_aPK10MethodInfo
Sxc:__Z13RegisterClassI14PlayerSettingsEvPKc
df:_emscripten_glStencilOpSeparate
i0i:_Collection_1_System_Collections_IList_IndexOf_m3894953546_gshared
H6i:_PKCS12_get_Certificates_m26161562
s$f:_NameObjectCollectionBase_Init_m2525481323
C0b:__ZN15SkyboxGenerator28GetCubemapSkyboxVertexFormatEv
Nkb:__ZN19ShaderPropertySheet24SetTextureWithExplicitIDERK23FastTexturePropertyNameP7Texture9TextureID
XFh:_List_1_Insert_m1582252370_gshared
Hak:__ZN6il2cpp2vm6String8NewUtf16EPKDsi
Inf:_SByte_System_IConvertible_ToByte_m2268214252_AdjustorThunk
c8j:__ZN6il2cpp2os10ThreadImpl12QueueUserAPCEPFvPvES2_
zS:__Z32TransferEnumWithNameForceIntSizeI14SafeBinaryReadN10SampleClip17CompressionFormatEEvRT_RT0_PKc17TransferMetaFlags
Ldj:_RegularExpression__ctor_m119502265
cod:__ZN22BaseUnityConnectClient10QueueEventERN11UnityEngine15CloudWebService17CloudServiceEventEPKcjb
YUf:_DelegatePInvokeWrapper_RaycastAllCallback_t1884415901
_Yh:_ReadOnlyCollection_1_System_Collections_Generic_ICollectionU3CTU3E_Clear_m522482168_gshared
VRe:_DerivedType_IsByRefImpl_m2585680005
XTd:_ConstructionCall_InitMethodProperty_m2021094586
MDc:__Z27Texture_CUSTOM_GetDataWidthP12Il2CppObject
M6c:_UNITY_FT_Hypot
Bse:__ZL95TextGenerator_t3211863866_CustomAttributesCacheGenerator_TextGenerator_get_lineCount_m916872812P21CustomAttributesCache
UEe:__ZL74CanvasScaler_t2767979955_CustomAttributesCacheGenerator_m_DefaultSpriteDPIP21CustomAttributesCache
SUj:_il2cpp_class_is_abstract
xf:_emscripten_glGetError
_Qj:__ZN15dense_hashtableINSt3__24pairIK10KeyWrapperIPK14Il2CppAssemblyEPK22Il2CppMonoAssemblyNameEES6_N6il2cpp5utils11PointerHashIS4_EEN14dense_hash_mapIS6_SA_SF_NS6_14EqualsComparerINS0_8equal_toIS5_EEEENS0_9allocatorISB_EEE9SelectKeyESK_SM_E14squash_deletedEv
hyg:_SmallXmlParser__ctor_m202236734
hO:__Z14FMOD_FILE_SeekPvjS_
gTf:_MaskableGraphic_OnDisable_m1757789159
lJa:__ZN7TextureC2E10MemLabelId18ObjectCreationMode
XQf:_LayoutGroup__ctor_m2162961217
gid:__Z56Register_UnityEngine_Analytics_CustomEventData_AddStringv
qfd:__ZZN2UI6Canvas15InitializeClassEvEN39FunctorImpl_1449kCanvasHierarchyChanged4CallEPviR11MessageData
eTh:_ValueType_t3640485471_marshal_pinvoke_cleanup
$7b:__ZNK13RenderTexture32CalculateNeedsInvertedProjectionEv
edc:__ZN10systeminfo18GetOperatingSystemEv
Ff:emscriptenWebGLGet
waa:__Z19CanReplaceComponentRN5Unity9ComponentEPKNS_4TypeEPN4core12basic_stringIcNS5_20StringStorageDefaultIcEEEE
pJe:_UnmanagedMemoryStream_Flush_m1540584491
c$i:_Collection_1_GetEnumerator_m3986802482_gshared
FPg:_GuidParser_ParseGuid2_m1914838819
awc:__ZN12CubemapArray11InitTextureEiii13TextureFormatb
bDi:__Z36RuntimeInvoker_Enumerator_t185561725PFvvEPK10MethodInfoPvPS4_
iNi:_List_1_System_Collections_IList_get_Item_m1112579679_gshared
c3d:__ZL70ReliabilityContractAttribute_t502331440_CustomAttributesCacheGeneratorP21CustomAttributesCache
pXe:_InternalEnumerator_1_System_Collections_IEnumerator_get_Current_m55999184_gshared
$ff:_ValueCollection_System_Collections_Generic_ICollectionU3CTValueU3E_Contains_m1842955046_gshared
PNj:__ZN24dense_hashtable_iteratorINSt3__24pairIK10KeyWrapperIPK10Il2CppTypeEjEES6_N6il2cpp8metadata14Il2CppTypeHashEN14dense_hash_mapIS6_jSB_NS6_14EqualsComparerINSA_26Il2CppTypeEqualityComparerEEENS0_9allocatorIS8_EEE9SelectKeyESF_SH_E30advance_past_empty_and_deletedEv
yrj:__ZL25UnresolvedVirtualCall_165P12Il2CppObjectiiPK10MethodInfo
YDd:_Graphic_get_depth_m815589653
Hfj:_Event_set_displayIndex_m1342258734
bAd:_ContentSizeFitter_get_horizontalFit_m2773126143
uRf:_LayoutGroup_SetLayoutInputForAxis_m2458344630
jE:__ZN7mecanim5human13HumanFixTwistEPKNS0_5HumanEPNS_8skeleton13SkeletonPoseTIN4math4trsXEEES9_iiRKf
q1b:__ZL24AssignProjectorQueuesJobP30AssignProjectorQueuesJobHeader
lth:_KeyValuePair_2_get_Key_m1218836954_gshared
QMd:_ParameterModifier_t1461694466_marshal_pinvoke
ujc:__ZNSt3__26vectorIN9ShaderLab20SerializedSubProgram15StructParameterENS_9allocatorIS3_EEE21__push_back_slow_pathIS3_EEvOT_
QQg:_Int16_System_IConvertible_ToUInt32_m3410279543
hjc:__ZN9ShaderLab20SerializedSubProgram14SetConstBufferEPKci
RLj:__ZN6il2cpp2os4File5CloseEPNS0_10FileHandleEPi
qEj:__ZNSt3__27__sort5IRN6il2cpp5utils11collections13ArrayValueMapIPK10Il2CppType17Il2CppInteropData26InteropDataToTypeConverterNS1_8metadata14Il2CppTypeLessENSA_26Il2CppTypeEqualityComparerEE12SortComparerEPS8_EEjT0_SH_SH_SH_SH_T_
EJf:_Touch_get_fingerId_m859576425_AdjustorThunk
Wxi:__Z48RuntimeInvoker_Boolean_t97287965_Link_t544317964PFvvEPK10MethodInfoPvPS4_
Y_c:_cf2_getStdVW
QOi:_List_1_System_Collections_ICollection_CopyTo_m2688165607_gshared
Fxi:__Z53RuntimeInvoker_UIVertex_t4057497605_Int32_t2950945753PFvvEPK10MethodInfoPvPS4_
zQh:_UInt16_CompareTo_m2664746316_AdjustorThunk
igf:_ValueCollection_GetEnumerator_m616748621_gshared
Ygb:__ZN9GfxDevice13SetActiveTierE12GraphicsTier
bRc:__Z29Transfer_Blittable_ArrayFieldI8JSONReadjEvRT_R9ArrayInfoRK23StaticTransferFieldInfo
e1h:_ReadOnlyCollection_1_get_Item_m679165083_gshared
bfk:_GC_check_finalizer_nested
lg:__setLetterbox
lXf:_ScrollRect_OnScroll_m3861066534
Nhf:_Dictionary_2_ToTKey_m224697230_gshared
Epe:__ZL72FormerlySerializedAsAttribute_t2859083114_CustomAttributesCacheGeneratorP21CustomAttributesCache
WMf:_OnValidateInput_Invoke_m1009124904
Aaj:_PatternCompiler_EmitFastRepeat_m3012952683
J$a:__ZNSt3__26vectorI17BlendShapeChannelNS_9allocatorIS1_EEE6assignINS_11__wrap_iterIPS1_EEEENS_9enable_ifIXaasr21__is_forward_iteratorIT_EE5valuesr16is_constructibleIS1_NS_15iterator_traitsISA_E9referenceEEE5valueEvE4typeESA_SA_
dKb:__Z12SetGfxDeviceP9GfxDevice
Zcc:__ZN11TimeManager11GetRealtimeEv
jme:__ZL91RectOffset_t1369453676_CustomAttributesCacheGenerator_RectOffset_get_horizontal_m2663785949P21CustomAttributesCache
cDf:_Object_GetHashCode_m1944636947
CUg:_BinaryReader_ReadUInt32_m2210658763
DO:__ZN29AudioEffectInternalDefinitionC2EP26UnityAudioEffectDefinitionb
Z1h:_ReadOnlyCollection_1_System_Collections_IList_Remove_m2434650390_gshared
SQh:_UInt16_ToString_m3056878594_AdjustorThunk
Ecf:_ShimEnumerator_get_Value_m1878724567_gshared
guh:_Dictionary_2_System_Collections_Generic_ICollectionU3CSystem_Collections_Generic_KeyValuePairU3CTKeyU2CTValueU3EU3E_Contains_m2803718146_gshared
Akj:_EventTrigger_set_repeatTime_m1188543944
H8f:_Interval_get_IsSingleton_m3386290029
lUj:__ZNSt3__2plIcNS_11char_traitsIcEENS_9allocatorIcEEEENS_12basic_stringIT_T0_T1_EERKS9_PKS6_
AJf:_Time_get_unscaledDeltaTime_m4270080131
Mld:__ZN18UnityConnectClient27OnPlayerSessionStateChangedEjyy
_Oa:_stbir_resize
Ogh:_Array_IndexOf_TisCustomAttributeTypedArgument_t2723150157_m3158556463_gshared
yxh:_EqualityComparer_1_System_Collections_IEqualityComparer_GetHashCode_m360549782_gshared
zbh:_Environment_GetOSVersionString_m407782784
Qug:_DecoderExceptionFallback_Equals_m1082173956
vzh:_EqualityComparer_1_System_Collections_IEqualityComparer_GetHashCode_m345188086_gshared
I1d:__ZL69Assembly_t_CustomAttributesCacheGenerator_Assembly_GetName_m981771927P21CustomAttributesCache
Yka:__ZL59__ManagedRegistrationHelperFunction_AsyncGPUReadbackRequestPv
$ie:__ZL93Mesh_t3648964284_CustomAttributesCacheGenerator_Mesh_GetAllocArrayFromChannelImpl_m3084065604P21CustomAttributesCache
I_a:__ZN4PPtrI4MeshE8TransferI14SafeBinaryReadEEvRT_
Oeb:__Z37ReadDirectoryInfo_UnityWebAndUnityRawR12FileAccessorRKN20ArchiveStorageHeader6HeaderERNS1_13DirectoryInfoE
I4:__ZNSt3__26__treeINS_12__value_typeIPKciEENS_19__map_value_compareIS3_S4_15compare_tstringIS3_ELb1EEENS_9allocatorIS4_EEE7destroyEPNS_11__tree_nodeIS4_PvEE
Skh:_Array_InternalArray__Insert_TisIntPtr_t_m189626842_gshared
W3f:_X509Certificate2_get_IssuerName_m1277209535
Vkh:_Locale_GetText_m3374010885
nVh:_Collection_1_System_Collections_IEnumerable_GetEnumerator_m1598238343_gshared
p2i:_RijndaelManaged_CreateEncryptor_m263736311
OMh:_WaitCallback__ctor_m1893321019
h_b:__ZN20DynamicPropertySheet14SetValueQueuedEN9ShaderLab16FastPropertyNameEN19ShaderPropertySheet12PropertyTypeEjNS2_8SetFlagsE
$wf:_InvokableCallList_ClearPersistent_m1904264973
cGb:__ZN25PathNamePersistentManagerD2Ev
F5a:__ZN17PersistentManager48IntegrateObjectAndUnlockIntegrationMutexInternalEi
foe:__ZL85NativeDisableUnsafePtrRestrictionAttribute_t2582701661_CustomAttributesCacheGeneratorP21CustomAttributesCache
Zga:__ZZ29InitializeSortingGroupManagerPvEN44PostLateUpdateSortingGroupsUpdateRegistrator7ForwardEv
Cye:__ZL55EventTrigger_t1076084509_CustomAttributesCacheGeneratorP21CustomAttributesCache
Upg:_SecurityElement_SearchForChildByTag_m900466299
zp:__ZN6Object12SetHideFlagsENS_9HideFlagsE
o3g:_Convert_ToSingle_m3227075028
fvk:_emscripten_glGetFramebufferAttachmentParameteriv__wrapper
p7b:__ZN13RendererScene15InitializeUmbraEv
hef:__ZN21InterfaceFuncInvoker2I26KeyValuePair_2_t2401056908P12Il2CppObjectiE6InvokeEjP11Il2CppClassS2_S2_i
mGa:__Z28CalculateGlobalMatrixInverse23TransformAccessReadOnly
DBf:_MonoBehaviour__ctor_m1579109191
bwe:__ZL59GUITargetAttribute_t25796337_CustomAttributesCacheGeneratorP21CustomAttributesCache
DAh:_GenericEqualityComparer_1_Equals_m3457564127_gshared
J9f:_BigInteger_ModInverse_m2426215562
Ffa:__ZN17CallbackArrayBaseIPFvPK9IndexListPK16RendererCullDataEPFvPKvS2_S5_EE8RegisterES7_SB_S9_
YYe:_InternalEnumerator_1_System_Collections_IEnumerator_Reset_m2386791007_AdjustorThunk
Mug:_DecoderExceptionFallback__ctor_m4044614564
Q_e:_InternalEnumerator_1_System_Collections_IEnumerator_Reset_m3011999097_AdjustorThunk
UWj:__ZN6il2cpp2vm6Thread17FullMemoryBarrierEv
uJe:_LocalDataStoreSlot__cctor_m644942532
ojk:__ZN6il2cpp6icalls8mscorlib6System6Object7GetTypeEP12Il2CppObject
NLd:_MonoProperty_CachePropertyInfo_m2968057423
Hod:__ZNK25UnityWebRequestJavaScript18GetDownloadedBytesEv
vFf:_Ray_GetPoint_m1852405345_AdjustorThunk
$$d:__ZL53RegionInfo_t1090270226_CustomAttributesCacheGeneratorP21CustomAttributesCache
gxe:__ZL85Canvas_t3310196443_CustomAttributesCacheGenerator_Canvas_get_sortingOrder_m1860900812P21CustomAttributesCache
kXd:__ZL74Single_t1397266774_CustomAttributesCacheGenerator_Single_IsNaN_m4024467661P21CustomAttributesCache
gIb:__Z21BeginSplashScreenFadev
Tod:__ZN12HeaderHelper14SetUnvalidatedERKN4core12basic_stringIcNS0_20StringStorageDefaultIcEEEES6_b
LM:__ZN4FMOD6SoundI7releaseEv
z0c:_cff_parse_num
qfb:__ZN10MemoryFile9SetLengthEy
Fvb:__ZN5RectTIiE8TransferI24GenerateTypeTreeTransferEEvRT_
XKg:_Exception_get_ClassName_m2428844642
xFb:__Z28scripting_class_is_interface17ScriptingClassPtr
Ch:_glTexStorage2D
DMg:_CultureInfo_ConstructInternalLocaleFromName_m4012802696
PLa:__ZNK9ShaderLab10SubProgram14EnsureCompiledEv
MUe:_MethodBuilder_GetGenericArguments_m1765425737
V5g:_DateTime_CompareTo_m3687348273
Sdk:_GC_push_marked
s6g:_DateTime_ToUniversalTime_m1945318289_AdjustorThunk
D5e:_InternalEnumerator_1_MoveNext_m1262669372_gshared
KKg:_EventArgs__ctor_m32674013
c2g:_Convert_ToInt16_m1336719169
T7:__Z18BuildScriptClassId17ScriptingClassPtr
Ytj:_TextGenerator_Init_m1168488231
grh:_RSAManaged_Finalize_m3915335854
wp:__ZNK16LevelGameManager7GetNameEv
_cb:__ZL31DeleteLastPathNameComponentImplRKN4core12basic_stringIcNS_20StringStorageDefaultIcEEEEPKc
l7g:_DBNull_System_IConvertible_ToUInt64_m4072736670
Pid:__ZN18UnityConnectClient15GetCloudServiceEv
jrb:__Z29Transfer_Blittable_ArrayFieldI14SafeBinaryRead5RectTIiEEvRT_R9ArrayInfoRK23StaticTransferFieldInfo
E$e:_InternalEnumerator_1_get_Current_m2698009637_gshared
THj:__ZN6il2cpp2os19SocketHandleWrapperD2Ev
VCf:_U3CAddAndCreateU3Ec__AnonStorey1__ctor_m1186055370
rFb:__ZL28SerializationCommandGroupForRK31TransferFunctionScriptingTraits17ScriptingClassPtr17ScriptingFieldPtrRK20CoreScriptingClasses
rva:__ZN10TagManager32RegisterDefaultTagsAndLayerMasksEv
$Mh:_WaitHandle_Dispose_m738127030
LSi:_List_1_System_Collections_IList_get_IsReadOnly_m1729002068_gshared
Kli:__Z50RuntimeInvoker_Double_t594665363_Int32_t2950945753PFvvEPK10MethodInfoPvPS4_
K5h:_Predicate_1_EndInvoke_m1490920825_gshared
ice:__ZL78LoaderOptimization_t1484956347_CustomAttributesCacheGenerator_DisallowBindingsP21CustomAttributesCache
huh:_Dictionary_2_System_Collections_Generic_ICollectionU3CSystem_Collections_Generic_KeyValuePairU3CTKeyU2CTValueU3EU3E_CopyTo_m3122240003_gshared
Iui:__Z104RuntimeInvoker_Void_t1185182177_Color_t2555686324_Single_t1397266774_SByte_t1669577662_SByte_t1669577662PFvvEPK10MethodInfoPvPS4_
jSi:_List_1_Remove_m3853969205_gshared
LEh:_Enumerator_System_Collections_IEnumerator_get_Current_m1540440674_gshared
Qqg:_Single_System_IConvertible_ToInt16_m809233024_AdjustorThunk
iid:__Z56Register_UnityEngine_Analytics_CustomEventData_AddUInt32v
Tmk:_fmodf
$ka:__ZL47__ManagedRegistrationHelperFunction_CullResultsPv
JOb:__ZN4gles8InitCapsEP7ApiGLESP12GraphicsCapsR16GfxDeviceLevelGL
qPa:__ZN6prcore14BlitImageFloatERK14ImageReferenceRS0_NS0_8BlitModeE
HHa:__Z24CalculateVertexLightDataRK15SharedLightDataR14GfxVertexLight
ki:_glEnable
mPj:__ZN15dense_hashtableINSt3__24pairIK10KeyWrapperINS1_IPK12PropertyInfoP11Il2CppClassEEEjEES9_17ReflectionMapHashIS8_EN14dense_hash_mapIS9_jSD_NS9_14EqualsComparerINS0_8equal_toIS8_EEEENS0_9allocatorISB_EEE9SelectKeyESI_SK_E15insert_noresizeERKSB_
Ypa:__ZN9Scripting11UnityEngine33ExcludeFromObjectFactoryAttribute12CleanupProxyEv
LLa:__ZNK9ShaderLab7Program28BeginReadUnsupportedVariantsEv
cta:__ZN12CachedWriter11Align4WriteEv
bsj:__ZL25UnresolvedVirtualCall_196P12Il2CppObject22UILineInfo_t4195266810S1_PK10MethodInfo
i4a:__ZNSt3__26vectorIN30RuntimeInitializeOnLoadManager9ClassInfoE13stl_allocatorIS2_L18MemLabelIdentifier13ELi16EEE7reserveEj
BMc:__Z35Transfer_Blittable_FixedBufferFieldI9JSONWriteiEvRK29SerializationCommandArgumentsR31RuntimeSerializationCommandInfo
mue:__ZL85AudioSource_t3935305588_CustomAttributesCacheGenerator_AudioSource_set_clip_m31653938P21CustomAttributesCache
TAh:_Enumerator__ctor_m1590062855_AdjustorThunk
YRj:__ZN14dense_hash_mapI10KeyWrapperINSt3__24pairIPK10MethodInfoP11Il2CppClassEEEj17ReflectionMapHashIS8_ENS9_14EqualsComparerINS1_8equal_toIS8_EEEENS1_9allocatorINS2_IKS9_jEEEEEC2EjRKSB_RKSF_
gA:__ZN26AnimatorControllerPlayable17ProcessRootMotionEP35AnimationPlayableEvaluationConstantP32AnimationPlayableEvaluationInputP33AnimationPlayableEvaluationOutput
D5d:__ZL54SoapServices_t133988723_CustomAttributesCacheGeneratorP21CustomAttributesCache
TIe:_UnexceptionalStreamReader_Peek_m1842169584
Tjd:__ZN11UnityEngine7Connect15DeviceInfoEvent16CollectExtraInfoEv
RWi:_Queue_1_System_Collections_IEnumerable_GetEnumerator_m3464578225_gshared
FMf:_TypeInferenceRuleAttribute__ctor_m2736695831
itf:_Bounds_GetHashCode_m1844059663_AdjustorThunk
apf:_CryptographicException__ctor_m1422015889
hMf:_Vector4_Equals_m1779210055_AdjustorThunk
x4g:_Convert_ChangeType_m739676612
cok:_atoi
OUb:__ZN20ArchiveStorageReader10InitializeER15FileSystemEntryyb
dok:_atol
Wbk:__ZThn8_N6il2cpp2vm13CachedCCWBaseINS0_13ManagedObjectEE6AddRefEv
RHd:_TypeBuilder_CreateType_m3375483507
iXh:_ReadOnlyCollection_1_GetEnumerator_m3690861713_gshared
Qnh:_ModulusRing_BarrettReduction_m167376748
ajf:_RemotingServices_GetRealProxy_m2081098851
rph:_BlockProcessor_Core_m189015002
sCj:__ZN15dense_hashtableINSt3__24pairIK10KeyWrapperIPKcEP11Il2CppClassEES5_N6il2cpp5utils11StringUtils12StringHasherIS4_EEN14dense_hash_mapIS5_S8_SE_NS5_14EqualsComparerINSB_13VmStringUtils21CaseSensitiveComparerEEENS0_9allocatorIS9_EEE9SelectKeyESJ_SL_EC2EjRKSE_RKSJ_RKSN_
nvk:_emscripten_glScissor__wrapper
vo:FUNCTION_TABLE_viifi
wo:FUNCTION_TABLE_viiff
Gxg:_X501__cctor_m1166912714
xze:__ZL102PointerEventData_t3807901092_CustomAttributesCacheGenerator_PointerEventData_set_lastPress_m2928324031P21CustomAttributesCache
EZd:__ZL37Type_t_CustomAttributesCacheGeneratorP21CustomAttributesCache
it:__ZN9Scripting11UnityEngine14AnimationState9InitProxyEv
Ktf:_Bounds_ToString_m4208690781
hXj:__ZN15dense_hashtableINSt3__24pairIK10KeyWrapperINS1_IP11Il2CppClassjEEES4_EES6_N6il2cpp8metadata14ArrayClassHashEN14dense_hash_mapIS6_S4_SB_NS6_14EqualsComparerINSA_17ArrayClassCompareEEENS0_9allocatorIS8_EEE9SelectKeyESF_SH_E5clearEv
RBj:__ZNSt3__218uninitialized_copyIPNS_4pairIK10KeyWrapperIPK11Il2CppClassEPKcEESB_EET0_T_SD_SC_
XSj:__ZN6il2cpp2vm14TypeNameParser5ParseEb
SJe:_Math_Sqrt_m1297338011
YYg:_StreamWriter_Initialize_m3490883444
BPh:_Type_GetGenericArguments_m3500465462
rHj:__ZN15dense_hashtableINSt3__24pairIK10KeyWrapperIP9FieldInfoEiEES5_N6il2cpp5utils11PointerHashIS3_EEN14dense_hash_mapIS5_iSB_NS5_14EqualsComparerINS0_8equal_toIS4_EEEENS0_9allocatorIS7_EEE9SelectKeyESG_SI_E12resize_deltaEjj
und:__ZN23UnityPurchasingSettingsC2Ev
Epk:__ZNSt9bad_allocD0Ev
VJd:_Module_IsDefined_m2423524910
IRe:_DerivedType_create_unmanaged_type_m747846525
Uue:__ZL60EventType_t3528516131_CustomAttributesCacheGenerator_repaintP21CustomAttributesCache
gAa:__ZN17GPUFenceInternals7ReleaseEv
UDe:__ZL66Selectable_t3250028441_CustomAttributesCacheGenerator_m_NavigationP21CustomAttributesCache
mNd:_ResolveEventHandler__ctor_m1911137231
rAc:__ZN17MaterialScripting18CreateWithMaterialE21ScriptingObjectOfTypeI8MaterialEPS1_
B1i:_Collection_1_System_Collections_IList_Contains_m2393482847_gshared
a8b:__ZL10RenderFaceR9GfxDeviceR18MaterialStateCacheP13RenderTextureiif
Ngh:_Array_IndexOf_TisCustomAttributeNamedArgument_t287865710_m2817957199_gshared
fYh:_ReadOnlyCollection_1_System_Collections_IList_RemoveAt_m1980090087_gshared
W5i:_ExtendedKeyUsageExtension_ToString_m2116504780
M8a:__ZNK5Unity9Component38MarkGameObjectAndComponentDependenciesER27GarbageCollectorThreadState
mUg:_BinaryReader_Read_m3708759962
ET:__ZNK7Texture21GetShadowSamplingModeEv
s8:__ZNK11TypeManager15ClassNameToRTTIEPKcb
Cka:__ZL57__ManagedRegistrationHelperFunction_DefaultExecutionOrderPv
$Ya:__ZN13ScreenManager21OnWindowRegainedFocusEv
kCb:__Z18Transfer_BlittableI18StreamedBinaryReadILb0EELb1EdEvRK29SerializationCommandArgumentsR31RuntimeSerializationCommandInfo
oOb:__ZN9GfxDevice26CreateDefaultVertexBuffersEv
Hwk:_emscripten_glVertexAttrib2fv__wrapper
eqd:__ZN13RuntimeStaticINSt3__26vectorIPN5physx15PxVehicleWheelsENS0_9allocatorIS4_EEEELb0EE13StaticDestroyEPv
dIe:_SynchronizedReader_ReadToEnd_m2160105378
dah:_Double_System_IConvertible_ToUInt16_m4132603953_AdjustorThunk
aSa:__ZN4crnd12symbol_codec32decode_receive_static_data_modelERNS_25static_huffman_data_modelE
Puc:__ZN18ScriptingArguments8AddFloatEf
bGd:_Image_set_fillOrigin_m469806249
Hjd:__ZN11UnityEngine15PlatformWrapper16GetVRRenderScaleEv
BNc:__Z18Transfer_BlittableI9JSONWriteLb0EaEvRK29SerializationCommandArgumentsR31RuntimeSerializationCommandInfo
WX:__ZN11UnityEngine15CloudWebService14DataDispatcher34OnSessionContainerArchivedAndReadyERNS0_16SessionContainerE
mCf:_ConnectionChangeEvent__ctor_m764126802
X9f:_Kernel_Multiply_m193213393
PKe:_IntComparer__ctor_m2901422390
nNd:_ResolveEventHandler_Invoke_m1337322179
I6d:__ZL50HMACMD5_t2742219965_CustomAttributesCacheGeneratorP21CustomAttributesCache
b7e:_Comparer_1__ctor_m1078828713_gshared
iwb:__Z18Transfer_BlittableI19StreamedBinaryWriteILb0EELb0E8Vector3fEvRK29SerializationCommandArgumentsR31RuntimeSerializationCommandInfo
DDh:_Enumerator_VerifyState_m2621680056_gshared
Fej:_UriParser_InternalRegister_m3643767086
xse:__ZL106TextGenerator_t3211863866_CustomAttributesCacheGenerator_TextGenerator_INTERNAL_get_rectExtents_m183810018P21CustomAttributesCache
zec:__ZN14SafeBinaryRead19TransferSTLStyleMapINSt3__23mapIN4core12basic_stringIcNS3_20StringStorageDefaultIcEEEEiNS1_4lessIS7_EENS1_9allocatorINS1_4pairIKS7_iEEEEEEEEvRT_17TransferMetaFlags
yNg:_DateTimeFormatInfo_get_RawAbbreviatedDayNames_m1257850285
flg:_RSACryptoServiceProvider_EncryptValue_m944137256
ROj:__ZN15dense_hashtableINSt3__24pairIK10KeyWrapperINS1_IPK11Il2CppImageP11Il2CppClassEEEjEES9_17ReflectionMapHashIS8_EN14dense_hash_mapIS9_jSD_NS9_14EqualsComparerINS0_8equal_toIS8_EEEENS0_9allocatorISB_EEE9SelectKeyESI_SK_ED2Ev
o5c:_gray_move_to
h7g:_DBNull_System_IConvertible_ToSingle_m13713620
HFg:_Char_ToLowerInvariant_m1926695830
CFe:__ZL127U3CDelayedSetDirtyU3Ec__Iterator0_t3170500204_CustomAttributesCacheGenerator_U3CDelayedSetDirtyU3Ec__Iterator0_Reset_m160466733P21CustomAttributesCache
ruf:_CameraCallback__ctor_m899467377
bYh:_ReadOnlyCollection_1_System_Collections_IList_Contains_m1327645028_gshared
oGd:_Image_GetDrawingDimensions_m3060965396
Lse:__ZL69FontTextureRebuildCallback_t2467502454_CustomAttributesCacheGeneratorP21CustomAttributesCache
UPh:_TypeLoadException__ctor_m1154572625
QCc:__Z30RegisterValidateMethodCallbackiPF18ScriptingMethodPtrS_17ScriptingClassPtrP6ObjectEPKc
xNa:__ZNSt3__27__sort4IRPFbRKNS_4pairIN9ShaderLab16FastPropertyNameE10ColorRGBAfEES7_EPS5_EEjT0_SC_SC_SC_T_
yPe:_AssemblyDescriptionAttribute__ctor_m3993445315
ghg:_Context_get_WriteSequenceNumber_m1115956887
seg:_CipherSuite_get_ClientHMAC_m377589750
vJi:_Dictionary_2_Do_ICollectionCopyTo_TisKeyValuePair_2_t2401056908_m1169495264_gshared
pVe:_OpCodes__cctor_m3821715395
aAd:_ContentSizeFitter__ctor_m2349275633
jee:__ZL56TypeConverter_t2249118273_CustomAttributesCacheGeneratorP21CustomAttributesCache
l1i:_Collection_1_RemoveAt_m3506636491_gshared
E4c:_tt_cmap_init
URc:__ZN8JSONRead8TransferI9BoundsIntEEvRT_PKc17TransferMetaFlagsb
L6j:__ZN24dense_hashtable_iteratorINSt3__24pairIK10KeyWrapperIPcES3_EES4_N6il2cpp5utils15PassThroughHashIS3_EEN14dense_hash_mapIS4_S3_SA_NS4_14EqualsComparerINS0_8equal_toIS3_EEEENS0_9allocatorIS6_EEE9SelectKeyESF_SH_E30advance_past_empty_and_deletedEv
mb:invoke_viidi
Afb:__ZN25SingleBlockMemoryFileData9SetLengthEy
WHi:_Array_Sort_TisOrderBlock_t1585977831_m2922111197_gshared
PDd:_Graphic_OnRectTransformDimensionsChange_m3695755375
Knf:_SByte_System_IConvertible_ToChar_m1489191771_AdjustorThunk
BM:__ZN9AudioClip7CleanupEv
Nxc:__Z13RegisterClassI18DelayedCallManagerEvPKc
VAi:__Z76RuntimeInvoker_Void_t1185182177_Int32_t2950945753_PlayableBinding_t354260709PFvvEPK10MethodInfoPvPS4_
B8f:_Interval_t1802865632_marshal_pinvoke_cleanup
tYj:__ZNK15dense_hashtableINSt3__24pairIK10KeyWrapperIP11Il2CppClassES4_EES5_N6il2cpp8metadata16SZArrayClassHashEN14dense_hash_mapIS5_S4_SA_NS5_14EqualsComparerINS9_19SZArrayClassCompareEEENS0_9allocatorIS7_EEE9SelectKeyESE_SG_E12test_deletedEj
m2g:_Convert_ToInt16_m1223489986
jEd:_Graphic_GraphicUpdateComplete_m1502194795
vQc:__Z18Transfer_BlittableI8JSONReadLb0EdEvRK29SerializationCommandArgumentsR31RuntimeSerializationCommandInfo
dTd:_SynchronizationAttribute_EnterContext_m1660729920
Guj:_Canvas_get_referencePixelsPerUnit_m3420541976
hYh:_ReadOnlyCollection_1_System_Collections_ICollection_get_SyncRoot_m2522539235_gshared
Ffj:_Event_get_current_m2393892120
Ylj:_VertexHelper_Clear_m627349662
RIj:__ZN6il2cpp2vm21ThreadPoolCompartment13QueueWorkItemEP17Il2CppAsyncResult
thb:__ZNK9GfxDevice13GetViewMatrixEv
qJe:_UnmanagedMemoryStream_Dispose_m2681886347
L7a:__ZN17RemapPPtrTransferC2E24TransferInstructionFlagsb
v1g:_Convert_ToDecimal_m889385228
v9:__ZN8TypeTree8BlobReadERPKhS1_ib
kqe:__ZL87Display_t1387065949_CustomAttributesCacheGenerator_Display_GetSystemExtImpl_m2808197389P21CustomAttributesCache
GBg:_Array_Reverse_m3714848183
jCd:_Dropdown_ClearOptions_m4085591601
nzd:_CanvasUpdateRegistry_InternalRegisterCanvasElementForGraphicRebuild_m3522560454
Bth:_KeyValuePair_2__ctor_m880186442_gshared
S5a:__ZN18LoadSceneOperation23GetAllowSceneActivationEv
lya:__ZN6CameraD0Ev
BXi:_Collection_1_System_Collections_IList_get_IsReadOnly_m2319019412_gshared
_ue:__ZL57EventModifiers_t2016417398_CustomAttributesCacheGeneratorP21CustomAttributesCache
rVh:_Collection_1_System_Collections_IList_IndexOf_m837396833_gshared
yz:__ZN7mecanim12AndValueMaskILb0EEEvPKNS_14ValueArrayMaskEPS1_
Y3a:__ZN14SafeBinaryRead21TransferSTLStyleArrayINSt3__26vectorIi13stl_allocatorIiL18MemLabelIdentifier13ELi16EEEEEEvRT_17TransferMetaFlags
wvg:_EncoderFallback__cctor_m3806755293
DYe:_InternalEnumerator_1__ctor_m962177456_AdjustorThunk
pZc:_raccess_guess_apple_double
hQb:__ZL18ProgramUniform1uivPK7ApiGLESjiihPKv
jwc:__ZN14Texture2DArray13RebuildMipMapEv
qBj:__ZN13Il2CppHashSetIPK17Il2CppGenericInstN6il2cpp8metadata21Il2CppGenericInstHashENS4_24Il2CppGenericInstCompareENSt3__29allocatorI10KeyWrapperIS2_EEEEC2EjRKS5_RKS6_
hpb:__Z18Transfer_BlittableI14SafeBinaryReadLb1EaEvRK29SerializationCommandArgumentsR31RuntimeSerializationCommandInfo
W6j:__ZN6il2cpp2gc16GarbageCollector14RemoveWeakLinkEPPv
ijc:__ZN9ShaderLab20SerializedSubProgram14AddVectorParamEPKcii15ShaderParamTypei
pPi:_List_1_GetEnumerator_m563931292_gshared
$ed:__ZN2UI14CanvasRenderer12CleanupClassEv
F_g:_Enumerator__ctor_m3362421874
Jte:__ZL94AudioSampleProvider_t3950279772_CustomAttributesCacheGenerator_U3CtrackIndexU3Ek__BackingFieldP21CustomAttributesCache
I3j:__ZN6il2cpp2vm6Object3BoxEP11Il2CppClassPv
TWj:__ZN6il2cpp2vm6Thread7SetNameEP12Il2CppThreadP12Il2CppString
pZ:__ZN11UnityEngine15CloudWebService10RestClientINS0_23WebRequestRestHeaderMapEE16SetRequestHeaderERKN4core12basic_stringIcNS4_20StringStorageDefaultIcEEEESA_
b4a:__ZN30RuntimeInitializeOnLoadManager15ClassMethodInfo8TransferI14SafeBinaryReadEEvRT_
PTd:_ConstructionCall_InitDictionary_m2824447813
bNd:_TargetException__ctor_m3701535709
Jyi:__Z86RuntimeInvoker_Int32_t2950945753_Vector3_t3722313464_Vector3_t3722313464_RuntimeObjectPFvvEPK10MethodInfoPvPS4_
wW:__ZL22InitializeModule_Audiov
lgb:__ZN16MemoryFileSystem8IsLockedERK13FileEntryData
YZj:__ZN6il2cpp6icalls8mscorlib6System2IO6MonoIO5WriteEiP11Il2CppArrayiiPi
AAf:_Mathf_InverseLerp_m4155825980
Xii:__Z92RuntimeInvoker_RuntimeObject_RuntimeObject_RuntimeObject_SByte_t1669577662_SByte_t1669577662PFvvEPK10MethodInfoPvPS4_
_k:_emscripten_glBindRenderbuffer
bNi:_List_1_System_Collections_IList_Insert_m1011775503_gshared
Sek:_GC_dirty_init
n2j:__ZN6il2cpp2vm5Image33GetCachedMemoryMappedResourceFileEP24Il2CppReflectionAssembly
E2j:__ZN6il2cpp2vm5Field14GetValueObjectEP9FieldInfoP12Il2CppObject
Mcd:__ZNK2UI6Canvas16GetTargetDisplayEv
Mxi:__Z69RuntimeInvoker_Void_t1185182177_Int32_t2950945753_Vector2_t2156229523PFvvEPK10MethodInfoPvPS4_
fid:__Z63Register_UnityEngine_Analytics_CustomEventData_Internal_Destroyv
JNh:_TimeSpan_CompareTo_m3633415627_AdjustorThunk
iOc:__ZN9JSONWrite8TransferI4PPtrI9Texture2DEEEvRT_PKc17TransferMetaFlags
y_i:_Collection_1_Remove_m3611142372_gshared
OEb:__ZN13MonoBehaviour17RemoveFromManagerEv
ILf:_Vector3_get_Item_m668685504_AdjustorThunk
$ya:__ZN12ImageFilters14AddImageFilterERK11ImageFilter
$Rd:_Context_NotifyDynamicSinks_m1841702879
ngj:_GUIUtility_get_pixelsPerPoint_m2369948084
Gpg:_WindowsIdentity_System_Runtime_Serialization_IDeserializationCallback_OnDeserialization_m3428853631
b1:__ZN13MemoryManagerC2Ev
F0a:__ZN12SkinMeshInfo10DeallocateEPS_
fCj:__ZNK15dense_hashtableINSt3__24pairIK10KeyWrapperIPKcEP11Il2CppClassEES5_N6il2cpp5utils11StringUtils12StringHasherIS4_EEN14dense_hash_mapIS5_S8_SE_NS5_14EqualsComparerINSB_13VmStringUtils21CaseSensitiveComparerEEENS0_9allocatorIS9_EEE9SelectKeyESJ_SL_E8min_sizeEjj
OWf:_ScrollRect_SetDirty_m214267968
XCi:__Z74RuntimeInvoker_Int32_t2950945753_UIVertex_t4057497605_UIVertex_t4057497605PFvvEPK10MethodInfoPvPS4_
Ffb:__ZN20ArchiveStorageReader28AcquireAndPrefillUnusedBlockEjPNS_11CacheResultE
dDg:_Boolean_System_IConvertible_ToDateTime_m603510836
ewc:__Z12NHxRoughnessIA4_tEvP9Texture2DPT_iiii
R2h:__ZN28GenericInterfaceFuncInvoker2IibbE6InvokeEPK10MethodInfoP12Il2CppObjectbb
Uoh:_ASN1_get_Value_m1857007406
sqj:__ZL25UnresolvedVirtualCall_105P12Il2CppObjecthPK10MethodInfo
cX:__Z6simd4iiiii
yab:__ZN9Transform5ResetEv
r2g:_Decimal_op_Explicit_m1842265407
Vvb:__Z22TransferField_NonArrayI24GenerateTypeTreeTransfer16Converter_StringEvRK23StaticTransferFieldInfoR31RuntimeSerializationCommandInfoRT0_
Ska:__ZL47__ManagedRegistrationHelperFunction_FixedUpdatePv
wvj:_CanvasRenderer_SetAlphaTexture_m2009567627
c1c:_UNITY_FT_CMap_New
BYe:_InternalEnumerator_1_get_Current_m4241643334_AdjustorThunk
EXe:_InternalEnumerator_1_MoveNext_m154749640_AdjustorThunk
jHb:__Z17MainLoopKeepalivePv
lEe:__ZL62Slider_t3903728902_CustomAttributesCacheGenerator_m_HandleRectP21CustomAttributesCache
BDj:__ZN15dense_hashtableI10KeyWrapperIPK17Il2CppGenericInstES4_N6il2cpp8metadata21Il2CppGenericInstHashEN14dense_hash_setIS4_S7_NS4_14EqualsComparerINS6_24Il2CppGenericInstCompareEEENSt3__29allocatorIS4_EEE8IdentityESB_SE_E12expand_arrayEjN21dense_hash_map_traits17integral_constantIbLb0EEE
H2e:_InternalEnumerator_1_get_Current_m1588647567_AdjustorThunk
Ylk:_printf_core
o3d:__ZL51GCHandle_t3351438187_CustomAttributesCacheGeneratorP21CustomAttributesCache
wNf:_InputField_get_caretBlinkRate_m3620074524
$kj:_FieldWithTarget_get_fieldPath_m341366840
EYe:_InternalEnumerator_1_System_Collections_IEnumerator_Reset_m1716381123_AdjustorThunk
Blg:_RSAPKCS1SignatureFormatter_CreateSignature_m3191980616
ELa:__ZN10builtintex16GetDefaultTexEnvE16TextureDimensionb
qSb:__ZL25CheckCopyTextureArgumentsRK7ApiGLESP11GLESTextureS3_
J2e:_InternalEnumerator_1__ctor_m362401472_AdjustorThunk
qNi:_List_1_AsReadOnly_m2400800347_gshared
wzk:_glDeleteShader__wrapper
Zea:__ZNK15PlayableMethods18InvokeOnGraphStartER18ScriptingObjectPtrRK9HPlayable
rvb:__Z29Transfer_Blittable_ArrayFieldI24GenerateTypeTreeTransferyEvRT_R9ArrayInfoRK23StaticTransferFieldInfo
iTh:_ValueType_Equals_m1524437845
khe:__ZL71RuntimePlatform_t4159857903_CustomAttributesCacheGenerator_OSXWebPlayerP21CustomAttributesCache
vN:__ZN4FMOD7SystemI9playSoundE17FMOD_CHANNELINDEXPNS_5SoundEbPPNS_7ChannelE
mwi:__Z123RuntimeInvoker_RuntimeObject_Ray_t3785851493_RuntimeObject_Single_t1397266774_Int32_t2950945753_RuntimeObject_RuntimeObjectPFvvEPK10MethodInfoPvPS4_
cTg:_Int64_GetHashCode_m703091690
Zla:__ZL60__ManagedRegistrationHelperFunction_ReflectionProbeBlendInfoPv
I8i:_X509CrlEntry_get_RevocationDate_m606796547
Sfj:_Event_get_commandName_m4275147343
xz:__ZN27AnimationLayerMixerPlayable17LayerMixerProcessEP35AnimationPlayableEvaluationConstantP32AnimationPlayableEvaluationInputP33AnimationPlayableEvaluationOutputM17AnimationPlayableFvS1_S3_S5_EMS_FvS1_S3_S5_ESA_MS_FvS5_S1_S3_S5_ifE
A1g:_Decimal_op_Implicit_m4256234411
ZL:__ZN12AudioManager23VirtualRedirectTransferER18StreamedBinaryReadILb0EE
zfi:__Z60RuntimeInvoker_RuntimeObject_RuntimeObject_Int16_t2552820387PFvvEPK10MethodInfoPvPS4_
T5h:__ZN28GenericInterfaceFuncInvoker1Ib40CustomAttributeTypedArgument_t2723150157E6InvokeEPK10MethodInfoP12Il2CppObjectS0_
EYg:_StreamReader__ctor_m3941437302
rqc:__Z57Register_UnityEngine_Transform_INTERNAL_get_localRotationv
n1f:_IPv6Address_get_Address_m1389170741
Q3a:__ZN30RuntimeInitializeOnLoadManager23VirtualRedirectTransferER17RemapPPtrTransfer
fsk:dynCall_viif
EPe:_AssemblyName_get_Flags_m1616840602
Bu:__ZN7mecanim4hand8HandPoseC2Ev
Krc:__Z13RegisterClassIN5Unity9ComponentEEvPKc
ZHe:_StringReader_ReadLine_m2337102945
Zsb:__ZL26Transfer_SimpleNativeClassI17RemapPPtrTransfer8GradientLb0EEvRK29SerializationCommandArgumentsR31RuntimeSerializationCommandInfo
xie:__ZL49Shader_t4151988712_CustomAttributesCacheGeneratorP21CustomAttributesCache
Kvf:__ZN23InterfaceActionInvoker3IiP8String_tP24ObjectU5BU5D_t2843939325E6InvokeEjP11Il2CppClassP12Il2CppObjectiS1_S3_
iB:__ZN17AnimationPlayable26DisconnectNoTopologyChangeEPS_i
CDg:_Boolean_Equals_m2410333903_AdjustorThunk
zTi:_List_1_System_Collections_IList_Contains_m2131605266_gshared
V5d:__ZL61ISurrogateSelector_t3040401154_CustomAttributesCacheGeneratorP21CustomAttributesCache
dVi:_List_1_ToArray_m1990123684_gshared
k_:__ZN13UploadHandlerD2Ev
YJ:__GLOBAL__sub_I_Modules_AssetBundle_Public_1_cpp
Gqk:dynCall_viiiiiffi
Mkk:_Hacker__ctor_m518604791
wc:_emscripten_glBlendFuncSeparate
r0i:_Collection_1_Add_m809543251_gshared
B5:__Z20scripting_string_newPKc
Qdj:_Parser_IsSingleline_m326238187
dJg:_CollectionBase_get_Count_m1708965601
xqf:_HMAC__ctor_m97939284
ZZh:_ReadOnlyCollection_1_System_Collections_IList_get_Item_m1005238747_gshared
Lbe:__ZL49DBNull_t3725197148_CustomAttributesCacheGeneratorP21CustomAttributesCache
hTh:_ValueType_DefaultEquals_m2927252100
gMc:__ZN9JSONWrite12AppendToNodeEPN5Unity9rapidjson12GenericValueINS1_4UTF8IcEE13JSONAllocatorEEPKcRS6_
$oh:_ASN1_ToString_m1340204511
t4f:_X509ChainElementEnumerator_get_Current_m1301774989
X4f:_X509Store_get_Certificates_m2149701265
flb:__ZN20GfxAsyncReadbackDataD2Ev
Xuh:_DefaultComparer_GetHashCode_m2865442331_gshared
hPh:_Type_GetField_m2961003358
rAe:__ZL144StandaloneInputModule_t2760469101_CustomAttributesCacheGenerator_StandaloneInputModule_t2760469101____allowActivationOnMobileDevice_PropertyInfoP21CustomAttributesCache
yqa:__ZN9Scripting11UnityEngine13ComputeBuffer12CleanupProxyEv
FIh:_StringBuilder_set_Chars_m3548656617
JLj:__ZN6il2cpp2os4File17GetFileAttributesERKNSt3__212basic_stringIcNS2_11char_traitsIcEENS2_9allocatorIcEEEEPi
szi:__Z59RuntimeInvoker_Int32_t2950945753_X509ChainStatus_t133602714PFvvEPK10MethodInfoPvPS4_
UE:__ZNSt3__26__sortIRPFbPKN8Animator11AnimatorJobES4_EPS4_EEvT0_S9_T_
tT:__ZN17AudioCustomFilterD2Ev
_Kc:__ZN11IMGUIModule26SetDeveloperConsoleVisibleEb
Zzi:__Z56RuntimeInvoker_Void_t1185182177_MonoResource_t4103430009PFvvEPK10MethodInfoPvPS4_
T9a:__ZN9Transform16ResetReplacementEv
Lck:_GC_unpromote_black_lists
TJ:__ZN9Scripting11UnityEngine2XR5Tango9GridIndex9InitProxyEv
mRb:__ZN18GfxFramebufferGLES18ReleaseFramebufferEP17RenderSurfaceBaseP14GfxContextGLES
lPc:__Z18Transfer_BlittableI8JSONReadLb1EiEvRK29SerializationCommandArgumentsR31RuntimeSerializationCommandInfo
tIe:_TextReader_Dispose_m4253712522
O_:__ZN19CloudServiceHandler34HandleSaveFileWebRequestPlayerLoopEv
qde:__ZL82BigInteger_t2902905090_CustomAttributesCacheGenerator_BigInteger__ctor_m2474659844P21CustomAttributesCache
WA:__ZN7mecanim21ValueArrayReverseCopyEPKNS_18ValueArrayConstantEPKNS_10ValueArrayES2_PS3_PKi
Eqd:__ZL47__ManagedRegistrationHelperFunction_XRNodeStatePv
MS:__Z31GetParentSampleClipFromInstancePN11SoundHandle8InstanceE
c4i:_InternalAsyncResult_get_BytesRead_m3975435112
nsc:__ZNK28RectTransformPropertyBinding13GetFloatValueERKN11UnityEngine9Animation10BoundCurveE
x8b:__ZN6Camera22StandaloneCustomRenderENS_10RenderFlagEP6ShaderRKN4core12basic_stringIcNS3_20StringStorageDefaultIcEEEEPNS_21PerformRenderFunctionE
ghh:_Array_InternalArray__IndexOf_TisKeyValuePair_2_t2401056908_m4118889689_gshared
a5a:__ZNSt3__26vectorI4PPtrI6ObjectE13stl_allocatorIS3_L18MemLabelIdentifier52ELi16EEE6assignINS_11__wrap_iterIPS3_EEEENS_9enable_ifIXaasr21__is_forward_iteratorIT_EE5valuesr16is_constructibleIS3_NS_15iterator_traitsISD_E9referenceEEE5valueEvE4typeESD_SD_
gWh:_Collection_1_System_Collections_ICollection_get_IsSynchronized_m500240145_gshared
Jjk:__ZN6il2cpp2os16ThreadLocalValue8GetValueEPPv
_3f:_X509Certificate2_get_PublicKey_m370665820
hGj:__ZN6il2cpp2vm13MetadataCache14GetGenericInstEPKPK10Il2CppTypej
cU:__ZN13AudioListener17ReadExtensionNameEi
Zc:_glUniform1uiv
Cld:__ZN11UnityEngine7Connect20RemoteConfigSettings35CallConfigUpdatedOnMainThreadStaticEPS1_
a_i:_Collection_1_System_Collections_Generic_ICollectionU3CTU3E_get_IsReadOnly_m1419845799_gshared
akj:_U3CTimedTriggerU3Ec__Iterator0_System_Collections_Generic_IEnumeratorU3CobjectU3E_get_Current_m3822291412
jV:__ZN9AudioClip15InitializeClassEv
ap:setThrew
Gkg:_SslClientStream_OnLocalPrivateKeySelection_m1934775249
Yvc:__ZL21BuildEmptyCubeTexturePKci11ColorRGBA3217TextureColorSpace
Zpe:__ZL106AsyncOperation_t1445031843_CustomAttributesCacheGenerator_AsyncOperation_InvokeCompletionEvent_m1410305036P21CustomAttributesCache
DEg:_Byte_ToString_m721125428
Cec:__ZN14SafeBinaryRead21TransferSTLStyleArrayINSt3__26vectorIN9ShaderLab20SerializedSubProgramENS1_9allocatorIS4_EEEEEEvRT_17TransferMetaFlags
Fhh:_Array_InternalArray__IndexOf_TisX509ChainStatus_t133602714_m48896230_gshared
adb:__ZN19dynamic_block_arrayI13FileEntryInfoLj32EE4growEj
uPc:__Z15Transfer_StringI8JSONReadLb1EEvRK29SerializationCommandArgumentsR31RuntimeSerializationCommandInfo
n6a:__ZN16LightmapSettings15AppendLightmapsEiRK13dynamic_arrayI12LightmapDataLj0EE
tha:__ZN6prcoreL17RemapGenericFloatI17TexFormatRGBFloat15TexFormatRGHalfEEvPKNS_9InnerInfoE
z4d:__ZL63IContributeEnvoySink_t2817847987_CustomAttributesCacheGeneratorP21CustomAttributesCache
s3c:_sfnt_load_face
AYc:_UNITY_FT_Render_Glyph_Internal
I_j:__ZNSt3__212basic_stringIDsNS_11char_traitsIDsEENS_9allocatorIDsEEE21__grow_by_and_replaceEjjjjjjPKDs
s1c:_UNITY_ft_service_list_lookup
wqj:__ZL25UnresolvedVirtualCall_109P12Il2CppObjectiaPK10MethodInfo
Ssb:__Z18Transfer_BlittableI17RemapPPtrTransferLb1E11ColorRGBA32EvRK29SerializationCommandArgumentsR31RuntimeSerializationCommandInfo
_Ic:__ZN5IMGUI21SelectReceivingWindowER8GUIStateb
Nqf:_HMAC_Initialize_m3157696427
SGa:__ZN4PPtrI5LightE8TransferI14SafeBinaryReadEEvRT_
_mk:___strchrnul
ERi:_List_1_System_Collections_ICollection_CopyTo_m3643417403_gshared
k2:__ZN13BaseAllocator13TryDeallocateEPv
ayb:__Z29Transfer_Blittable_ArrayFieldI19StreamedBinaryWriteILb0EEfEvRT_R9ArrayInfoRK23StaticTransferFieldInfo
Ubi:_ListPool_1_Release_m1363449253_gshared
T2f:_X509SubjectKeyIdentifierExtension__ctor_m2055934916
dLc:__ZN9Scripting19UnityEngineInternal5Input17NativeInputSystem9InitProxyEv
TDh:_Enumerator_Dispose_m2531396701_AdjustorThunk
Vfb:__ZN16MemoryFileSystem5WriteER13FileEntryDatayPvPy
Olj:_Toggle_OnSubmit_m1320104356
Ulk:_sprintf
Qjc:__ZN9Scripting25CreateNullExceptionObjectE18ScriptingObjectPtr
brh:_PrivateKeyInfo_DecodeRSA_m2889346634
gT:__ZN13AudioListener17RemoveFromManagerEv
sd:_glAttachShader
lAd:_ContentSizeFitter_SetLayoutHorizontal_m2833273874
$Wh:_ReadOnlyCollection_1_System_Collections_IList_RemoveAt_m134366701_gshared
_dg:__ZN28GenericInterfaceFuncInvoker1IbP22Int32U5BU5D_t385246372E6InvokeEPK10MethodInfoP12Il2CppObjectS1_
Yxa:__ZNK6Camera19GetProjectionMatrixEv
DCe:__ZL70InputField_t3762917431_CustomAttributesCacheGenerator_m_SelectionColorP21CustomAttributesCache
YNf:_InputField_SetToCustomIfContentTypeIsNot_m2813459946
pci:__Z49RuntimeInvoker_DateTime_t3738529785_RuntimeObjectPFvvEPK10MethodInfoPvPS4_
qhe:__ZL70RuntimePlatform_t4159857903_CustomAttributesCacheGenerator_FlashPlayerP21CustomAttributesCache
_Pg:_Guid_GetHashCode_m3042133858_AdjustorThunk
ssa:__Z38PreallocateObjectFromPersistentManagerib
xfj:_Event_t2956885303_marshal_pinvoke_cleanup
$pg:_SecurityException_get_FirstPermissionThatFailed_m3934559164
S7f:_Interpreter_Backtrack_m2828876822
XQa:__ZNK9Texture2D20GetUnscaledTextureIDEv
nTi:_List_1_get_Capacity_m3666274724_gshared
_nf:_SByte_System_IConvertible_ToType_m4075253447
csh:_StrongName_get_PublicKey_m1841537984
Oxk:_glFenceSync__wrapper
jzj:__ZNK15dense_hashtableINSt3__24pairIK10KeyWrapperIPK22Il2CppGenericParameterEP11Il2CppClassEES6_N6il2cpp5utils11PointerHashIS4_EEN14dense_hash_mapIS6_S9_SE_NS6_14EqualsComparerINS0_8equal_toIS5_EEEENS0_9allocatorISA_EEE9SelectKeyESJ_SL_E8min_sizeEjj
AKf:_Transform_INTERNAL_get_worldToLocalMatrix_m2730237241
drg:_Single_System_IConvertible_ToUInt64_m3299129161
nqe:__ZL53GameObject_t1113636619_CustomAttributesCacheGeneratorP21CustomAttributesCache
lAi:__Z51RuntimeInvoker_Void_t1185182177_HitInfo_t3229609740PFvvEPK10MethodInfoPvPS4_
aRa:__ZNK9Texture2D26CanReuploadDataToGfxDeviceEv
R7d:__ZL63CodeAccessPermission_t2681295399_CustomAttributesCacheGeneratorP21CustomAttributesCache
M6a:__Z29ClearRepeatingLogMessageStatev
U0e:_InternalEnumerator_1_get_Current_m3191242573_gshared
uEg:_Byte_Equals_m1161982810_AdjustorThunk
Ezi:__Z53RuntimeInvoker_Int32_t2950945753_UICharInfo_t75501106PFvvEPK10MethodInfoPvPS4_
mxc:__ZN15QualitySettings12CleanupClassEv
Rca:__ZN21EnlightenSceneMappingaSERKS_
vva:__ZN14SafeBinaryRead21TransferSTLStyleArrayI13dynamic_arrayI17SortingLayerEntryLj0EEEEvRT_17TransferMetaFlags
eVc:__ZL48__ManagedRegistrationHelperFunction_MeshColliderPv
HUi:_List_1_GrowIfNeeded_m278824317_gshared
eUb:__ZN7ApiGLESD2Ev
Uwa:__ZN9Transform47ClearTransformHierarchyAndApplyToSerializedDataEv
cIj:_CertificateHandler_t2739891000_marshal_pinvoke
JQc:__ZN8JSONRead21TransferSTLStyleArrayINSt3__26vectorI8MonoPPtr13stl_allocatorIS3_L18MemLabelIdentifier1ELi16EEEEEEvRT_17TransferMetaFlags
APf:_InputField_IsSelectionVisible_m3622592134
lCg:_AssemblyLoadEventHandler_Invoke_m1462077361
rya:__ZN6Camera23VirtualRedirectTransferER19StreamedBinaryWriteILb0EE
vsk:dynCall_fidi
MMj:__ZN15dense_hashtableINSt3__24pairIK10KeyWrapperINS1_IPK9FieldInfoP11Il2CppClassEEEjEES9_17ReflectionMapHashIS8_EN14dense_hash_mapIS9_jSD_NS9_14EqualsComparerINS0_8equal_toIS8_EEEENS0_9allocatorISB_EEE9SelectKeyESI_SK_E12resize_deltaEjj
y6j:__ZNK15dense_hashtableINSt3__24pairIK10KeyWrapperIPcES3_EES4_N6il2cpp5utils15PassThroughHashIS3_EEN14dense_hash_mapIS4_S3_SA_NS4_14EqualsComparerINS0_8equal_toIS3_EEEENS0_9allocatorIS6_EEE9SelectKeyESF_SH_E10test_emptyERK30dense_hashtable_const_iteratorIS6_S4_SA_SJ_SF_SH_E
KNi:_List_1_TrimExcess_m3433550210_gshared
cDj:__ZNK15dense_hashtableINSt3__24pairIK10KeyWrapperIPK19Il2CppGenericMethodEPK26Il2CppGenericMethodIndicesEES6_N6il2cpp8metadata23Il2CppGenericMethodHashEN14dense_hash_mapIS6_SA_SE_NS6_14EqualsComparerINSD_26Il2CppGenericMethodCompareEEENS0_9allocatorISB_EEE9SelectKeyESI_SK_E8min_sizeEjj
w4d:__ZL58IContextProperty_t840037424_CustomAttributesCacheGeneratorP21CustomAttributesCache
ygj:_GUILayoutEntry__ctor_m2229197035
f$:__ZN11UnityEngine15CloudWebService14RestDownloaderD2Ev
pSe:_EnumBuilder_get_Assembly_m1175292766
xbc:__Z29StdTemplateConversionFunctionIjhEbPvR14SafeBinaryRead
pBa:__ZN15dense_hashtableINSt3__24pairIKN9ShaderLab7Program23ShaderKeywordSetAndHashEPKNS2_10SubProgramEEES4_NS3_24ShaderKeywordHashFunctorEN14dense_hash_mapIS4_S8_SA_NS0_8equal_toIS4_EE13stl_allocatorIS9_L18MemLabelIdentifier67ELi16EEE9SelectKeyESD_SG_E15insert_noresizeERKS9_
CIi:_Array_swap_TisCustomAttributeNamedArgument_t287865710_TisCustomAttributeNamedArgument_t287865710_m881919420_gshared
Epc:__ZNK13MonoBehaviour13GetScriptTypeEv
jJa:__ZN13RenderTexture12SetDimensionE16TextureDimension
skg:_SslClientStream_set_ClientCertSelectionDelegate_m1261530976
Poa:__ZN9Scripting11UnityEngine16GradientColorKey9InitProxyEv
ie:_SDL_FreeRW
Wye:__ZL109ExecuteEvents_t3484638744_CustomAttributesCacheGenerator_ExecuteEvents_U3Cs_HandlerListPoolU3Em__0_m391641698P21CustomAttributesCache
JAi:__Z79RuntimeInvoker_Void_t1185182177_Int32_t2950945753_ParameterModifier_t1461694466PFvvEPK10MethodInfoPvPS4_
fed:__Z34CanvasRenderer_Get_Custom_PropCullP12Il2CppObject
MR:__ZN20SoundChannelInstance8getDelayE14FMOD_DELAYTYPEPjS1_
phk:__ZNSt3__26__treeINS_12__value_typeIPvxEENS_19__map_value_compareIS2_S3_NS_4lessIS2_EELb1EEENS_9allocatorIS3_EEE12__find_equalIS2_EERPNS_16__tree_node_baseIS2_EESF_RKT_
GBa:__ZNSt3__26vectorIN20GpuProgramParameters15StructParameterENS_9allocatorIS2_EEEC2ERKS5_
GWe:_ArrayReadOnlyList_1_Contains_m232667507_gshared
nli:__Z77RuntimeInvoker_Boolean_t97287965_IntPtr_t_Int32_t2950945753_SByte_t1669577662PFvvEPK10MethodInfoPvPS4_
fEf:_PlayableHandle_GetPlayableType_m432385838_AdjustorThunk
oXc:__ZNSt3__26vectorIN20TextRenderingPrivate8FontImpl13CharacterInfoE13stl_allocatorIS3_L18MemLabelIdentifier1ELi16EEE8__appendEj
v:tempBigInt
eFi:_Array_InternalArray__Insert_TisKeyframe_t4206410242_m1558638568_gshared
aae:__ZL77Convert_t2465617642_CustomAttributesCacheGenerator_Convert_ToByte_m3567528984P21CustomAttributesCache
qe:_emscripten_glVertexAttrib1fv
ifc:__ZNSt3__26vectorIN9ShaderLab20SerializedSubProgram12UAVParameterENS_9allocatorIS3_EEE7reserveEj
Bpk:__ZSt11__terminatePFvvE
lO:__ZN12AudioManager14systemCallbackEP11FMOD_SYSTEM24FMOD_SYSTEM_CALLBACKTYPEPvS3_
s5h:_Nullable_1_Equals_m4046255732_gshared
$$h:_ReadOnlyCollection_1_System_Collections_Generic_ICollectionU3CTU3E_Clear_m3451551308_gshared
Yxd:_BaseMeshEffect_OnEnable_m3291426649
uuf:_ClassLibraryInitializer_Init_m988673678
sCg:_AssemblyLoadEventHandler_BeginInvoke_m1281107466
pHa:__ZN16ReflectionProbes16UpdateSampleDataEv
Jif:_TrackingServices_NotifyUnmarshaledObject_m2784831802
EHg:_ReadOnlyArrayListWrapper_Sort_m2577012511
Hka:__ZL46__ManagedRegistrationHelperFunction_UnityEventPv
lNg:_CultureInfo_GetCultureInfo_m56098747
sOa:__ZN14Texture2DArray5ResetEv
k5b:__Z20AddActiveLocalLightsR11CullResultsR27LocalLightCullingParametersPPK15SharedLightDataPK8Vector4fRK9IndexListPfRSA_R12ActiveLightsSG_P5RectTIfEP13TargetEyeMask
Cs:__ZL53__ManagedRegistrationHelperFunction_AnimatorStateInfoPv
l1g:_Convert_ToDecimal_m1284148187
NTh:_Collection_1__ctor_m3489157029_gshared
Die:__ZL117TouchScreenKeyboard_t731888065_CustomAttributesCacheGenerator_TouchScreenKeyboard_Open_m3609399077____autocorrection2P21CustomAttributesCache
$ja:__ZL52__ManagedRegistrationHelperFunction_AndroidJNIHelperPv
U_c:_cf2_getNormalizedVector
iua:__ZN5RectTIfE8TransferI18StreamedBinaryReadILb0EEEEvRT_
Ne:_JS_Sound_Play
Dbf:_KeyCollection_GetEnumerator_m1862005650_gshared
W3d:__ZL56_MethodBuilder_t600455149_CustomAttributesCacheGeneratorP21CustomAttributesCache
_0h:_ReadOnlyCollection_1_System_Collections_IList_set_Item_m1538987737_gshared
$dc:__ZN9ShaderLab16SerializedShader8TransferI14SafeBinaryReadEEvRT_
H5a:__ZN5Mutex7TryLockEv
mFd:_GridLayoutGroup_set_constraint_m3308895167
vue:__ZL103AudioSource_t3935305588_CustomAttributesCacheGenerator_AudioSource_ReadExtensionPropertyValue_m72717540P21CustomAttributesCache
gUd:_ConstructionCallDictionary_SetMethodProperty_m3145285304
yrb:__ZN15SerializeTraitsI13dynamic_arrayIsLj0EEE19ResizeSTLStyleArrayERS1_i
g1a:__ZN11TimeManagerD2Ev
zXe:_InternalEnumerator_1_System_Collections_IEnumerator_get_Current_m1503522504_gshared
lE:__ZN7mecanim8skeleton13SkeletonAlignEPKNS0_8SkeletonERKN4math7_float4ES7_i
_wc:__ZN19ShaderPropertySheet16SetVectorIndexedEN9ShaderLab16FastPropertyNameEifRK8Vector4fNS_8SetFlagsE
BOh:_Type_get_IsAbstract_m1120089130
OLf:_Vector3_get_normalized_m2454957984_AdjustorThunk
Kq:__ZN14SafeBinaryRead21TransferSTLStyleArrayIN4core12basic_stringIcNS1_20StringStorageDefaultIcEEEEEEvRT_17TransferMetaFlags
nfj:_UriFormatException__ctor_m1115096473
U_e:_InternalEnumerator_1_Dispose_m2818366163_AdjustorThunk
cfh:_Array_InternalArray__IEnumerable_GetEnumerator_TisSlot_t384495010_m460993382_gshared
gXj:__ZN15dense_hashtableINSt3__24pairIK10KeyWrapperINS1_IP11Il2CppClassjEEES4_EES6_N6il2cpp8metadata14ArrayClassHashEN14dense_hash_mapIS6_S4_SB_NS6_14EqualsComparerINSA_17ArrayClassCompareEEENS0_9allocatorIS8_EEE9SelectKeyESF_SH_E9copy_fromERKSK_j
$bc:__Z29StdTemplateConversionFunctionIayEbPvR14SafeBinaryRead
$Kh:_WaitHandle__ctor_m1707080176
pEi:__Z55RuntimeInvoker_Boolean_t97287965_Nullable_1_t2603721331PFvvEPK10MethodInfoPvPS4_
gij:_GUIUtility_IsExitGUIException_m3644066650
G$:__ZN11UnityEngine15CloudWebService14DataDispatcher4StopEv
SQg:_Int16_System_IConvertible_ToUInt64_m134975563
kfc:__ZNSt3__26vectorIN9ShaderLab20SerializedSubProgram12UAVParameterENS_9allocatorIS3_EEE8__appendEj
GXe:_InternalEnumerator_1__ctor_m4191108945_gshared
rQj:__ZNK15dense_hashtableINSt3__24pairIK10KeyWrapperINS1_IPK9EventInfoP11Il2CppClassEEEjEES9_17ReflectionMapHashIS8_EN14dense_hash_mapIS9_jSD_NS9_14EqualsComparerINS0_8equal_toIS8_EEEENS0_9allocatorISB_EEE9SelectKeyESI_SK_E12test_deletedERK24dense_hashtable_iteratorISB_S9_SD_SM_SI_SK_E
$Ic:__ZN5IMGUI9GUIWindow5OnGUIER8GUIState
Nnj:_AudioConfigurationChangeHandler_EndInvoke_m4175380841
Mqg:_Single_System_IConvertible_ToDecimal_m325860800_AdjustorThunk
akh:_Array_InternalArray__ICollection_CopyTo_TisSingle_t1397266774_m455540885_gshared
Hja:__ZN17ScriptingGCHandle7AcquireE18ScriptingObjectPtr25ScriptingGCHandleWeakness
Brj:__ZL25UnresolvedVirtualCall_168P12Il2CppObject39CustomAttributeNamedArgument_t287865710S1_PK10MethodInfo
Cni:__Z74RuntimeInvoker_RuntimeObject_RuntimeObject_Int64_t3736567304_RuntimeObjectPFvvEPK10MethodInfoPvPS4_
Cff:_Enumerator__ctor_m1734342590_gshared
qrk:dynCall_iifiii
Pzb:__ZN18StreamedBinaryReadILb1EE8TransferI13dynamic_arrayIjLj0EEEEvRT_PKc17TransferMetaFlags
Kpi:__Z85RuntimeInvoker_Int32_t2950945753_RuntimeObject_Int32U26_t1369213839_Int32_t2950945753PFvvEPK10MethodInfoPvPS4_
QOa:__Z21HasAlphaTextureFormat13TextureFormat
iW:__ZN12AudioManager6UpdateEv
KOa:__ZN14ImageReference9BlitImageERKS_NS_8BlitModeE
cv:__ZN8Animator12AddToManagerEv
$Je:_MissingFieldException__ctor_m3742452630
O5f:_X509Chain__ctor_m2674663382
t0:__GLOBAL__sub_I_Runtime_Core_Callbacks_0_cpp
a0h:_ReadOnlyCollection_1_System_Collections_Generic_IListU3CTU3E_Insert_m1121807192_gshared
IFb:__ZN23CachedSerializationDataD2Ev
w7b:__ZNK25CameraStackRenderingState31CalculateStereoCameraTargetTypeEv
PGa:__ZN14RenderSettings23VirtualRedirectTransferER14SafeBinaryRead
a4e:_InternalEnumerator_1_get_Current_m114240259_gshared
k8j:__ZN6il2cpp2os10ThreadImpl15CurrentThreadIdEv
syh:_EqualityComparer_1__ctor_m1138336971_gshared
PFa:__ZN17GlobalGameManager8TransferI17RemapPPtrTransferEEvRT_
qHe:__ZL73FieldWithTarget_t3058750293_CustomAttributesCacheGenerator_m_StaticStringP21CustomAttributesCache
ang:_SymmetricAlgorithm_get_Key_m3241860519
rQf:_U3CMouseDragOutsideRectU3Ec__Iterator1_Reset_m2233410497
n0:__GLOBAL__sub_I_Runtime_Camera_5_cpp
Dgg:_ClientSessionInfo_get_HostName_m2118440995
LEa:__ZN16LevelGameManager8TransferI18StreamedBinaryReadILb0EEEEvRT_
f7c:_UNITY_tt_face_load_fpgm
Nwa:__Z17IsObjectAvailablei
x1a:__ZN12InputManagerD0Ev
$Ja:__Z32TransferEnumWithNameForceIntSizeI14SafeBinaryRead17TextureFilterModeEvRT_RT0_PKc17TransferMetaFlags
G6d:__ZL64DSASignatureFormatter_t2007981259_CustomAttributesCacheGeneratorP21CustomAttributesCache
jLh:_ExecutionContext_Capture_m681135907
_th:_Dictionary_2_System_Collections_IDictionary_Add_m4011968134_gshared
GBb:__Z18Transfer_BlittableI18StreamedBinaryReadILb0EELb1EtEvRK29SerializationCommandArgumentsR31RuntimeSerializationCommandInfo
HYe:_InternalEnumerator_1_System_Collections_IEnumerator_get_Current_m2889979481_AdjustorThunk
vok:_posix_memalign
IFf:_Rect_get_position_m2115952571
g_h:_ReadOnlyCollection_1_get_Item_m4005849861_gshared
OYf:_Slider_get_direction_m3871593184
Yoh:_ASN1_GetBytes_m3305539297
ZUi:_List_1_Remove_m2092116835_gshared
Roe:__ZL86Logger_t274032455_CustomAttributesCacheGenerator_Logger_LogFormat_m3030796110____args2P21CustomAttributesCache
Fae:__ZL77Convert_t2465617642_CustomAttributesCacheGenerator_Convert_ToSByte_m717245755P21CustomAttributesCache
s6e:_DefaultComparer__ctor_m2039558311_gshared
E7:__ZNK15MonoScriptCache7ReleaseEv
fAj:__ZN6il2cpp2vm5Class13HasReferencesEP11Il2CppClass
YFg:_CLSCompliantAttribute__ctor_m581760440
ag:_glBindTexture
Lmk:_snprintf
YTg:_InvalidCastException__ctor_m2551002860
Cui:__Z50RuntimeInvoker_RuntimeObject_Resources_t1597885468PFvvEPK10MethodInfoPvPS4_
Gwk:_emscripten_glVertexAttrib1fv__wrapper
_wf:_InvokableCallList_RemoveListener_m1769379719
zwc:__ZN16LevelGameManagerC2E10MemLabelId18ObjectCreationMode
vnj:_AudioExtensionManager_RemoveExtensionFromManager_m442924172
FBf:_MonoBehaviour_Internal_IsInvokingAll_m2820042090
dvk:_emscripten_glGetProgramInfoLog__wrapper
Vt:__ZN25AnimatedPropertyEvaluator29BindCurveToScriptingObjectPtrERKN13AnimationClip10FloatCurveEj18ScriptingObjectPtrb
ZYa:__ZN13ScreenManager20SetScreenOrientationE17ScreenOrientation
UXi:_Collection_1_SetItem_m1090516645_gshared
sAe:__ZL52InputMode_t3382566315_CustomAttributesCacheGeneratorP21CustomAttributesCache
Mog:_String_Equals_m1744302937
cwf:_Display__ctor_m501911701
vYh:_ReadOnlyCollection_1_System_Collections_Generic_IListU3CTU3E_Insert_m1020890112_gshared
QJg:_Hashtable__cctor_m4112166779
XBd:_Dropdown_get_onValueChanged_m2462066659
jBd:_DefaultControls_SetDefaultTextValues_m1943359795
S$b:__Z19SetupMotionMatricesR6CameraR18RPDataMotionVector
mxj:__ZL7log2_64y
MF:__ZN26AnimatorControllerPlayable18PrepareForPlaybackERN7mecanim6memory9AllocatorE
_F:__ZN8Animator11AnimatorJob11AddPlayableEP17AnimationPlayablef
hFd:_GridLayoutGroup_get_cellSize_m2967185053
M4g:_CurrentSystemTimeZone_GetUtcOffset_m340358963
w6i:_PKCS12_Decrypt_m1280162536
QYe:_InternalEnumerator_1_get_Current_m3081223448_gshared
Lfj:_Event_get_isMouse_m1058251071
$Da:__ZN10VertexDataC2ERKS_17ShaderChannelMask10MemLabelId
NIg:_CaseInsensitiveHashCodeProvider_AreEqual_m1790260777
tYi:_Collection_1_IndexOf_m3762683187_gshared
V1c:_otv_JSTF_validate
JBa:__ZN22CreateGpuProgramOutputC2Ev
sag:_BigInteger_op_LessThanOrEqual_m3925173639
nxf:_PersistentCallGroup_Initialize_m4253175514
cDg:_Boolean_System_IConvertible_ToChar_m4279513009_AdjustorThunk
JJg:_Hashtable__ctor_m1763145853
$Yd:__ZL66RuntimeArray_CustomAttributesCacheGenerator_Array_Sort_m3145621264P21CustomAttributesCache
fQf:_InputField_get_layoutPriority_m2945430764
IMe:_NumberFormatter_ScaleOrder_m3813786990
Hui:__Z43RuntimeInvoker_VerticalWrapMode_t2936607737PFvvEPK10MethodInfoPvPS4_
PVe:__ZN25GenericVirtActionInvoker2IP12Il2CppObjectS1_E6InvokeEPK10MethodInfoS1_S1_S1_
crh:_PrivateKeyInfo_DecodeDSA_m771724585
M8f:_Interval_get_Size_m4163671410_AdjustorThunk
vye:__ZL53EventHandle_t600343995_CustomAttributesCacheGeneratorP21CustomAttributesCache
Mtc:__ZN8GUILayer12CleanupClassEv
THg:_SynchronizedArrayListWrapper_get_SyncRoot_m3862302789
ZMi:_List_1_System_Collections_IEnumerable_GetEnumerator_m839737540_gshared
kRh:_UInt32_System_IConvertible_ToSByte_m1061556466
skf:_WellKnownClientTypeEntry__ctor_m2471908952
eAj:__ZN6il2cpp2vm5Class4InitEP11Il2CppClass
ga:invoke_vidi
YNe:_NumberFormatter_FormatRoundtrip_m19342689
Yjf:_RemotingServices_CreateClientProxyForContextBound_m783705199
Ivi:__Z30RuntimeInvoker_Axis_t809944411PFvvEPK10MethodInfoPvPS4_
fBc:__ZNK15GUIEventManager15GetEventAtIndexEi
p3i:_InternalAsyncResult_get_ProceedAfterHandshake_m2508379800
bgd:__ZN2UI14CanvasRenderer17SyncDirtyElementsER8JobFence
CBb:__Z18Transfer_BlittableI18StreamedBinaryReadILb0EELb0ExEvRK29SerializationCommandArgumentsR31RuntimeSerializationCommandInfo
E3g:_Convert_ToUInt16_m2952781888
S8e:_Enumerator_System_Collections_IEnumerator_get_Current_m3816090481_gshared
rak:__ZN6il2cpp5utils11StringUtils15StringDuplicateEPKc
Jwh:_DefaultComparer_Equals_m2480133610_gshared
$Aa:__ZNK9ShaderLab21ShaderRasterStateDesc16ToGfxRasterStateEPK19ShaderPropertySheetS3_R14GfxRasterState
rIi:_Array_Sort_TisVector3_t3722313464_m1915176437_gshared
Tjk:__ZN6il2cpp2os9EventImplC2Ebb
oXf:_ScrollRect_OnInitializePotentialDrag_m3139711961
uHh:_List_1_System_Collections_IList_get_IsFixedSize_m3566150119_gshared
aI:__ZN4PPtrI13MonoBehaviourE8TransferI19StreamedBinaryWriteILb0EEEEvRT_
CQi:_List_1_get_Item_m2113769949_gshared
hTf:_MaskableGraphic_OnTransformParentChanged_m329502413
T$f:_NameValueCollection__ctor_m4090053322
lIf:_ScriptableObject_t2528358522_marshal_pinvoke
W3:__Z20IsMatrixBuiltinParamPKcPi
QQj:__ZN6il2cpp2gc19AppendOnlyGCHashMapINSt3__24pairIPK10MethodInfoP11Il2CppClassEEP11Il2CppArray17ReflectionMapHashIS9_ENS2_8equal_toIS9_EEEC2Ev
uog:_String_memcpy4_m979367827
hqg:_SecurityFrame_t1422462475_marshal_pinvoke
kOj:__ZN15dense_hashtableINSt3__24pairIK10KeyWrapperINS1_IPK10MethodInfoP11Il2CppClassEEEjEES9_17ReflectionMapHashIS8_EN14dense_hash_mapIS9_jSD_NS9_14EqualsComparerINS0_8equal_toIS8_EEEENS0_9allocatorISB_EEE9SelectKeyESI_SK_E16reset_thresholdsEv
hJh:_UnicodeEncoding_GetBytesInternal_m1902824297
Cwc:__ZN8Renderer19PostInitializeClassEv
Dgh:_Array_FindIndex_TisRuntimeObject_m2504082708_gshared
Zfd:__ZNSt3__26__treeINS_12__value_typeINS_4pairIKiS3_EEN2UI14DepthSortLayerEEENS_19__map_value_compareIS4_S7_NS_4lessIS4_EELb1EEE13stl_allocatorIS7_L18MemLabelIdentifier1ELi16EEE25__emplace_unique_key_argsIS4_JRKNS_21piecewise_construct_tENS_5tupleIJOS4_EEENSK_IJEEEEEENS2_INS_15__tree_iteratorIS7_PNS_11__tree_nodeIS7_PvEEiEEbEERKT_DpOT0_
n8i:_X509Chain_FindCertificateRoot_m1937726457
BYg:_StreamAsyncResult_get_AsyncWaitHandle_m3390046559
Njd:__ZN11UnityEngine15PlatformWrapper21GetVRPlayAreaGeometryER13dynamic_arrayI8Vector3fLj0EE
fgk:__ZN6il2cpp6icalls8mscorlib6System8Delegate23CreateDelegate_internalEP20Il2CppReflectionTypeP12Il2CppObjectP22Il2CppReflectionMethodb
T9e:_Enumerator_System_Collections_IEnumerator_get_Current_m921113401_AdjustorThunk
BJg:_DictionaryEntry_get_Value_m618120527_AdjustorThunk
$Eb:__ZN18DelayedCallManager18CancelCallDelayed2E4PPtrI6ObjectEPF15CallObjectStatePS1_PvES7_
Qua:__ZN25ThreadsafeLinearAllocator10ReallocateEPvji
yob:__Z18Transfer_BlittableI14SafeBinaryReadLb1E11QuaternionfEvRK29SerializationCommandArgumentsR31RuntimeSerializationCommandInfo
Vga:__ZN18SpriteAtlasManagerD0Ev
vx:__ZN7mecanim9animation10SampleClipERKNS0_12ConstantClipEjPf
Rlj:_ToggleGroup_set_allowSwitchOff_m4192200290
Txi:__Z57RuntimeInvoker_Boolean_t97287965_KeyValuePair_2_t71524366PFvvEPK10MethodInfoPvPS4_
gXa:__ZN10Matrix4x4f8TransferI14SafeBinaryReadEEvRT_
qPj:__ZNK10KeyWrapperINSt3__24pairIPK12PropertyInfoP11Il2CppClassEEE14EqualsComparerINS0_8equal_toIS7_EEEclERKS8_SE_
Zof:_CryptographicUnexpectedOperationException__ctor_m2381988196
tRj:__ZN14dense_hash_mapI10KeyWrapperIPK22Il2CppGenericParameterEPK24MonoGenericParameterInfoN6il2cpp5utils11PointerHashIS2_EENS4_14EqualsComparerINSt3__28equal_toIS3_EEEENSD_9allocatorINSD_4pairIKS4_S7_EEEEE15set_deleted_keyERSJ_
JF:__ZN14AvatarPlayback8StopTimeEv
t$e:_InternalEnumerator_1_System_Collections_IEnumerator_get_Current_m4213507601_gshared
hba:__Z6AppendRKN4core12basic_stringIcNS_20StringStorageDefaultIcEEEEPKc
gDi:__Z74RuntimeInvoker_DictionaryEntry_t3123975638_RuntimeObject_SByte_t1669577662PFvvEPK10MethodInfoPvPS4_
x8a:__ZL14OnWorldStoppedv
lfh:_Array_InternalArray__IEnumerable_GetEnumerator_TisCustomAttributeNamedArgument_t287865710_m523021714_gshared
V3j:__ZN6il2cpp2vm6Object12NullableInitEPhP12Il2CppObjectP11Il2CppClass
lWh:__ZN21InterfaceFuncInvoker1I19Vector4_t3319028937iE6InvokeEjP11Il2CppClassP12Il2CppObjecti
Uma:__ZN9Scripting11UnityEngine16TrackedReference12CleanupProxyEv
a_c:__ZN20TextRenderingPrivate19NativeTextGeneratorC2ERK11UTF16StringPNS_8FontImplE11ColorRGBA32ifRK8Vector2fbifiibffbbP13dynamic_arrayIN2UI8UIVertexELj0EE
AKg:_HashKeys_get_SyncRoot_m3757723936
_hj:_GUIUtility_RemoveCapture_m1294193818
$Nb:__ZN7ApiGLES18ClearBufferSubDataEjN2gl12BufferTargetEll
Coc:__Z37Camera_Get_Custom_PropAllCamerasCountv
TPa:__ZN14Texture2DArray8TransferI18StreamedBinaryReadILb0EEEEvRT_
TTi:_List_1_CopyTo_m2746988508_gshared
OJc:__Z38Register_UnityEngine_GUIStyle_get_namev
J8c:_Split_Cubic
$a:invoke_fiiii
QPf:_InputField_OnSubmit_m3583210804
Fve:__ZL72GUISkin_t1244372282_CustomAttributesCacheGenerator_m_horizontalScrollbarP21CustomAttributesCache
zej:_Uri_CheckHostName_m2213216182
Dwk:_emscripten_glBindRenderbuffer__wrapper
ZJi:_Mesh_SetUvsImpl_TisVector2_t2156229523_m3009194955_gshared
Fbg:_HMAC_set_Key_m3535779141
tIi:_Array_Sort_TisVector4_t3319028937_TisVector4_t3319028937_m4254533673_gshared
Q3e:_InternalEnumerator_1_System_Collections_IEnumerator_Reset_m729791527_AdjustorThunk
YGg:_ArrayListWrapper_Contains_m2641184447
u8c:_ft_black_render
Kki:__Z177RuntimeInvoker_Int32_t2950945753_RuntimeObject_Int32_t2950945753_Int32_t2950945753_RuntimeObject_Int32_t2950945753_EncoderFallbackBufferU26_t2343550713_CharU5BU5DU26_t3299466565PFvvEPK10MethodInfoPvPS4_
Csk:dynCall_viiifi
OQb:__ZN18GfxFramebufferGLES20ActiveContextChangedEPP17RenderSurfaceBaseS2_
Soe:__ZL86Logger_t274032455_CustomAttributesCacheGenerator_Logger_LogFormat_m3300686007____args3P21CustomAttributesCache
hlb:__Z19PluginsRenderMarkeri
R5e:_InternalEnumerator_1__ctor_m2307827786_AdjustorThunk
MI:__ZN10HumanTrait18InitializeBoneNameEv
rfc:__ZNSt3__26vectorIN9ShaderLab20SerializedSubProgram15StructParameterENS_9allocatorIS3_EEE6assignINS_11__wrap_iterIPS3_EEEENS_9enable_ifIXaasr21__is_forward_iteratorIT_EE5valuesr16is_constructibleIS3_NS_15iterator_traitsISC_E9referenceEEE5valueEvE4typeESC_SC_
rOa:__ZN14Texture2DArray21AwakeFromLoadThreadedEv
CCb:__Z29Transfer_Blittable_ArrayFieldI18StreamedBinaryReadILb0EEyEvRT_R9ArrayInfoRK23StaticTransferFieldInfo
GJf:_Touch_get_position_m3109777936_AdjustorThunk
s2j:__ZNSt3__214__split_bufferIN6il2cpp2vm5Image20EmbeddedResourceDataERNS_9allocatorIS4_EEEC2EjjS7_
qte:__ZL66SkeletonBone_t4134054672_CustomAttributesCacheGenerator_parentNameP21CustomAttributesCache
Ayd:_CanvasScaler_set_screenMatchMode_m2975492035
Uhd:__Z69Register_UnityEngine_Analytics_UnityAnalyticsHandler_Internal_Destroyv
Y4f:_X509Certificate2Collection_Add_m3151757943
sZd:__ZL83RuntimeArray_CustomAttributesCacheGenerator_RuntimeArray____LongLength_PropertyInfoP21CustomAttributesCache
U7e:_Comparer_1__cctor_m951016718_gshared
HWc:__ZN9Scripting11UnityEngine13CharacterInfo9InitProxyEv
RIg:_CaseInsensitiveHashCodeProvider_get_DefaultInvariant_m4264275163
dce:__ZL67IndexOutOfRangeException_t1578797820_CustomAttributesCacheGeneratorP21CustomAttributesCache
ali:__Z195RuntimeInvoker_Int32_t2950945753_RuntimeObject_Int32_t2950945753_Int32_t2950945753_Int32_t2950945753_RuntimeObject_DecoderFallbackBufferU26_t3866396827_ByteU5BU5DU26_t4057885439_SByte_t1669577662PFvvEPK10MethodInfoPvPS4_
grj:__ZL25UnresolvedVirtualCall_147P12Il2CppObject16Rect_t2360479859aPK10MethodInfo
jX:__ZN5physx14PxLightCpuTask12addReferenceEv
uDa:__ZNK15InstancingProps35FillInstanceBufferDispatchConstantsIN10Instancing14RenderLoopArgsEEEvPPvjjRK19ShaderPropertySheetRKT_
Dyi:__Z86RuntimeInvoker_Int32_t2950945753_Color32_t2600501292_Color32_t2600501292_RuntimeObjectPFvvEPK10MethodInfoPvPS4_
uWa:__ZN21EnlightenSceneMapping8TransferI19StreamedBinaryWriteILb0EEEEvRT_
O4j:__ZN6il2cpp2gc16GarbageCollector19InitializeFinalizerEv
YA:__ZN7mecanim8skeleton18CreateSkeletonMaskEjPKNS0_19SkeletonMaskElementERNS_6memory9AllocatorE
R1h:_ReadOnlyCollection_1_System_Collections_Generic_ICollectionU3CTU3E_get_IsReadOnly_m2508509261_gshared
yKc:__ZN10GUIManager10DoGUIEventER10InputEventb
rub:__Z35Transfer_Blittable_FixedBufferFieldI24GenerateTypeTreeTransferxEvRK29SerializationCommandArgumentsR31RuntimeSerializationCommandInfo
J2c:_otv_LangSys_validate
MGf:_RectOffset_get_right_m2294081512
nrj:__ZL25UnresolvedVirtualCall_154P12Il2CppObjectfPK10MethodInfo
PId:__ZN25GenericVirtActionInvoker1IP20Delegate_t1188392813E6InvokeEPK10MethodInfoP12Il2CppObjectS1_
CFi:_Array_InternalArray__set_Item_TisLink_t544317964_m1234244240_gshared
l7c:_UNITY_TT_Init_Glyph_Loading
$5d:__ZL61SerializationBinder_t274213469_CustomAttributesCacheGeneratorP21CustomAttributesCache
cCd:_OptionData_get_text_m2997376818
Iaf:_Enumerator__ctor_m324536319_gshared
Tmf:_SerializationInfo_GetBoolean_m1756153320
aQ:__Z32AudioMixerDuckingProcessCallbackP21UnityAudioEffectStatePfS1_jii
fWf:_U3CClickRepeatU3Ec__Iterator0_System_Collections_IEnumerator_get_Current_m543328413
gBf:_Mesh_get_uv2_m3615020997
mYh:_ReadOnlyCollection_1_Contains_m2979956790_gshared
Avc:__ZN26CustomRenderTextureManagerD2Ev
grc:__Z32Input_Get_Custom_PropInputStringv
Exh:_EqualityComparer_1_System_Collections_IEqualityComparer_Equals_m4172006498_gshared
cM:__ZN12AudioManager8TransferI24GenerateTypeTreeTransferEEvRT_
HGi:_Array_qsort_TisOrderBlock_t1585977831_m3322202512_gshared
pAf:_Mathf_Round_m4098141538
nIa:__Z25GetBytesFromTextureFormat13TextureFormat
vZa:__ZN9Texture3D19UnloadFromGfxDeviceEb
tZj:__ZN6il2cpp6icalls8mscorlib6System9Threading6Thread20Thread_free_internalEP12Il2CppThreadi
MIb:__ZNK11PreloadData18GetInstanceIDArrayER13dynamic_arrayIiLj0EE
Asb:__Z18Transfer_BlittableI17RemapPPtrTransferLb0EsEvRK29SerializationCommandArgumentsR31RuntimeSerializationCommandInfo
Vxe:__ZL64UnityAnalyticsHandler_t3011359618_CustomAttributesCacheGeneratorP21CustomAttributesCache
L$f:__KeysEnumerator_get_Current_m2996478063
wKe:_AmbiguousMatchException__ctor_m2012725345
B8:__Z32scripting_class_get_assemblyname17ScriptingClassPtr
Jjd:__ZN11UnityEngine15PlatformWrapper15GetVRDeviceNameEv
_Fe:__ZL109LayoutUtility_t2745813735_CustomAttributesCacheGenerator_LayoutUtility_U3CGetFlexibleWidthU3Em__3_m1091238571P21CustomAttributesCache
oui:__Z99RuntimeInvoker_Boolean_t97287965_Int32_t2950945753_PointerEventDataU26_t867828220_SByte_t1669577662PFvvEPK10MethodInfoPvPS4_
$Ze:_InternalEnumerator_1_get_Current_m2128158355_AdjustorThunk
Cib:__ZN9GfxDevice21RegisterNativeTextureE9TextureIDi16TextureDimension
UDd:_GraphicRegistry__ctor_m1851575309
hAi:__Z52RuntimeInvoker_Void_t1185182177_Keyframe_t4206410242PFvvEPK10MethodInfoPvPS4_
bde:__ZL53TypeFilter_t2356120900_CustomAttributesCacheGeneratorP21CustomAttributesCache
hhk:__ZN6il2cpp6icalls8mscorlib6System10Reflection4Emit11TypeBuilder20create_generic_classEP27Il2CppReflectionTypeBuilder
ZQb:__ZNK16UniformCacheGLES6SubmitEjRK13dynamic_arrayIN20GpuProgramParameters14ValueParameterELj0EERKS0_IiLj0EE
peh:_PlayableHandle_IsPlayableOfType_TisAnimationLayerMixerPlayable_t3631223897_m201603007_gshared
b9d:__ZL50Monitor_t2197244473_CustomAttributesCacheGeneratorP21CustomAttributesCache
tKj:__ZNSt3__26vectorIPK10MethodInfoNS_9allocatorIS3_EEE26__swap_out_circular_bufferERNS_14__split_bufferIS3_RS5_EE
Lag:_PrimalityTest_EndInvoke_m1035389364
FU:__Z60Register_UnityEngine_AudioListener_GetNumExtensionPropertiesv
Vi:_emscripten_glUniformMatrix4fv
vXj:__ZN15dense_hashtableINSt3__24pairIK10KeyWrapperINS1_IP11Il2CppClassjEEES4_EES6_N6il2cpp8metadata14ArrayClassHashEN14dense_hash_mapIS6_S4_SB_NS6_14EqualsComparerINSA_17ArrayClassCompareEEENS0_9allocatorIS8_EEE9SelectKeyESF_SH_E13set_empty_keyERKS8_
f$e:_InternalEnumerator_1_get_Current_m3839250771_AdjustorThunk
Iff:_Enumerator_Dispose_m3040896940_AdjustorThunk
OAk:b100
jBf:_Mesh_get_colors32_m1253190811
tdk:_GC_stopped_mark
Xqd:__ZL59__ManagedRegistrationHelperFunction_SubsystemDescriptorBasePv
csf:_AnimationCurve_Finalize_m2397002729
l_f:_Text_OnEnable_m616205807
GEi:__Z50RuntimeInvoker_RuntimeObject_ColorTween_t809614380PFvvEPK10MethodInfoPvPS4_
EPf:_InputField_OnFillVBO_m3649106646
ymf:_SerializationCallbacks__cctor_m1674315180
sgc:__Z32TransferEnumWithNameForceIntSizeI14SafeBinaryRead7FogModeEvRT_RT0_PKc17TransferMetaFlags
KFj:__ZNK15dense_hashtableI10KeyWrapperIPK19Il2CppGenericMethodES4_N6il2cpp8metadata23Il2CppGenericMethodHashEN14dense_hash_setIS4_S7_NS4_14EqualsComparerINS6_26Il2CppGenericMethodCompareEEENSt3__29allocatorIS4_EEE8IdentityESB_SE_E23find_position_with_hashERKS4_j
BAa:__ZNSt3__26vectorIN12FlareManager10FlareEntryENS_9allocatorIS2_EEE21__push_back_slow_pathIS2_EEvOT_
fic:__ZN9ShaderLab20SerializedSubProgram16TextureParameter8TransferI19StreamedBinaryWriteILb0EEEEvRT_
Sta:__ZNK7Hash12812PackToUInt32Ev
ZHg:_SynchronizedArrayListWrapper_IndexOf_m3642674350
O7d:__ZL58WindowsIdentity_t2948242406_CustomAttributesCacheGeneratorP21CustomAttributesCache
O$:__ZN11UnityEngine15CloudWebService16SessionContainer8AddEventEPNS0_14CloudEventInfoE
Imb:__Z4TrimRKN4core12basic_stringIcNS_20StringStorageDefaultIcEEEES5_
n$h:_ReadOnlyCollection_1_CopyTo_m209634623_gshared
nJi:_Dictionary_2_Do_ICollectionCopyTo_TisKeyValuePair_2_t3842366416_m1399105608_gshared
Hye:__ZL77ExecuteEvents_t3484638744_CustomAttributesCacheGenerator_U3CU3Ef__mgU24cache2P21CustomAttributesCache
i4f:_X509Certificate2_Import_m4026562329
Waf:_Enumerator_System_Collections_IEnumerator_get_Current_m2763095718_AdjustorThunk
Mxk:_glGetStringi__wrapper
cXa:__ZN10VertexData8TransferI14SafeBinaryReadEEvRT_
qga:__ZN13RuntimeStaticI12AdsIdHandlerLb0EE16StaticInitializeEPv
hfk:_GC_malloc_atomic
LPd:_ActivatedClientTypeEntry_ToString_m2494181680
DBh:_HashSet_1_GetEnumerator_m3346268098_gshared
Whk:__ZN6il2cpp5utils6Memory13AlignedMallocEjj
NEf:_PropertyName_GetHashCode_m3570549176_AdjustorThunk
Ule:__ZL55PropertyName_t3749835189_CustomAttributesCacheGeneratorP21CustomAttributesCache
WPf:_Selectable_get_animator_m2899312855
E6:__ZL20SortItemByInstanceIDRKN18AwakeFromLoadQueue4ItemES2_
vLf:_Vector2_op_Multiply_m2347887432
iDd:_FontData_get_maxSize_m195374730
b0f:_TypeConverterAttribute__ctor_m1774069684
hB:__ZNK34AnimationStateMachineMixerPlayable26GetInterruptedPosePlayableEv
wmd:__ZN20UnityConnectSettings8TransferI24GenerateTypeTreeTransferEEvRT_
OD:__ZN34BlobWriteTransferSTLStyleArrayImplI22OffsetPtrArrayTransferIbEEclERS1_17TransferMetaFlagsR9BlobWrite
Wuc:__ZZN12MeshRenderer15InitializeClassEvEN29FunctorImpl_205kDidDeleteMesh4CallEPviR11MessageData
cyg:_Byte_ToString_m4063101981
lLe:_MonoType_GetConstructors_m2574682189
C9j:__ZNK15dense_hashtableINSt3__24pairIK10KeyWrapperIPK19Il2CppGenericMethodEP10MethodInfoEES6_N6il2cpp8metadata23Il2CppGenericMethodHashEN14dense_hash_mapIS6_S9_SD_NS6_14EqualsComparerINSC_26Il2CppGenericMethodCompareEEENS0_9allocatorISA_EEE9SelectKeyESH_SJ_E10test_emptyERK30dense_hashtable_const_iteratorISA_S6_SD_SL_SH_SJ_E
s4d:__ZL59SinkProviderData_t4151372974_CustomAttributesCacheGeneratorP21CustomAttributesCache
T0f:_ServicePointManager_FindServicePoint_m4119451290
A6e:__ZN21InterfaceFuncInvoker1Ii22OrderBlock_t1585977831E6InvokeEjP11Il2CppClassP12Il2CppObjectS0_
tMj:__ZN15dense_hashtableINSt3__24pairIK10KeyWrapperINS1_IPK14Il2CppAssemblyP11Il2CppClassEEEjEES9_17ReflectionMapHashIS8_EN14dense_hash_mapIS9_jSD_NS9_14EqualsComparerINS0_8equal_toIS8_EEEENS0_9allocatorISB_EEE9SelectKeyESI_SK_E12expand_arrayEjN21dense_hash_map_traits17integral_constantIbLb0EEE
Ada:__ZL31InitializeRendererUpdateManagerPv
zMd:_ParameterInfo__ctor_m2779026345
PNf:_InputField_set_onValueChange_m1251390545
oWc:__GLOBAL__sub_I_artifacts_WebGL_codegenerator_0_cpp_5805
D4h:_Func_1_EndInvoke_m3591709415_gshared
sDd:_FontData_get_verticalOverflow_m4132840071
Tla:__ZL46__ManagedRegistrationHelperFunction_RectOffsetPv
dNe:_NumberFormatter_get_IsZeroInteger_m2263284741
eV:__ZN13AudioListener12CleanupClassEv
_ca:__Z13GetIEnlightenv
JNg:_DateTimeFormatInfo_get_LongTimePattern_m1595254249
M4i:_X509Certificate_PEM_m2020851166
uoh:_BigInteger_op_GreaterThanOrEqual_m700865613
Mkh:_Array_InternalArray__Insert_TisDateTime_t3738529785_m2308632330_gshared
v1a:__ZN11TimeManager8TransferI19StreamedBinaryWriteILb0EEEEvRT_
uig:_TlsServerCertificateRequest_ProcessAsTls1_m3214041063
d3c:_compare_uni_maps
Jri:__Z72RuntimeInvoker_Boolean_t97287965_Vector2_t2156229523_Vector2_t2156229523PFvvEPK10MethodInfoPvPS4_
ykd:__ZN11UnityEngine15PlatformWrapper27GetGraphicsCapsSupportFlagsEv
jcd:__ZNSt3__218__insertion_sort_3IRPFbPN2UI6CanvasES3_EPS3_EEvT0_S8_T_
oJi:_Dictionary_2_Do_ICollectionCopyTo_TisRuntimeObject_m3695543300_gshared
Zxb:__ZN12NativeBufferI16Converter_StringE15SetupForWritingER9ArrayInfo
Aoh:_SequentialSearchPrimeGeneratorBase_GenerateSearchBase_m3595783982
ZJ:__ZN13RuntimeStaticI18AssetBundleManagerLb1EE16StaticInitializeEPv
euk:___cxa_end_catch__wrapper
Lpi:__Z121RuntimeInvoker_Int32_t2950945753_RuntimeObject_Int32U26_t1369213839_Int32_t2950945753_Int32_t2950945753_Int32_t2950945753PFvvEPK10MethodInfoPvPS4_
OFg:_Char_ToString_m278452217
reg:_CipherSuite_get_DecryptionCipher_m2839827488
JXh:_ReadOnlyCollection_1_System_Collections_IList_set_Item_m4047645019_gshared
L0b:__ZNK4PPtrI5LightEcvPS0_Ev
_qd:__ZL50__ManagedRegistrationHelperFunction_ReferencePointPv
nag:_BigInteger_op_RightShift_m460065452
Pve:__ZL61GUISkin_t1244372282_CustomAttributesCacheGenerator_m_SettingsP21CustomAttributesCache
c_j:__ZN6il2cpp6icalls8mscorlib6System5Array13ClearInternalEP11Il2CppArrayii
i9c:__Z38TextGenerator_Get_Custom_PropLineCountP12Il2CppObject
X3i:_InternalAsyncResult_SetComplete_m963842420
Itg:_Encoding_GetEncoding_m2801244948
YKc:__ZN11IMGUIModule25GetGUIStyleScriptingClassEv
D5c:_tt_get_interface
$3i:_SslStreamBase_EndRead_m495357226
eZj:__ZN6il2cpp5utils9PathUtils7CombineIcEENSt3__212basic_stringIT_NS3_11char_traitsIS5_EENS3_9allocatorIS5_EEEERKSA_SC_
Y0i:_Collection_1_System_Collections_IList_get_IsFixedSize_m214626114_gshared
uni:__Z64RuntimeInvoker_RuntimeObject_SByte_t1669577662_SByte_t1669577662PFvvEPK10MethodInfoPvPS4_
Jzc:__ZN13PlayableGraph21InvalidateMultithreadEv
Ahj:_GUIScrollGroup_CalcHeight_m3173593443
I8d:__ZL86UTF7Encoding_t2644108479_CustomAttributesCacheGenerator_UTF7Encoding_Equals_m227704363P21CustomAttributesCache
D7d:__ZL59ApplicationTrust_t3270368423_CustomAttributesCacheGeneratorP21CustomAttributesCache
BSe:_EnumBuilder_GetConstructorImpl_m3068576149
E5:__Z18ConvertUTF16toUTF8PPKtS0_PPhS2_15ConversionFlags
b9j:__ZN6il2cpp2os20PathErrnoToErrorCodeERKNSt3__212basic_stringIcNS1_11char_traitsIcEENS1_9allocatorIcEEEEi
tCe:__ZL68InputField_t3762917431_CustomAttributesCacheGenerator_m_KeyboardTypeP21CustomAttributesCache
Tmg:_SymmetricAlgorithm_System_IDisposable_Dispose_m3402297829
WBc:__Z24GetActualTargetFrameRatev
$wj:__ZL16my_g_bit_nth_msfj
Mmg:_SHA512Managed_Sigma1_m922902398
Jfe:__ZL129GenerateManagedProxyAttribute_t2394178854_CustomAttributesCacheGenerator_GenerateManagedProxyAttribute_set_NativeType_m3203265247P21CustomAttributesCache
KXj:__ZN15dense_hashtableINSt3__24pairIK10KeyWrapperIP11Il2CppClassES4_EES5_N6il2cpp8metadata16SZArrayClassHashEN14dense_hash_mapIS5_S4_SA_NS5_14EqualsComparerINS9_19SZArrayClassCompareEEENS0_9allocatorIS7_EEE9SelectKeyESE_SG_E12expand_arrayEjN21dense_hash_map_traits17integral_constantIbLb0EEE
juf:__ZN30GenericInterfaceActionInvoker1IP18Camera_t4157153871E6InvokeEPK10MethodInfoP12Il2CppObjectS1_
Ovh:_DefaultComparer_GetHashCode_m3369508712_gshared
oWi:_Enumerator_MoveNext_m3662315381_AdjustorThunk
cig:_TlsClientFinished_ProcessAsTls1_m2429863130
IPd:_ActivatedClientTypeEntry_get_ApplicationUrl_m2894992111
VYb:__Z23SetupStereoFlareElementP11FlareVertexRK8Vector2fS3_S3_RK11ColorRGBA32RK10Matrix4x4fRK8Vector3fb
Uoj:__ZL24UnresolvedVirtualCall_25P12Il2CppObjectS0_S0_PK10MethodInfo
sAj:__ZN6il2cpp2vm5Class15GetInstanceSizeEPK11Il2CppClass
fTh:_ValueType__ctor_m2036258423
sa:invoke_iiiifiiii
CDb:__ZNSt3__224__buffered_inplace_mergeIRN10vector_mapI17ScriptingClassPtrPKN5Unity4TypeENS_4lessIS2_EENS_9allocatorINS_4pairIS2_S6_EEEEE13value_compareENS_11__wrap_iterIPSB_EEEEvT0_SJ_SJ_T_NS_15iterator_traitsISJ_E15difference_typeESN_PNSM_10value_typeE
j1i:__ZN23InterfaceActionInvoker2Ii20UICharInfo_t75501106E6InvokeEjP11Il2CppClassP12Il2CppObjectiS0_
Yqe:__ZL82Input_t1431474628_CustomAttributesCacheGenerator_Input_get_inputString_m1307069105P21CustomAttributesCache
rLf:_Vector2_Equals_m832062989_AdjustorThunk
Bcf:_ShimEnumerator_MoveNext_m2406150314_gshared
sRb:__ZL19BlitFramebufferImplRN4gles23BlitFramebufferDrawQuadER9GfxDevice9TextureIDRK8Vector4f
csb:__Z18Transfer_BlittableI17RemapPPtrTransferLb0EhEvRK29SerializationCommandArgumentsR31RuntimeSerializationCommandInfo
nNj:__ZN15dense_hashtableINSt3__24pairIK10KeyWrapperIPK10Il2CppTypeEjEES6_N6il2cpp8metadata14Il2CppTypeHashEN14dense_hash_mapIS6_jSB_NS6_14EqualsComparerINSA_26Il2CppTypeEqualityComparerEEENS0_9allocatorIS8_EEE9SelectKeyESF_SH_E4findERS7_
ork:dynCall_viiiiiiiiiiiiii
eZc:_UNITY_FT_List_Add
_vc:__ZN14Texture2DArray11InitTextureEiii13TextureFormatb
I5i:_X509Extension__ctor_m1474351312
v8d:__ZL104Encoding_t1523322056_CustomAttributesCacheGenerator_Encoding_t1523322056____DecoderFallback_PropertyInfoP21CustomAttributesCache
T7h:_InvokableCall_1_Invoke_m1524307439_gshared
lQa:__ZN12CubemapArray21AwakeFromLoadThreadedEv
GUg:_Directory_CreateDirectoriesInternal_m3735342319
WGh:_List_1_RemoveAll_m517055598_gshared
YEc:__Z41Camera_CUSTOM_WorldToScreenPoint_InjectedP12Il2CppObjectRK8Vector3fRS1_
eSf:_LayoutUtility_GetLayoutProperty_m3731360667
iSj:__ZN15dense_hashtableINSt3__24pairIK10KeyWrapperINS1_IPK11Il2CppImageP11Il2CppClassEEEjEES9_17ReflectionMapHashIS8_EN14dense_hash_mapIS9_jSD_NS9_14EqualsComparerINS0_8equal_toIS8_EEEENS0_9allocatorISB_EEE9SelectKeyESI_SK_E14squash_deletedEv
Rmg:_SHAConstants__cctor_m1699027474
FKd:_MonoEventInfo_t346866618_marshal_pinvoke_back
o1b:__ZNK6Camera26GetStereoSingleCullEnabledEv
aHh:_List_1_TrimExcess_m4121641494_gshared
uae:__ZL78Convert_t2465617642_CustomAttributesCacheGenerator_Convert_ToInt16_m1733792763P21CustomAttributesCache
m4a:__Z14resize_trimmedINSt3__26vectorIN4core12basic_stringIcNS2_20StringStorageDefaultIcEEEE13stl_allocatorIS6_L18MemLabelIdentifier13ELi16EEEEEvRT_j
h0:__GLOBAL__sub_I_Runtime_2D_SpriteAtlas_0_cpp
gpb:__Z18Transfer_BlittableI14SafeBinaryReadLb0EaEvRK29SerializationCommandArgumentsR31RuntimeSerializationCommandInfo
SFg:_CharEnumerator_System_Collections_IEnumerator_get_Current_m1328529384
X6g:_DBNull__ctor_m3431698857
TUa:__ZN4core8hash_setINS_4pairIKiiLb0EEENS_9hash_pairINS_4hashIiEES2_iEENS_10equal_pairINSt3__28equal_toIiEES2_iEEE6insertERKS3_
ewj:_AnimationLayerMixerPlayable__ctor_m860721801
$ci:__Z98RuntimeInvoker_Boolean_t97287965_RuntimeObject_Int32_t2950945753_RuntimeObject_Int64U26_t200113976PFvvEPK10MethodInfoPvPS4_
v7c:_UNITY_FT_List_Iterate
KFa:__ZN17GlobalGameManager8TransferI24GenerateTypeTreeTransferEEvRT_
lFg:_Char_System_IConvertible_ToUInt64_m3536560782
_wh:_EqualityComparer_1__cctor_m3452395357_gshared
q6f:_X509ChainStatus_get_Status_m2572005749_AdjustorThunk
tXb:__Z20SyncFenceCullResultsR11CullResults
_Sb:__ZN15TextureTFMethod20IsBoneCountSupportedEi
uah:_Double_ToString_m3828879243_AdjustorThunk
Vkk:_Hacker_StartGame_m2721572447
Ctb:__Z22TransferField_NonArrayI17RemapPPtrTransfer27Converter_SimpleNativeClassI8GUIStyleEEvRK23StaticTransferFieldInfoR31RuntimeSerializationCommandInfoRT0_
zIe:_TextReader_Synchronized_m3004980758
vpd:__ZNK20UnityWebRequestProtoI24UnityWebRequestTransport16AtomicRefCounter14RedirectHelper14ResponseHelper15DownloadHandler13UploadHandler18CertificateHandler12HeaderHelper14AsyncOperationE16GetUploadedBytesEv
Jqc:__ZNK17AnimationCurveTplIfE20EvaluateWithoutCacheEfRf
wri:__Z67RuntimeInvoker_Boolean_t97287965_Rect_t2360479859_SByte_t1669577662PFvvEPK10MethodInfoPvPS4_
SBa:__ZN19ShaderPropertySheet10SetTextureERK23FastTexturePropertyNameP7Texture
nQe:_CustomAttributeData__ctor_m2966233049
azd:_CanvasUpdateRegistry_PerformUpdate_m1793997159
n2f:_WebHeaderCollection_GetKey_m809097130
HAc:__ZN4Mesh10SetNormalsEPK8Vector3fj
Zij:_AesManaged_CreateDecryptor_m692040246
iak:__ZNSt3__212basic_stringIDsNS_11char_traitsIDsEENS_9allocatorIDsEEE9__grow_byEjjjjjj
Ltj:_TextGenerationSettings_t1351628751_marshal_pinvoke_back
EH:__ZN17AnimationCurveTplIfE8TransferI14SafeBinaryReadEEvRT_
IFi:_Array_InternalArray__set_Item_TisInt16_t2552820387_m2544074754_gshared
oAg:_ArithmeticException__ctor_m3551809662
$_d:__ZL51BitArray_t4087883509_CustomAttributesCacheGeneratorP21CustomAttributesCache
GVi:__ZN21InterfaceFuncInvoker0I19Vector4_t3319028937E6InvokeEjP11Il2CppClassP12Il2CppObject
KBi:__Z72RuntimeInvoker_CustomAttributeNamedArgument_t287865710_Int32_t2950945753PFvvEPK10MethodInfoPvPS4_
hbc:__Z29StdTemplateConversionFunctionIybEbPvR14SafeBinaryRead
ATa:__ZNSt3__26vectorIN15QualitySettings14QualitySettingENS_9allocatorIS2_EEE6assignIPS2_EENS_9enable_ifIXaasr21__is_forward_iteratorIT_EE5valuesr16is_constructibleIS2_NS_15iterator_traitsIS9_E9referenceEEE5valueEvE4typeES9_S9_
Cta:__ZNK5Unity9Component10GetEnabledEv
yWf:_ScrollRect_get_scrollSensitivity_m2832710591
Cxh:_EqualityComparer_1__cctor_m3995042002_gshared
XSi:_List_1_CopyTo_m1758106197_gshared
UGh:_List_1_CheckCollection_m1671972112_gshared
ZUj:_il2cpp_class_get_image
zaf:_Enumerator_System_Collections_IEnumerator_get_Current_m1747693366_gshared
tJh:_UnicodeEncoding_GetPreamble_m3002287178
Z9:__Z16AsyncReadRequestP16AsyncReadCommand
Gzj:__ZNK15dense_hashtableINSt3__24pairIK10KeyWrapperIPK22Il2CppGenericParameterEP11Il2CppClassEES6_N6il2cpp5utils11PointerHashIS4_EEN14dense_hash_mapIS6_S9_SE_NS6_14EqualsComparerINS0_8equal_toIS5_EEEENS0_9allocatorISA_EEE9SelectKeyESJ_SL_E12test_deletedEj
bnj:_AudioSource_get_spatialize_m3609701298
BEe:__ZL56Toggle_t2735377061_CustomAttributesCacheGenerator_m_IsOnP21CustomAttributesCache
omb:__ZN20GpuProgramParameters14AddVectorParamEPKcii15ShaderParamTypeiiiP16PropertyNamesSet
uod:__ZN9Scripting19UnityEngineInternal15WebRequestUtils12CleanupProxyEv
Rod:__ZNK12HeaderHelper3GetERKN4core12basic_stringIcNS0_20StringStorageDefaultIcEEEE
O1a:__ZN9InputAxis8TransferI14SafeBinaryReadEEvRT_
T6:__ZNK21ExecutionOrderManager30GetCustomAwakeFromLoadQueueForEPKN5Unity4TypeE
Qnd:__Z27RegisterModule_UnityConnectv
ppd:__ZN18CertificateHandler7ReleaseEv
Qsc:__ZZL31RegisterRectTransformPropertiesR22GenericPropertyBindingEN32Wrapper_RectTransformSizeDeltax013GetFloatValueEPv
EXg:_MemoryStream_Expand_m3554752073
FQj:__ZN6il2cpp2vm10Reflection27GetCustomAttributesCacheForEP25Il2CppReflectionParameter
oIf:_ScriptableObject_CreateInstance_m2611081756
Ckf:_ObjectRecord_get_IsInstanceReady_m2304516395
$3e:_InternalEnumerator_1_System_Collections_IEnumerator_get_Current_m1635397542_gshared
jYg:_Path__cctor_m3273994011
zjj:_AnalyticsEventTracker__ctor_m3064238498
Hpk:__ZNSt11logic_errorD2Ev
q5g:_DateTimeUtils_CountRepeat_m3396693018
LTh:_WeakReference_get_Target_m168713953
Svk:_glBindRenderbuffer__wrapper
bP:__ZN10ObjectPoolIN4FMOD12ChannelGroupENS0_13ChannelGroupIEE7SetSizeEi
Kij:_SymmetricTransform_FinalDecrypt_m764004682
q8j:__ZN6il2cpp2os10ThreadImpl33UnregisterCurrentThreadForCleanupEv
PSc:__ZN9Scripting11UnityEngine26ParticleSystemVertexStream9InitProxyEv
EUi:_List_1_System_Collections_IList_get_Item_m1315368445_gshared
Cze:__ZL114PointerEventData_t3807901092_CustomAttributesCacheGenerator_PointerEventData_get_pointerCurrentRaycast_m2627585223P21CustomAttributesCache
ubj:_Parser_ParseGroupingConstruct_m263270497
qsd:_UIBehaviour_OnDisable_m1784507360
Voe:__ZL112PlayerConnection_t3081694049_CustomAttributesCacheGenerator_PlayerConnection_MessageCallbackInternal_m1914517467P21CustomAttributesCache
I1:__Z22ValidateTlsfAllocationPvjiS_
r_e:_InternalEnumerator_1_MoveNext_m3525157932_gshared
Ond:__ZN11UnityEngine9Analytics22EventLimitReachedEventC2EjyyRKN4core12basic_stringIcNS2_20StringStorageDefaultIcEEEEb
wuf:_Color__ctor_m2943235014_AdjustorThunk
oSj:__ZN14dense_hash_mapI10KeyWrapperINSt3__24pairIPK9EventInfoP11Il2CppClassEEEj17ReflectionMapHashIS8_ENS9_14EqualsComparerINS1_8equal_toIS8_EEEENS1_9allocatorINS2_IKS9_jEEEEE15set_deleted_keyERSH_
Uqb:__Z14resize_trimmedINSt3__26vectorI17AnimationCurveTplIfE13stl_allocatorIS3_L18MemLabelIdentifier1ELi16EEEEEvRT_j
epc:__Z12GUIDToStringRK9UnityGUID
nMf:_Vector4_op_Division_m264790546
FR:__ZN11SoundHandleC2ERKS_
qv:__ZN17AnimationPlayableC2E18DirectorPlayerType
RMf:_InputField_set_shouldHideMobileInput_m1650743574
OFj:__ZNK6il2cpp5utils11collections13ArrayValueMapIPK10Il2CppType17Il2CppInteropData26InteropDataToTypeConverterNS_8metadata14Il2CppTypeLessENS8_26Il2CppTypeEqualityComparerEE10find_firstERKS5_
YVi:_List_1_Reverse_m1445355384_gshared
$Vg:_FileStream_get_CanSeek_m331583577
Bbc:__Z29StdTemplateConversionFunctionItxEbPvR14SafeBinaryRead
Ajf:_WellKnownServiceTypeEntry_get_ObjectType_m3211195371
Jmj:_PCMReaderCallback_EndInvoke_m3916876196
wr:__ZNSt3__26__sortIR23DependencySortPredicatePN4core4pairIiP9BehaviourLb0EEEEEvT0_S9_T_
tce:__ZL65MissingMethodException_t1274661534_CustomAttributesCacheGeneratorP21CustomAttributesCache
aqf:_DSAParameters_t1885824122_marshal_pinvoke_back
QB:__ZN8Animator22OnGraphTopologyChangedEP8Playablei
poh:_Kernel_MultiplyByDword_m1266935086
Zx:__ZN17AnimationPlayable18DeallocateBindingsEv
Tgi:__Z158RuntimeInvoker_Boolean_t97287965_RuntimeObject_Int32U26_t1369213839_Int32_t2950945753_Int32_t2950945753_RuntimeObject_SByte_t1669577662_ContextU26_t3937453398PFvvEPK10MethodInfoPvPS4_
qsg:_String_Trim_m3384720403
TGa:__ZN14RenderSettings18TransferDeprecatedI14SafeBinaryReadEEvRT_
hli:__Z93RuntimeInvoker_Single_t1397266774_SingleU26_t1922108698_Single_t1397266774_Single_t1397266774PFvvEPK10MethodInfoPvPS4_
x_j:__ZN6il2cpp2vm9Exception27RaiseNullReferenceExceptionERKNS_5utils10StringViewIDsEEP19Il2CppSequencePoint
Afj:_Event__ctor_m526447123
Hce:__ZL56RankException_t3812021567_CustomAttributesCacheGeneratorP21CustomAttributesCache
Zxi:__Z72RuntimeInvoker_Boolean_t97287965_CustomAttributeNamedArgument_t287865710PFvvEPK10MethodInfoPvPS4_
roi:__Z88RuntimeInvoker_RuntimeObject_RuntimeObject_RuntimeObject_RuntimeObject_Int32_t2950945753PFvvEPK10MethodInfoPvPS4_
APh:_Type_ToString_m3975981286
q2:__ZN12TLSAllocatorI14StackAllocatorE8AllocateEji
qoj:_ConsumeSampleFramesNativeFunction_BeginInvoke_m342678987
S7:__ZN16ScriptingManager18GetMonoScriptCacheEi
bVb:__ZN20ArchiveStorageHeader13GetDataOffsetERKNS_6HeaderE
Ibj:_ExpressionAssertion__ctor_m2554412824
edj:_CapturingGroup_IsComplex_m4061114763
lCh:_Enumerator_System_Collections_IEnumerator_get_Current_m2237476582_gshared
npb:__Z18Transfer_BlittableI14SafeBinaryReadLb1EyEvRK29SerializationCommandArgumentsR31RuntimeSerializationCommandInfo
MTh:_WeakReference_Finalize_m2841826116
tMe:_NullReferenceException__ctor_m3076065613
cMc:__ZN8JSONRead8TransferIfEEvRT_PKc17TransferMetaFlagsb
Asj:__ZL25UnresolvedVirtualCall_221P12Il2CppObject6Guid_tS1_PK10MethodInfo
qRf:_LayoutGroup_OnDisable_m3483954898
vH:__ZN25RuntimeAnimatorController8TransferI17RemapPPtrTransferEEvRT_
vLh:_SynchronizationLockException__ctor_m3407855920
C3h:_Comparison_1_EndInvoke_m3981968715_gshared
Sic:__ZN9ShaderLab7Program22ComputeSupportsShadowsEv
W2f:_X509SubjectKeyIdentifierExtension_Decode_m1505409124
_ic:__ZL23AddGpuProgramParametersR20GpuProgramParametersRKNSt3__26vectorIN9ShaderLab20SerializedSubProgram15MatrixParameterENS1_9allocatorIS5_EEEERKNS2_INS4_15VectorParameterENS6_ISB_EEEEiiP16PropertyNamesSet
Iha:__ZN6prcoreL17RemapGenericFloatI18TexFormatARGBFloat17TexFormatRGBAHalfEEvPKNS_9InnerInfoE
wjj:_AnalyticsEventParamListContainer__ctor_m1995104893
Vrg:_String_System_IConvertible_ToUInt16_m2888090399
FQ:__ZN11AudioSource21ApplyCachedParametersE12SoundChannel
jPe:_Assembly_InternalGetType_m3065345470
Baf:_Enumerator_System_Collections_IEnumerator_Reset_m1943008355_gshared
eZe:_InternalEnumerator_1__ctor_m3390957028_gshared
dOd:_ResourceSet__ctor_m3356376607
PAd:_FloatTween_set_startValue_m53556027_AdjustorThunk
Eud:_PhysicsRaycaster_get_maxRayIntersections_m3887348715
$3d:__ZL56_ParameterInfo_t489405856_CustomAttributesCacheGeneratorP21CustomAttributesCache
WVa:__ZN15SerializeTraitsI33EnlightenTerrainChunksInformationE8TransferI14SafeBinaryReadEEvRS0_RT_
Xwc:__ZNK32RendererMaterialAnimationBinding9BindValueER6ObjectRKN11UnityEngine9Animation14GenericBindingERNS3_10BoundCurveE
dDe:__ZL109MaskableGraphic_t3839221559_CustomAttributesCacheGenerator_MaskableGraphic_ParentMaskStateChanged_m1092090553P21CustomAttributesCache
Ref:_Transform_1_Invoke_m1731820209_gshared
LAj:__ZN6il2cpp2vm5Class11IsInterfaceEPK11Il2CppClass
k8d:__ZL50Decoder_t2204182725_CustomAttributesCacheGeneratorP21CustomAttributesCache
kPa:__ZL18stbir__support_onef
mrg:_Single_CompareTo_m189772128
RNc:__Z26Transfer_UnityEngineObjectI9JSONWriteLb0EEvRK29SerializationCommandArgumentsR31RuntimeSerializationCommandInfo
o6e:_DefaultComparer_Compare_m4042058291_gshared
QFd:_Image_set_overrideSprite_m3213596394
SMa:__ZNSt3__26vectorIN4core12basic_stringIcNS1_20StringStorageDefaultIcEEEE13stl_allocatorIS5_L18MemLabelIdentifier1ELi16EEE6assignINS_11__wrap_iterIPS5_EEEENS_9enable_ifIXaasr21__is_forward_iteratorIT_EE5valuesr16is_constructibleIS5_NS_15iterator_traitsISF_E9referenceEEE5valueEvE4typeESF_SF_
Wfd:__ZNSt3__27__sort5IRNS_6__lessIN2UI14DepthSortEntryES3_EEPS3_EEjT0_S7_S7_S7_S7_T_
LVg:_FileLoadException_ToString_m2989457882
H5i:_AuthorityKeyIdentifierExtension__ctor_m2197389230
tnj:_AudioListener_ClearExtensionProperties_m3849891634
LYc:_UNITY_FT_DivFix
zKi:_Array_InternalArray__get_Item_TisDecimal_t2948259380_m3511003792_gshared
UK:__ZL45__ManagedRegistrationHelperFunction_AudioClipPv
Gog:_SecurityElement_IsValidAttributeValue_m948345692
kwc:__ZN14Texture2DArrayC2E10MemLabelId18ObjectCreationMode
JVe:_Action_3__ctor_m967275408_gshared
Ba:invoke_vdd
vn:FUNCTION_TABLE_fiii
v2d:__ZL102MethodInfo_t_CustomAttributesCacheGenerator_MethodInfo_MakeGenericMethod_m1996785325____typeArguments0P21CustomAttributesCache
KIe:_TextWriter_Write_m2252948084
izc:__Z19RegisterModule_Corev
ITd:_AsyncResult_get_CallMessage_m1679778649
Kfh:_Array_InternalArray__IEnumerable_GetEnumerator_TisPlayableBinding_t354260709_m1924544205_gshared
R9c:__ZZ29InitializeTextRenderingModulevEN27cleanupAfterLoadRegistrator7ForwardEv
wz:__ZN27AnimationLayerMixerPlayable24ProcessAnimationLayerMixEP33AnimationPlayableEvaluationOutputP35AnimationPlayableEvaluationConstantP32AnimationPlayableEvaluationInputS1_if
rLg:_CCFixed_FromDateTime_m3894190577
j7b:__Z29PluginsIssueRenderingExtEvent26UnityRenderingExtEventTypePv
hgi:__Z116RuntimeInvoker_RuntimeObject_RuntimeObject_Int32_t2950945753_RuntimeObject_RuntimeObject_RuntimeObject_RuntimeObjectPFvvEPK10MethodInfoPvPS4_
qnf:_RuntimeMethodHandle__ctor_m2229201676_AdjustorThunk
hlf:_MessageFormatter_ReadMethodCall_m2327590823
Ovc:__Z14RandomRotationP9Texture2DPhiiii
_ih:_Array_InternalArray__ICollection_Add_TisUInt16_t2177724958_m3981262878_gshared
$7g:_Decimal_GetBits_m453754410
ABh:_HashSet_1_Contains_m3173358704_gshared
qlj:_ToggleEvent__ctor_m834619998
s5e:_InternalEnumerator_1_Dispose_m436383441_AdjustorThunk
zcg:_PKCS1_Encode_v15_m2077073129
wnb:__ZN10Instancing11DrawAPIArgsC2ERK19ShaderPropertySheetPK8Vector4fS6_S6_i
Oth:_Dictionary_2_get_Values_m2682483593_gshared
dVh:_Collection_1_set_Item_m4084225937_gshared
NDi:__Z51RuntimeInvoker_OrderBlock_t1585977831_RuntimeObjectPFvvEPK10MethodInfoPvPS4_
LGf:_RectOffset_get_left_m1232181034
fYj:__ZNSt3__214__split_bufferIN6il2cpp8metadata18GenericArrayMethodERNS_9allocatorIS3_EEED2Ev
ij:_JS_WebRequest_SetResponseHandler
Fti:__Z59RuntimeInvoker_Boolean_t97287965_Int32_t2950945753_IntPtr_tPFvvEPK10MethodInfoPvPS4_
vzk:_glDeleteProgram__wrapper
wPa:__ZN6prcoreL18BlitFloatToIntegerERK14ImageReferenceRS0_
k7g:_DBNull_System_IConvertible_ToUInt32_m3784627971
xgg:_ClientSessionCache_Add_m964342678
_Yb:__Z13GetIPhysics2Dv
j$:__ZN11UnityEngine15CloudWebService14RestDownloader17OnCompleteContentEv
eMj:__ZN15dense_hashtableINSt3__24pairIK10KeyWrapperINS1_IPK14Il2CppAssemblyP11Il2CppClassEEEjEES9_17ReflectionMapHashIS8_EN14dense_hash_mapIS9_jSD_NS9_14EqualsComparerINS0_8equal_toIS8_EEEENS0_9allocatorISB_EEE9SelectKeyESI_SK_E15insert_noresizeERKSB_
unb:__ZN10Instancing11DrawAPIArgsC2Ev
rKf:_Transform_get_localScale_m129152068
p8g:_DivideByZeroException__ctor_m3496959969
WQb:__ZN26SinglePassStereoSupportExt19AfterDrawCallStereoEv
PXf:_ScrollRect_get_layoutPriority_m1584702890
Na:invoke_viffi
yB:__ZN17AnimationPlayable28UpdateInternalStateRecursiveILi1ELb0EEEvPK35AnimationPlayableEvaluationConstant
a5j:__ZN6il2cpp2gcL10CleanupCCWEPvS1_
Qa:invoke_vifff
hyk:_glGetVertexAttribiv__wrapper
eJd:__ZN23GenericVirtFuncInvoker2IbP12MemberInfo_tP12Il2CppObjectE6InvokeEPK10MethodInfoS3_S1_S3_
Y5h:_Predicate_1_Invoke_m851618236_gshared
l0d:__ZL67IsolatedStorageException_t3468072396_CustomAttributesCacheGeneratorP21CustomAttributesCache
AGb:__ZN20LocalFileSystemWebGL6DeleteER13FileEntryDatab
Oe:_emscripten_glDisableVertexAttribArray
Ldh:_Array_InternalArray__ICollection_Remove_TisSingle_t1397266774_m3361324455_gshared
Vm:FUNCTION_TABLE_iiiifiiii
kre:__ZL90AnimationCurve_t3046754366_CustomAttributesCacheGenerator_AnimationCurve_Cleanup_m35123172P21CustomAttributesCache
TXi:_Collection_1_set_Item_m839097518_gshared
IZe:_InternalEnumerator_1__ctor_m3456047704_gshared
gc:invoke_fifffi
RTh:_Collection_1_System_Collections_IList_Add_m2969482770_gshared
bph:_BitConverterLE_GetBytes_m4130646282
HPb:__ZN4gles23ClearCurrentFramebufferEP7ApiGLESbbbRK10ColorRGBAffi
Sz:__ZN7mecanim12statemachine20CreateStateWorkspaceEjjjRNS_6memory9AllocatorE
P9h:_UnityEvent_1_Invoke_m3604335408_gshared
xbe:__ZL79Convert_t2465617642_CustomAttributesCacheGenerator_Convert_ToUInt64_m2652538228P21CustomAttributesCache
Ze:_emscripten_glDeleteObjectARB
ftd:_EventSystem_RaycastComparer_m3685368675
oSa:__Z14DecompressDXT3iiiPKjPj
aki:__Z131RuntimeInvoker_Void_t1185182177_RuntimeObject_RuntimeObject_Int64_t3736567304_ObjectU26_t2146539884_SerializationInfoU26_t419328957PFvvEPK10MethodInfoPvPS4_
gia:__ZN6prcoreL27StretchGenericFloatBilinearI18TexFormatARGBFloatEEvPKNS_9InnerInfoE
Rph:_DSAManaged_CreateSignature_m2233977444
uBe:__ZL87U3CDelayedDestroyDropdownListU3Ec__Iterator0_t3853912249_CustomAttributesCacheGeneratorP21CustomAttributesCache
yxg:_PKCS12_RemoveCertificate_m1421555398
rZf:_Slider_FindSelectableOnLeft_m1667068522
$ha:__ZN6prcoreL17RemapGenericFloatI17TexFormatRGBAHalf18TexFormatARGBFloatEEvPKNS_9InnerInfoE
$Jc:__Z14GetBuiltinSkini
VUd:_MethodDictionary_get_Item_m1201458851
HW:___cxx_global_var_init_13
WW:___cxx_global_var_init_10
XW:___cxx_global_var_init_11
rdi:__Z60RuntimeInvoker_SByte_t1669577662_RuntimeObject_RuntimeObjectPFvvEPK10MethodInfoPvPS4_
uph:_CryptoConvert_ToInt32LE_m3340980429
il:_JS_SystemInfo_GetBrowserVersionString
Q9a:__ZN2UI13RectTransform23VirtualRedirectTransferER14SafeBinaryRead
s4a:__ZN24GenerateTypeTreeTransfer8TransferINSt3__26vectorIN4core12basic_stringIcNS3_20StringStorageDefaultIcEEEE13stl_allocatorIS7_L18MemLabelIdentifier13ELi16EEEEEEvRT_PKc17TransferMetaFlags
Jff:_Enumerator_MoveNext_m3045873697_gshared
kqi:__Z31RuntimeInvoker_Rect_t2360479859PFvvEPK10MethodInfoPvPS4_
Egc:__ZNSt3__26vectorIN9ShaderLab20SerializedSubProgramENS_9allocatorIS2_EEE6assignIPS2_EENS_9enable_ifIXaasr21__is_forward_iteratorIT_EE5valuesr16is_constructibleIS2_NS_15iterator_traitsIS9_E9referenceEEE5valueEvE4typeES9_S9_
cQc:__Z18Transfer_BlittableI8JSONReadLb0E8BitFieldEvRK29SerializationCommandArgumentsR31RuntimeSerializationCommandInfo
gog:_SecurityPermission_set_Flags_m1503445204
uBh:_HashSet_1_CopyTo_m2849056227_gshared
rzb:__ZL17Transfer_GUIStyleI18StreamedBinaryReadILb1EELb0EEvRK29SerializationCommandArgumentsR31RuntimeSerializationCommandInfo
DHc:__ZN9Scripting11UnityEngine15ScrollViewState9InitProxyEv
Znh:_ModulusRing_Multiply_m343333088
fte:__ZL76AnimatorTransitionInfo_t2534804151_CustomAttributesCacheGenerator_m_AnyStateP21CustomAttributesCache
yec:__ZN9ShaderLab14SerializedPass8TransferI14SafeBinaryReadEEvRT_
wJc:__Z71Register_UnityEngine_GUILayoutUtility_INTERNAL_CALL_Internal_MoveWindowv
_T:__ZN12AudioManager16SetListenerPauseEb
j4a:__ZNSt3__26vectorIN30RuntimeInitializeOnLoadManager9ClassInfoE13stl_allocatorIS2_L18MemLabelIdentifier13ELi16EEE6assignINS_11__wrap_iterIPS2_EEEENS_9enable_ifIXaasr21__is_forward_iteratorIT_EE5valuesr16is_constructibleIS2_NS_15iterator_traitsISC_E9referenceEEE5valueEvE4typeESC_SC_
aUc:__ZL50__ManagedRegistrationHelperFunction_ContactPoint2DPv
aue:__ZL77AudioClip_t3680889665_CustomAttributesCacheGenerator_m_PCMSetPositionCallbackP21CustomAttributesCache
BIh:_StringBuilder_get_Length_m3238060835
Z5d:__ZL64OnSerializedAttribute_t2595932830_CustomAttributesCacheGeneratorP21CustomAttributesCache
Bvf:_StateChanged_EndInvoke_m3313423087
da:invoke_viiiiiiiiiii
ylk:___syscall_ret
z6i:_DeriveBytes_set_Salt_m1400945044
ovd:_PointerEventData_set_worldNormal_m1888481930
uyd:_CanvasScaler_set_referencePixelsPerUnit_m1768965301
qcj:_AnchorInfo__ctor_m46784903
dfg:_CipherSuiteCollection_get_Item_m4188309062
d3i:_SslHandshakeHash_HashFinal_m2573455475
XSd:_SynchronizationAttribute_ReleaseLock_m1030353464
gTj:__ZNSt3__212basic_stringIcNS_11char_traitsIcEENS_9allocatorIcEEE6assignINS_11__wrap_iterIPKcEEEENS_9enable_ifIXaasr21__is_forward_iteratorIT_EE5valuesr38__libcpp_string_gets_noexcept_iteratorISC_EE5valueERS5_E4typeESC_SC_
mid:__Z56Register_UnityEngine_Analytics_CustomEventData_AddDoublev
YXa:__ZN11ChannelInfo8TransferI19StreamedBinaryWriteILb0EEEEvRT_
lak:__ZN4utf88internal13validate_nextIPKcEENS0_9utf_errorERT_S5_Rj
CEe:__ZL53ToggleGroup_t123837990_CustomAttributesCacheGeneratorP21CustomAttributesCache
Tlg:_SHA1Internal_AddLength_m2737455899
a4d:__ZL59_PropertyBuilder_t1366136710_CustomAttributesCacheGeneratorP21CustomAttributesCache
HPf:_InputField_CreateCursorVerts_m3585916868
mth:_KeyValuePair_2_get_Value_m755756747_gshared
jmc:__Z34Register_UnityEngine_Gradient_Initv
rRf:_LayoutGroup_OnDidApplyAnimationProperties_m1333813659
ATe:_GenericTypeParameterBuilder_IsArrayImpl_m67259334
hSd:_Context_ToString_m1073616138
HLe:_DefaultMemberAttribute_get_MemberName_m3384235354
_Ya:__ZN13ScreenManager23SetIsOrientationEnabledE18EnabledOrientationb
LMf:_InputField_EnforceTextHOverflow_m3400115777
ROi:_List_1_System_Collections_IEnumerable_GetEnumerator_m1225415523_gshared
eWc:__ZN9Scripting11UnityEngine12TreeInstance9InitProxyEv
Ari:__Z41RuntimeInvoker_TextureWrapMode_t584250749PFvvEPK10MethodInfoPvPS4_
S1a:__ZN9InputAxis8TransferI19StreamedBinaryWriteILb0EEEEvRT_
oRg:__Z33il2cpp_codegen_check_sub_overflowxx
fge:__ZL98NativeMethodAttribute_t4187428193_CustomAttributesCacheGenerator_U3CIsThreadSafeU3Ek__BackingFieldP21CustomAttributesCache
ENf:_InputField_get_caretColor_m2973283772
Mbi:_ListPool_1_Release_m591299672_gshared
xZd:__ZL160U3CGetEnumeratorU3Ec__Iterator0_t1202911786_CustomAttributesCacheGenerator_U3CGetEnumeratorU3Ec__Iterator0_System_Collections_IEnumerator_get_Current_m596993724P21CustomAttributesCache
W3e:_InternalEnumerator_1_MoveNext_m1096095130_AdjustorThunk
nUh:_Collection_1_RemoveAt_m226266097_gshared
dai:_UnityEvent_1_AddListener_m1590149461_gshared
Nve:__ZL63GUISkin_t1244372282_CustomAttributesCacheGenerator_m_ScrollViewP21CustomAttributesCache
mle:__ZL62SortingGroupsUpdate_t3400410071_CustomAttributesCacheGeneratorP21CustomAttributesCache
SLi:_Resources_ConvertObjects_TisRuntimeObject_m1486780300_gshared
V9g:_Double_System_IConvertible_ToInt16_m3591921965_AdjustorThunk
E3h:_Comparison_1_Invoke_m2925518770_gshared
twa:__ZN10GameObject23VirtualRedirectTransferER18StreamedBinaryReadILb0EE
tij:_SymmetricTransform__ctor_m2693628991
$He:_ObjectDisposedException__ctor_m1034312941
pg:_glFrontFace
jXg:_FileSystemInfo_InternalRefresh_m1700260373
tCd:_Dropdown_OnSubmit_m1624226516
Kce:__ZL101RuntimeMethodHandle_t1133924984_CustomAttributesCacheGenerator_RuntimeMethodHandle_Equals_m3301340296P21CustomAttributesCache
yFj:__ZNK15dense_hashtableINSt3__24pairIK10KeyWrapperIPK19Il2CppGenericMethodEPK26Il2CppGenericMethodIndicesEES6_N6il2cpp8metadata23Il2CppGenericMethodHashEN14dense_hash_mapIS6_SA_SE_NS6_14EqualsComparerINSD_26Il2CppGenericMethodCompareEEENS0_9allocatorISB_EEE9SelectKeyESI_SK_E12test_deletedEj
fTf:_MaskUtilities_IsDescendantOrSelf_m2247511982
hmi:__Z51RuntimeInvoker_UInt16_t2177724958_SByte_t1669577662PFvvEPK10MethodInfoPvPS4_
rci:__Z46RuntimeInvoker_Double_t594665363_RuntimeObjectPFvvEPK10MethodInfoPvPS4_
rri:__Z34RuntimeInvoker_Vector2_t2156229523PFvvEPK10MethodInfoPvPS4_
Gxa:__ZN12BaseRenderer21SetGlobalLayeringDataE18GlobalLayeringDataj
w9c:__Z51Register_UnityEngine_TextGenerator_GetLinesInternalv
qff:_Enumerator_get_Current_m2250080680_AdjustorThunk
Qpg:_SecurityElement__cctor_m3326869319
ejj:_AesManaged_set_Key_m767972181
rQg:_Int16_System_IConvertible_ToBoolean_m1656400658_AdjustorThunk
fEg:_Byte_System_IConvertible_ToInt64_m285584218
jve:__ZL120GUILayoutUtility_t66395690_CustomAttributesCacheGenerator_GUILayoutUtility_INTERNAL_CALL_Internal_MoveWindow_m2976690564P21CustomAttributesCache
qha:__ZN6prcoreL17RemapGenericFloatI17TexFormatRGBFloat18TexFormatRGBAFloatEEvPKNS_9InnerInfoE
vJg:_DictionaryEntry_t3123975638_marshal_pinvoke_cleanup
tih:_Array_InternalArray__ICollection_Add_TisDictionaryEntry_t3123975638_m665385049_gshared
zhe:__ZL57BootConfigData_t3818279794_CustomAttributesCacheGeneratorP21CustomAttributesCache
eKe:_MissingMemberException__ctor_m2707802176
xwc:__ZN28ReflectionProbeAnchorManager10InitializeEv
Buj:_Canvas_get_renderMode_m841659411
vtg:_String_Join_m2050845953
Pmf:_SerializationInfo_GetValue_m42271953
ES:__ZN9AudioClip11CreateSoundEv
RPa:__ZN29SerializeTraitsForStringTypesIN4core12basic_stringIcNS0_20StringStorageDefaultIcEEEEE8TransferI24GenerateTypeTreeTransferEEvRS4_RT_
CSj:__ZN14dense_hash_mapI10KeyWrapperINSt3__24pairIPK9FieldInfoP11Il2CppClassEEEj17ReflectionMapHashIS8_ENS9_14EqualsComparerINS1_8equal_toIS8_EEEENS1_9allocatorINS2_IKS9_jEEEEEC2EjRKSB_RKSF_
FK:__ZN4core8hash_setINS_4pairIKiiLb0EEENS_9hash_pairINS_4hashIiEES2_iEENS_10equal_pairINSt3__28equal_toIiEES2_iEEE4growEi
EK:__ZN4core8hash_setINS_4pairIKiiLb0EEENS_9hash_pairINS_4hashIiEES2_iEENS_10equal_pairINSt3__28equal_toIiEES2_iEEE4growEv
sCf:_PlayerConnection_GetConnectionNativeApi_m3116196780
$Nj:__ZNK15dense_hashtableINSt3__24pairIK10KeyWrapperINS1_IPK10MethodInfoP11Il2CppClassEEEjEES9_17ReflectionMapHashIS8_EN14dense_hash_mapIS9_jSD_NS9_14EqualsComparerINS0_8equal_toIS8_EEEENS0_9allocatorISB_EEE9SelectKeyESI_SK_E13find_positionERSA_
VMb:__ZN13GfxDeviceGLES20CreateComputeProgramEPKhj
cnd:__ZN11UnityEngine7Connect16PersistentValues13RestoreValuesER8JSONRead
nad:__ZN9Scripting11UnityEngine8Tilemaps8TileData9InitProxyEv
bZd:__ZL65RuntimeArray_CustomAttributesCacheGenerator_Array_Sort_m182264525P21CustomAttributesCache
eQg:_Guid_BaseToString_m3600006650
zeb:__ZN20ArchiveStorageReader31TryToReadDirectoryFromBlockDataEyPKvj
zsd:_PointerEventData_set_pointerEnter_m3256217464
W0j:__ZN6il2cpp2vmL11GetIdentityEP14Il2CppIUnknown
Ydk:_GC_push_gc_structures
mig:_TlsServerCertificate_ProcessAsTls1_m819212276
hMi:_List_1_System_Collections_Generic_ICollectionU3CTU3E_get_IsReadOnly_m507350231_gshared
DJi:_Dictionary_2_Do_ICollectionCopyTo_TisRuntimeObject_m3942192587_gshared
QKj:__ZN6il2cpp6icalls8mscorlib6SystemL8IsPublicEPK9EventInfo
C3e:_InternalEnumerator_1_MoveNext_m359138619_AdjustorThunk
wHe:__ZL63EventTrigger_t2527451695_CustomAttributesCacheGenerator_m_RulesP21CustomAttributesCache
Nag:_PrimalityTests_RabinMillerTest_m2544317101
Lmb:__Z22GetShaderCachePathGLESv
S9f:_Kernel_DwordDivMod_m1540317819
i7h:_CachedInvokableCall_1_Invoke_m931536002_gshared
jWi:_Enumerator_System_Collections_IEnumerator_get_Current_m1399273671_gshared
fId:_TypeBuilder_GetPropertyImpl_m3104345782
qYa:__ZNSt3__213__stable_sortIRNS_4lessI4PPtrI11SpriteAtlasEEENS_11__wrap_iterIPS4_EEEEvT0_SA_T_NS_15iterator_traitsISA_E15difference_typeEPNSD_10value_typeEi
uTg:_Int64_ToString_m2085073918_AdjustorThunk
Mdf:_Transform_1_Invoke_m4084479750_gshared
YId:_FieldInfo_GetFieldOffset_m1356898082
ODi:__Z36RuntimeInvoker_Enumerator_t652329154PFvvEPK10MethodInfoPvPS4_
cuf:_Camera_RaycastTry_m3913529496
Bdc:__ZN10BootConfig4Data14InitFromStringEPPKcjS2_
w3:__ZN8keywords6CreateEPKc
nxj:__ZL7log2_32j
XEf:_Quaternion_Inverse_Injected_m4070500351
S:Math_imul
uXf:_ScrollRect_LateUpdate_m1215231183
vqa:__ZN9Scripting11UnityEngine11ContextMenu9InitProxyEv
MUh:_Collection_1_System_Collections_IList_get_Item_m3314684800_gshared
hyi:__Z49RuntimeInvoker_Boolean_t97287965_Byte_t1134296376PFvvEPK10MethodInfoPvPS4_
Hig:_TlsServerKeyExchange_Update_m453798279
OTa:__ZN11PlayerPrefs6GetIntERKN4core12basic_stringIcNS0_20StringStorageDefaultIcEEEEi
kfg:_CipherSuiteCollection_System_Collections_IList_IndexOf_m1361500977
k_f:_Text_set_fontStyle_m648756124
e9c:__Z45TextGenerator_CUSTOM_INTERNAL_get_rectExtentsP12Il2CppObjectP5RectTIfE
Gsi:__Z50RuntimeInvoker_Touch_t1921856868_Int32_t2950945753PFvvEPK10MethodInfoPvPS4_
dK:__ZN9Scripting11UnityEngine18AssetBundleRequest12CleanupProxyEv
R4g:_DateTime__ctor_m2135476686_AdjustorThunk
RQc:__ZN13GUIStyleState8TransferI8JSONReadEEvRT_
aZa:__ZN13ScreenManager21SetLockCursorInternalE14CursorLockMode
bWd:_SoapFieldAttribute_IsInteropXmlElement_m2819415462
lU:__ZN11AudioSource12SetAudioClipEP9AudioClip
wHf:_RectTransform_GetLocalCorners_m823861473
fIg:_SynchronizedArrayListWrapper_GetEnumerator_m1579424644
jVf:_Scrollbar_get_value_m760470106
$3h:_Comparison_1_EndInvoke_m2734814639_gshared
t5:__ZN18ScriptingArguments9AddObjectE18ScriptingObjectPtr
vdd:__Z39CanvasGroup_Get_Custom_PropInteractableP12Il2CppObject
QX:__ZN11UnityEngine15CloudWebService16SessionContainerD2Ev
Fld:__ZL38InitializeUnityConnectScriptingClassesv
Isj:__ZL25UnresolvedVirtualCall_229P12Il2CppObjectPK10MethodInfo
T7b:__ZN13ProbeRenderer8ConvolveEbijjb
jij:_GUIUtility_set_systemCopyBuffer_m608712289
bQb:__ZN17GenericDynamicVBOC2ER9GfxDevice13GfxBufferModejj
tKc:__ZZN10GUIManager14InitGUIManagerEvEN41PreUpdateIMGUISendQueuedEventsRegistrator7ForwardEv
Z1f:_ServicePointManager_get_SecurityProtocol_m966397919
CLg:_CCGregorianCalendar_day_from_fixed_m1674702403
iZ:__ZN11UnityEngine15CloudWebService17SessionEventQueue10PurgeItemsEj
w8b:__ZN6Camera16StandaloneRenderENS_10RenderFlagEP6ShaderRKN4core12basic_stringIcNS3_20StringStorageDefaultIcEEEE
A4f:_X509Chain_PrepareForNextCertificate_m3691934993
hwa:__ZN16LevelGameManager23VirtualRedirectTransferER24GenerateTypeTreeTransfer
Lyb:__Z18Transfer_BlittableI18StreamedBinaryReadILb1EELb1EtEvRK29SerializationCommandArgumentsR31RuntimeSerializationCommandInfo
Sue:__ZL58EventType_t3528516131_CustomAttributesCacheGenerator_keyUpP21CustomAttributesCache
h6d:__ZL57X509Certificate_t713131622_CustomAttributesCacheGeneratorP21CustomAttributesCache
XXa:__ZN12BoneWeights48TransferI19StreamedBinaryWriteILb0EEEEvRT_
qib:__ZN9GfxDevice20DeallocRenderSurfaceEP17RenderSurfaceBase
Ggf:_ValueCollection_System_Collections_Generic_ICollectionU3CTValueU3E_get_IsReadOnly_m1110422367_gshared
umb:__ZN20GpuProgramParameters36UpdatePrepareValuesMaximumBufferSizeEv
Vnj:_AudioSourceExtension_Stop_m387892536
pVi:_List_1_System_Collections_IEnumerable_GetEnumerator_m1355413981_gshared
Qlh:_SimpleCollator_GetContraction_m2205549079
FLf:_Vector3__ctor_m1719387948_AdjustorThunk
sZh:_ReadOnlyCollection_1_System_Collections_IList_get_IsReadOnly_m3888539454_gshared
Lca:__ZN13RuntimeStaticI10WatermarksLb0EE13StaticDestroyEPv
vbg:_ARC4Managed_GenerateKey_m1607343060
Ijh:_Array_InternalArray__ICollection_CopyTo_TisDecimal_t2948259380_m2749946216_gshared
Ijg:_ReceiveRecordAsyncResult_get_ResultingBuffer_m1839161335
S3a:__ZN30RuntimeInitializeOnLoadManager23VirtualRedirectTransferER14SafeBinaryRead
eTd:_EnvoyInfo__ctor_m276600651
wXc:__ZN20TextRenderingPrivate8FontImpl13CharacterInfo8TransferI18StreamedBinaryReadILb0EEEEvRT_
Wvb:__Z29Transfer_Blittable_ArrayFieldI24GenerateTypeTreeTransferfEvRT_R9ArrayInfoRK23StaticTransferFieldInfo
a8d:__ZL113SecurityException_t975544473_CustomAttributesCacheGenerator_SecurityException_t975544473____Demanded_PropertyInfoP21CustomAttributesCache
xxf:_UnityEvent_FindMethod_Impl_m2312362624
Z9b:__ZN19CustomRenderTexture9AddParentE4PPtrIS_E
Lqb:__ZN8Gradient8TransferI14SafeBinaryReadEEvRT_
gtf:_Vector3_GetHashCode_m2879461828
sbj:_Parser_ParseSpecial_m1961501104
erg:_Single_System_IConvertible_ToUInt64_m3299129161_AdjustorThunk
RMa:__ZNSt3__26vectorIN4core12basic_stringIcNS1_20StringStorageDefaultIcEEEE13stl_allocatorIS5_L18MemLabelIdentifier1ELi16EEE7reserveEj
Rxe:__ZL93CanvasRenderer_t2598313366_CustomAttributesCacheGenerator_CanvasRenderer_set_cull_m4222419074P21CustomAttributesCache
SMh:_TimerCallback_BeginInvoke_m2250763656
MYc:__ZN20TextRenderingPrivate15DynamicFontData36GetFaceForCharacterIfAvailableInFontERKNS_7FontRefERK13dynamic_arrayI4PPtrIN13TextRendering4FontEELj0EEj
ngf:_ValueCollection_System_Collections_Generic_ICollectionU3CTValueU3E_Contains_m3110959791_gshared
E1f:_IPv6Address_AsIPv4Int_m844941024
Ooc:__Z43PlayerConnectionInternal_CUSTOM_IsConnectedv
OOe:_Random__ctor_m3209279193
gjg:_RecordProtocol__cctor_m1280873827
sIh:_StringBuilder__ctor_m3504405255
nPd:_Marshal__cctor_m4007734770
Sck:_GC_new_free_list_inner
Krh:_SymmetricTransform_Random_m2004892672
Ioi:__Z79RuntimeInvoker_Void_t1185182177_RuntimeObject_Byte_t1134296376_Byte_t1134296376PFvvEPK10MethodInfoPvPS4_
Icg:_EncryptedPrivateKeyInfo_get_IterationCount_m2912222740
xck:_GC_err_printf
Iqd:__ZN9Scripting11UnityEngine2XR13InputTracking12CleanupProxyEv
fdg:_RSAManaged_DecryptValue_m1804388365
hXe:_InternalEnumerator_1_System_Collections_IEnumerator_get_Current_m2980550840_AdjustorThunk
oH:__ZN25RuntimeAnimatorController8TransferI14SafeBinaryReadEEvRT_
SQc:__ZN8JSONRead8TransferI10RectOffsetEEvRT_PKc17TransferMetaFlagsb
U1j:__ZNK15dense_hashtableINSt3__24pairIK10KeyWrapperINS1_IPKcS4_EEEiEES6_24NamespaceAndNamePairHashN14dense_hash_mapIS6_iS9_NS6_14EqualsComparerI26NamespaceAndNamePairEqualsEENS0_9allocatorIS8_EEE9SelectKeyESD_SF_E12test_deletedERK24dense_hashtable_iteratorIS8_S6_S9_SH_SD_SF_E
TY:__ZN9JSONWrite8TransferIN11UnityEngine15CloudWebService14DataErrorEvent15FileErrorDetailEEEvRT_PKc17TransferMetaFlags
K$i:_Collection_1_ClearItems_m2728738230_gshared
kSg:_Int32_Parse_m2087562008
sxa:__Z21ClearFenceWithoutSyncR8JobFence
I1e:_InternalEnumerator_1_Dispose_m630370856_AdjustorThunk
WLd:_MonoProperty_GetAccessors_m412928203
qbi:_TweenRunner_1_Start_m3757154622_gshared
IN:__ZN12SoundManager20RegisterModifiedClipEP10SampleClip
Rif:_RemotingServices_GetClientChannelSinkChain_m1499550585
kPe:_Assembly_FillName_m1660001542
Q3d:__ZL56_EventBuilder_t2558055199_CustomAttributesCacheGeneratorP21CustomAttributesCache
wWf:_ScrollRect_get_decelerationRate_m74583805
rmg:_SHA384Managed_processBlock_m1272529332
vQ:__ZN11AudioSource4PlayEd
PFg:_Char_ToString_m278452217_AdjustorThunk
rDj:__ZN15dense_hashtableI10KeyWrapperIPK17Il2CppGenericInstES4_N6il2cpp8metadata21Il2CppGenericInstHashEN14dense_hash_setIS4_S7_NS4_14EqualsComparerINS6_24Il2CppGenericInstCompareEEENSt3__29allocatorIS4_EEE8IdentityESB_SE_E13set_empty_keyERKS4_
Jdi:__Z63RuntimeInvoker_Char_t3634460470_Int16_t2552820387_RuntimeObjectPFvvEPK10MethodInfoPvPS4_
J1g:_Convert_ToDouble_m2924063577
ucb:__ZNK20LocalFileSystemPosix8IsHiddenERK13FileEntryData
kba:__Z17GetCoreModuleSpecv
zEh:_Enumerator_System_Collections_IEnumerator_get_Current_m3594024719_gshared
W4e:_InternalEnumerator_1_System_Collections_IEnumerator_Reset_m1601477281_AdjustorThunk
PUd:_MethodCall_Init_m86192062
Nxe:__ZL113CanvasRenderer_t2598313366_CustomAttributesCacheGenerator_CanvasRenderer_SplitUIVertexStreamsInternal_m3280623346P21CustomAttributesCache
SQa:__ZN7Cubemap23VirtualRedirectTransferER18StreamedBinaryReadILb0EE
abf:_Enumerator_MoveNext_m76191888_AdjustorThunk
A4e:_InternalEnumerator_1__ctor_m1739091604_gshared
Oqc:__ZNSt3__27__sort4IRNS_6__lessI11KeyframeTplIfES3_EEPS3_EEjT0_S7_S7_S7_T_
h6c:_Read_CVT
kQ:__ZN11AudioSource23VirtualRedirectTransferER19StreamedBinaryWriteILb0EE
Meb:__ZN12FileAccessor4SeekEx10FileOrigin
bt:__ZN9Scripting11UnityEngine25RuntimeAnimatorController12CleanupProxyEv
Jub:__ZL26Transfer_SimpleNativeClassI24GenerateTypeTreeTransfer17AnimationCurveTplIfELb0EEvRK29SerializationCommandArgumentsR31RuntimeSerializationCommandInfo
_0g:_Convert_ToDecimal_m1783778724
xcf:_ShimEnumerator_get_Value_m153531060_gshared
XLg:_DateTimeFormatInfo__ctor_m3106345035
agg:_TlsServerKeyExchange_verifySignature_m3412856769
Rwh:_EqualityComparer_1_System_Collections_IEqualityComparer_GetHashCode_m4137147946_gshared
v$i:_Collection_1_System_Collections_ICollection_CopyTo_m5285659_gshared
Pca:__ZN16LightmapSettings20DidChangeActiveSceneEP10UnitySceneS1_
kwb:__Z18Transfer_BlittableI19StreamedBinaryWriteILb0EELb0EN4math12int3_storageEEvRK29SerializationCommandArgumentsR31RuntimeSerializationCommandInfo
IHe:__ZL59g_AssemblyU2DCSharp_Assembly_CustomAttributesCacheGeneratorP21CustomAttributesCache
cLj:__ZN6il2cpp5utils9PathUtils8BasenameIcEENSt3__212basic_stringIT_NS3_11char_traitsIS5_EENS3_9allocatorIS5_EEEERKSA_
jjf:_RemotingProxy__cctor_m4096951805
Gt:__ZN9Scripting11UnityEngine10Animations21AnimationClipPlayable9InitProxyEv
wIc:__Z35Register_UnityEngine_Event_get_typev
sna:__ZN9Scripting11UnityEngine9Rendering18GraphicsDeviceType12CleanupProxyEv
E_j:__ZN6il2cpp2vm9Exception23GetInvalidCastExceptionERKNS_5utils10StringViewIDsEE
qDe:__ZL64Scrollbar_t1494447233_CustomAttributesCacheGenerator_m_DirectionP21CustomAttributesCache
xtk:_emscripten_glDepthRange__wrapper
vB:__ZN8Animator28BuildControllerPlayableCacheEv
N4d:__ZL48Header_t549724581_CustomAttributesCacheGeneratorP21CustomAttributesCache
wti:__Z36RuntimeInvoker_EventType_t3528516131PFvvEPK10MethodInfoPvPS4_
t6:__Z63ThreadAndSerializationSafeCheckGetMonoBehaviourBeingTransferredv
xoa:__ZN9Scripting11UnityEngine12LightmapData9InitProxyEv
PNi:_List_1_set_Item_m4224739467_gshared
Nfi:__Z74RuntimeInvoker_Int32_t2950945753_RuntimeObject_RuntimeObject_RuntimeObjectPFvvEPK10MethodInfoPvPS4_
uRe:_ConstructorBuilder_get_Name_m2426555260
src:__Z37Register_UnityEngine_Input_GetAxisRawv
zde:__ZL80ModulusRing_t596511505_CustomAttributesCacheGenerator_ModulusRing_Pow_m729002192P21CustomAttributesCache
Uld:__ZN11UnityEngine7Connect13ConfigHandler13ConfigChangedERKN4core12basic_stringIcNS2_20StringStorageDefaultIcEEEEbbi
tbj:_Parser_ParseCharacterClass_m4285351396
b3g:_Convert_ToSByte_m2653418303
pZg:_SyncHashtable__ctor_m2449935938
LTc:__ZN17CallbackArrayBaseIPFvRKN4core12basic_stringIcNS0_20StringStorageDefaultIcEEEER8JSONReadbEPFvPKvS6_S8_bEE8RegisterESA_SE_SC_
iQ:__ZN11AudioSource5ResetEv
Dlg:_RSAPKCS1SignatureFormatter_SetKey_m2935054088
hZb:__ZN12ImageFilters27SetSurfaceUseResolvedBufferEP13RenderTextureb
Lnb:__ZN14SafeBinaryRead21TransferSTLStyleArrayI10vector_setI4PPtrI10MonoScriptENSt3__24lessIS4_EE13stl_allocatorIS4_L18MemLabelIdentifier79ELi16EEEEEvRT_17TransferMetaFlags
wOa:__ZN14Texture2DArray23VirtualRedirectTransferER18StreamedBinaryReadILb0EE
gKh:_UTF7Encoding_GetByteCount_m209415911
H9a:__ZN2UI13RectTransform13AwakeFromLoadE17AwakeFromLoadMode
$dj:_RegularExpression_Compile_m2385682508
_Hf:_ResourceRequest_t3109103591_marshal_pinvoke_back
D2b:__ZN14qsort_internal30FindAndMovePivotToLastPositionIP20ShadowCasterSortDatai26ShadowCasterSortDataSorterEEvT_S4_T0_T1_
q5d:__ZL60IRemotingTypeInfo_t2222593263_CustomAttributesCacheGeneratorP21CustomAttributesCache
eob:__Z18Transfer_BlittableI14SafeBinaryReadLb1EiEvRK29SerializationCommandArgumentsR31RuntimeSerializationCommandInfo
G4f:_X509ExtensionEnumerator_get_Current_m256207749
HOf:_InputField_MoveTextStart_m1087475594
P6h:_Predicate_1__ctor_m3829092036_gshared
wxe:__ZL97CanvasGroup_t4083511760_CustomAttributesCacheGenerator_CanvasGroup_get_blocksRaycasts_m1805542303P21CustomAttributesCache
LKg:_EventArgs__cctor_m1889823314
VBg:_Array_Sort_m182264525
ZQf:_LayoutGroup_set_padding_m282562135
kYi:_Collection_1_System_Collections_IList_get_IsReadOnly_m773226719_gshared
cQe:_Default_IsArrayAssignable_m953489228
bG:__ZNK4PPtrI8RendererEcvPS0_Ev
hVj:_il2cpp_field_get_offset
NQh:_UInt16_ToString_m355311020_AdjustorThunk
Frf:_RC2__ctor_m1146135664
Z7h:_InvokableCall_1_remove_Delegate_m667188944_gshared
_Sd:_SynchronizedClientContextSink__ctor_m4129963630
Fk:_glGetStringi
Oug:_DecoderExceptionFallback_CreateFallbackBuffer_m1133375601
j3j:__ZNK15dense_hashtableI10KeyWrapperIP18Il2CppGenericClassES3_N6il2cpp8metadata22Il2CppGenericClassHashEN14dense_hash_setIS3_S6_NS3_14EqualsComparerINS5_25Il2CppGenericClassCompareEEENSt3__29allocatorIS3_EEE8IdentityESA_SD_E10test_emptyERK30dense_hashtable_const_iteratorIS3_S3_S6_SF_SA_SD_E
A9e:_Enumerator_get_CurrentKey_m889650866_gshared
c8e:_Comparer_1_get_Default_m1513846993_gshared
$sj:__ZL25UnresolvedVirtualCall_248P12Il2CppObjecti25RaycastResult_t3360306849PK10MethodInfo
$rh:_EncryptedData_get_EncryptionAlgorithm_m1297902161
Imf:_SerializationEntry__ctor_m1411687997_AdjustorThunk
qD:__ZN8Animator9WriteStepEy
mza:__ZN9Coroutine16SetCurrentMethodE18ScriptingMethodPtr
T8e:_Enumerator_VerifyCurrent_m829026141_gshared
Uzc:__ZN16PropertyAccessorC2Ev
hzb:__Z35Transfer_Blittable_FixedBufferFieldI18StreamedBinaryReadILb1EEaEvRK29SerializationCommandArgumentsR31RuntimeSerializationCommandInfo
pDe:__ZL65Scrollbar_t1494447233_CustomAttributesCacheGenerator_m_HandleRectP21CustomAttributesCache
LYa:__ZN13ScreenManager16SetScreenTimeoutEi
ktb:__Z18Transfer_BlittableI17RemapPPtrTransferLb0EdEvRK29SerializationCommandArgumentsR31RuntimeSerializationCommandInfo
qje:__ZL104MonoBehaviour_t3962482529_CustomAttributesCacheGenerator_MonoBehaviour_IsObjectMonoBehaviour_m2134950949P21CustomAttributesCache
mZi:_Collection_1_ConvertItem_m1743542180_gshared
l9c:__Z38Register_UnityEngine_Font_HasCharacterv
tDi:__Z68RuntimeInvoker_Boolean_t97287965_Int16_t2552820387_Int16_t2552820387PFvvEPK10MethodInfoPvPS4_
S6b:__Z35IntersectSpherePlaneBoundsOptimizedRKN4math7_float4EPS1_i
Kkg:_RNGCryptoServiceProvider__cctor_m3587754670
I$e:_InternalEnumerator_1_MoveNext_m1728532725_AdjustorThunk
Paa:__ZN17TransformInternal21DetachTransformThreadER18TransformHierarchyjj
z8i:_X509Crl_get_IssuerName_m1792797338
RMi:_List_1_get_Count_m241572196_gshared
I5j:__ZN6il2cpp2os5posix15PosixWaitObject13InterruptWaitEv
uca:__Z22CleanupLODGroupManagerPv
sIc:__Z21Event_CUSTOM_PopEventP12Il2CppObject
ol:_glUniform3fv
Pik:__ZNK6il2cpp8metadata24Il2CppGenericInstCompareclERK10KeyWrapperIPK17Il2CppGenericInstES8_
$4f:_X509ChainElement_Set_m655180762
Jxj:_CustomEventData_AddInt32_m548429697
bFf:_Quaternion_GetHashCode_m2636680144
f1b:__ZNK16LightmapSettings31GetRealtimeLightmapDecodeValuesEv
rP:__ZN5audio5mixer12SetSuspendedERNS0_16AudioMixerMemoryEb
R8a:__ZN17PersistentManager21UnloadNonDirtyStreamsEv
sJh:_UnicodeDecoder__ctor_m3606046165
Mki:__Z96RuntimeInvoker_Int32_t2950945753_RuntimeObject_Int32_t2950945753_RuntimeObject_Int32_t2950945753PFvvEPK10MethodInfoPvPS4_
Tjj:_AnalyticsEventTracker_OnEnable_m1121905268
Aej:_Uri_get_Parser_m3737125102
Kuj:_Canvas_get_overrideSorting_m2740418462
Jvf:_Debug_LogFormat_m309087137
cEg:_Byte_System_IConvertible_ToInt16_m4136764794_AdjustorThunk
MZa:__ZN12ImageFilters4BlitER17ShaderPassContextP7TextureP13RenderTextureiPK18SharedMaterialDataPKcP6ShaderiNS_9BlitFlagsE11CubemapFaceRK8Vector2fSH_
Tsg:_String_LastIndexOf_m3451222878
q9i:_Mark_get_Index_m3048692661
OEe:__ZL69CanvasScaler_t2767979955_CustomAttributesCacheGenerator_m_ScaleFactorP21CustomAttributesCache
wme:__ZL134ISerializationCallbackReceiver_t2363941153_CustomAttributesCacheGenerator_ISerializationCallbackReceiver_OnAfterDeserialize_m735003409P21CustomAttributesCache
sZ:__ZN11UnityEngine15CloudWebService10RestClientINS0_23WebRequestRestHeaderMapEED2Ev
c5h:_U3CCreateWhereIteratorU3Ec__Iterator1D_1__ctor_m1723214851_gshared
Ll:_emscripten_glDepthMask
Wjf:_RemotingServices_CreateClientProxy_m3886727610
cSa:__ZN4crnd25static_huffman_data_model22prepare_decoder_tablesEv
OSa:__ZN9Texture2D23VirtualRedirectTransferER17RemapPPtrTransfer
ljg:_RecordProtocol_GetMessage_m2086135164
tBb:__Z18Transfer_BlittableI18StreamedBinaryReadILb0EELb0E10ColorRGBAfEvRK29SerializationCommandArgumentsR31RuntimeSerializationCommandInfo
Uca:__Znaj
Vzk:_emscripten_glEnableClientState__wrapper
Pod:__ZN20UnityWebRequestProtoI24UnityWebRequestTransport16AtomicRefCounter14RedirectHelper14ResponseHelper15DownloadHandler13UploadHandler18CertificateHandler12HeaderHelper14AsyncOperationE26Job_ExecuteUnityWebRequestEPS9_
A2:__ZN17MessageIdentifierC2EPKcNS_7OptionsEPKN5Unity4TypeES1_
Mdi:__Z45RuntimeInvoker_Void_t1185182177_RuntimeObjectPFvvEPK10MethodInfoPvPS4_
yBf:_Mesh_SetTriangles_m1523451247
Vqg:_Single_System_IConvertible_ToSByte_m1208276900
vGi:_Array_InternalArray__set_Item_TisVector4_t3319028937_m757305038_gshared
Pva:__ZN11GameManager15ThreadedCleanupEv
dtc:__ZNSt3__26__treeIPc15compare_tstringIPKcENS_9allocatorIS1_EEE25__emplace_unique_key_argsIS1_JS1_EEENS_4pairINS_15__tree_iteratorIS1_PNS_11__tree_nodeIS1_PvEEiEEbEERKT_DpOT0_
dji:__Z105RuntimeInvoker_Void_t1185182177_RuntimeObject_RuntimeObject_RuntimeObject_RuntimeObject_Int32_t2950945753PFvvEPK10MethodInfoPvPS4_
Zff:_ValueCollection_System_Collections_Generic_ICollectionU3CTValueU3E_Add_m3298059628_gshared
fei:__Z64RuntimeInvoker_RuntimeObject_Int16_t2552820387_Int16_t2552820387PFvvEPK10MethodInfoPvPS4_
OU:__Z55Register_UnityEngine_AudioSource_get_spatializeInternalv
DHe:__ZL71TrackableTrigger_t621205209_CustomAttributesCacheGenerator_m_MethodPathP21CustomAttributesCache
gK:__ZN14SafeBinaryRead8TransferI14ConstantStringEEvRT_PKc17TransferMetaFlags
G0f:__ZN28GenericInterfaceFuncInvoker3IbP26X509Certificate_t713131622P20X509Chain_t194917408iE6InvokeEPK10MethodInfoP12Il2CppObjectS1_S3_i
kXb:__ZNK6Camera16GetStereoEnabledEv
AVa:__ZN16LightmapSettings16CheckConsistencyEv
Oni:__Z72RuntimeInvoker_Int32_t2950945753_TimeSpan_t881159249_TimeSpan_t881159249PFvvEPK10MethodInfoPvPS4_
Mjg:_SendRecordAsyncResult_SetComplete_m153213906
DVa:__ZN16LightmapSettings23VirtualRedirectTransferER19StreamedBinaryWriteILb0EE
nwc:__ZN12LightManager15InitializeClassEv
WMh:_WaitHandle__cctor_m4242752477
CLa:__ZN9ShaderLab11shaderprops16GetComputeBufferEPK19ShaderPropertySheetS3_NS_16FastPropertyNameE
Pak:__ZN6il2cpp6icalls8mscorlib6System10Reflection10MethodBase31GetMethodFromHandleInternalTypeEii
o8:__ZN23ManagedAttributeManager35CallManagedGetDefaultExecutionOrderE17ScriptingClassPtr
H5:__ZN18ScriptingArgumentsC2Ev
Ctf:_Vector3_op_Equality_m4231250055
sji:__Z46RuntimeInvoker_ParameterAttributes_t1826424051PFvvEPK10MethodInfoPvPS4_
qvk:_emscripten_glBlendFuncSeparate__wrapper
Lxf:_PlayerLoopSystem_t105772105_marshal_pinvoke_back
ZVa:__ZN15SerializeTraitsI13dynamic_arrayI7Hash128Lj0EEE19ResizeSTLStyleArrayERS2_i
pve:__ZL68GUISettings_t1774757634_CustomAttributesCacheGenerator_m_CursorColorP21CustomAttributesCache
oVg:_FileSystemInfo__ctor_m3769019897
hLi:_Array_InternalArray__get_Item_TisContentType_t1787303396_m421427711_gshared
dGf:_Rect_get_xMin_m581135837_AdjustorThunk
JYb:__ZNK25CameraStackRenderingState27GetStereoImageEffectTextureEb
Zqf:_HMACSHA384__ctor_m1677515580
$2i:_RIPEMD160Managed_J_m1336489154
bHc:__ZL52__ManagedRegistrationHelperFunction_PlayableDirectorPv
xwe:__ZL102GUIUtility_t1868551600_CustomAttributesCacheGenerator_GUIUtility_Internal_GetPixelsPerPoint_m290411053P21CustomAttributesCache
VHj:__ZN6il2cpp6icalls6System6System3Net7Sockets6Socket7ReceiveEiP11Il2CppArrayiiNS4_11SocketFlagsEPi
to:FUNCTION_TABLE_ii
Hva:__ZN10TagManager8TransferI18StreamedBinaryReadILb0EEEEvRT_
o0i:_Collection_1_System_Collections_IList_get_IsReadOnly_m2202364665_gshared
rNc:__Z18Transfer_BlittableI9JSONWriteLb0E8BitFieldEvRK29SerializationCommandArgumentsR31RuntimeSerializationCommandInfo
uXg:_MemoryStream_set_Capacity_m1773624579
nXj:__ZNK15dense_hashtableINSt3__24pairIK10KeyWrapperINS1_IP11Il2CppClassjEEES4_EES6_N6il2cpp8metadata14ArrayClassHashEN14dense_hash_mapIS6_S4_SB_NS6_14EqualsComparerINSA_17ArrayClassCompareEEENS0_9allocatorIS8_EEE9SelectKeyESF_SH_E10test_emptyEj
EZf:_SpriteState_set_pressedSprite_m3368686500_AdjustorThunk
sfc:__ZNSt3__26vectorIN9ShaderLab20SerializedSubProgram15StructParameterENS_9allocatorIS3_EEE8__appendEj
rb:invoke_diiii
$tk:b47
zkj:_EventTrigger_set_initTime_m3128947762
ks:__ZL57__ManagedRegistrationHelperFunction_AnimationClipPlayablePv
Tpi:__Z95RuntimeInvoker_Void_t1185182177_RuntimeObject_RuntimeObject_SByte_t1669577662_SByte_t1669577662PFvvEPK10MethodInfoPvPS4_
Acc:__Z24CreateDirectoryRecursiveRKN4core12basic_stringIcNS_20StringStorageDefaultIcEEEE
Ptk:b41
Ghc:__ZN9ShaderLab20SerializedSubProgram8TransferI18StreamedBinaryReadILb0EEEEvRT_
Bkg:_SslClientStream_get_HaveRemoteValidation2Callback_m2858953511
Mtk:b40
wga:__ZN19ThreadSpecificValueIP14StackAllocatorE15ReinitializeTLSEPv
mQ:__ZN11AudioSource23VirtualRedirectTransferER17RemapPPtrTransfer
bhe:__ZL54ContextMenu_t1295656858_CustomAttributesCacheGeneratorP21CustomAttributesCache
c4:__ZN13RuntimeStaticI21ScalableBufferManagerLb0EE13StaticDestroyEPv
Rbd:__ZN2UI13CanvasManager9AddCanvasEPNS_6CanvasE
CZa:__ZN9Texture3D8TransferI19StreamedBinaryWriteILb0EEEEvRT_
RZb:__ZNK6Camera22CalculateRenderingPathEv
Qtk:b42
MOc:__ZN9JSONWrite8TransferI5RectTIfEEEvRT_PKc17TransferMetaFlags
Mzg:_Hashtable_TestPrime_m3839319309
cF:__ZN11UnityEngine9Animation37SetGenericRootTransformPropertyValuesERKNS0_30AnimatorGenericBindingConstantERKN7mecanim10ValueArrayER9Transformbb
HRb:__Z13ConvertMipmap14GraphicsFormatPKvS_Pviiii
bWa:__ZN28EnlightenRendererInformation8TransferI14SafeBinaryReadEEvRT_
PJ:__ZN9Scripting11UnityEngine2XR5Tango24MeshReconstructionServer9InitProxyEv
mxg:_PKCS12_get_IterationCount_m626423090
ptb:__ZL12InvokeMethodI17RemapPPtrTransferEvRK29SerializationCommandArgumentsR31RuntimeSerializationCommandInfo
C0f:_RemoteCertificateValidationCallback_Invoke_m3086073466
jug:_StringComparer_Compare_m991165676
V3c:_tt_sbit_decoder_load_image
KYe:_InternalEnumerator_1_MoveNext_m3299696349_AdjustorThunk
VJa:__Z14IsHalfRTFormat19RenderTextureFormat
ETi:_List_1_System_Collections_ICollection_get_IsSynchronized_m1552759297_gshared
VXj:__ZN15dense_hashtableINSt3__24pairIK10KeyWrapperIP11Il2CppClassES4_EES5_N6il2cpp8metadata16SZArrayClassHashEN14dense_hash_mapIS5_S4_SA_NS5_14EqualsComparerINS9_19SZArrayClassCompareEEENS0_9allocatorIS7_EEE9SelectKeyESE_SG_EC2EjRKSA_RKSE_RKSI_
gQg:_Guid_ToString_m3279186591
cbi:_U3CStartU3Ec__Iterator0_Dispose_m261027331_gshared
UTi:_List_1_Find_m3485944732_gshared
DKc:__ZNSt3__24listIN10GUIManager12SortedScriptE11memory_poolIS2_EE6__sortI13OldSortScriptEENS_15__list_iteratorIS2_PvEESA_SA_jRT_
bzh:_EqualityComparer_1_System_Collections_IEqualityComparer_GetHashCode_m2588073987_gshared
g0i:_Collection_1_System_Collections_IList_Add_m3364892189_gshared
jOi:_List_1_AddEnumerable_m3500350831_gshared
zGj:__ZN24dense_hashtable_iteratorINSt3__24pairIK10KeyWrapperIPK11Il2CppClassEPKcEES6_N6il2cpp5utils11PointerHashIS3_EEN14dense_hash_mapIS6_S9_SE_NS6_14EqualsComparerINS0_8equal_toIS5_EEEENS0_9allocatorISA_EEE9SelectKeyESJ_SL_E30advance_past_empty_and_deletedEv
JAe:__ZL108U3CStartU3Ec__Iterator0_t1249263001_CustomAttributesCacheGenerator_U3CStartU3Ec__Iterator0_Reset_m3373856720P21CustomAttributesCache
Mcg:_PrivateKeyInfo_get_PrivateKey_m3647771102
Usb:__Z18Transfer_BlittableI17RemapPPtrTransferLb1E8BitFieldEvRK29SerializationCommandArgumentsR31RuntimeSerializationCommandInfo
sZj:__ZN6il2cpp6icalls8mscorlib6System9ThreadingL11ThreadStartEPv
kfa:__ZN15DirectorManager12OnSampleTimeEv
nMd:__ZN28GenericInterfaceFuncInvoker1IP12Il2CppObjectS1_E6InvokeEPK10MethodInfoS1_S1_
MHd:_TypeBuilder_check_not_created_m3652863637
Iwd:_StandaloneInputModule_UpdateModule_m450861257
lpe:__ZL117SupportedRenderingFeatures_t353898663_CustomAttributesCacheGenerator_U3CreflectionProbeSupportFlagsU3Ek__BackingFieldP21CustomAttributesCache
Y1h:_ReadOnlyCollection_1_System_Collections_IList_Insert_m2928873627_gshared
HP:__ZNK4PPtrI10AudioMixerEptEv
tyh:_EqualityComparer_1__cctor_m314889309_gshared
Xsa:__ZN12CachedReader10Align4ReadEv
Ivh:_DefaultComparer_GetHashCode_m556015105_gshared
l7i:_X501__cctor_m2428304915
Juj:_Canvas_get_renderOrder_m1489855841
ake:__ZL66DispatchEventQueueEvents_t929081739_CustomAttributesCacheGeneratorP21CustomAttributesCache
Eei:__Z50RuntimeInvoker_Void_t1185182177_Single_t1397266774PFvvEPK10MethodInfoPvPS4_
Gye:__ZL77ExecuteEvents_t3484638744_CustomAttributesCacheGenerator_U3CU3Ef__mgU24cache1P21CustomAttributesCache
Nwg:_X501_ToString_m4186311521
Qfj:_Event_ToString_m1688862299
Poi:__Z70RuntimeInvoker_Boolean_t97287965_RuntimeObject_IPAddressU26_t589322682PFvvEPK10MethodInfoPvPS4_
Oti:__Z105RuntimeInvoker_Void_t1185182177_Vector2U26_t2376273893_RuntimeObject_RuntimeObject_Vector2U26_t2376273893PFvvEPK10MethodInfoPvPS4_
Gta:__ZNK9Behaviour22GetTypeVirtualInternalEv
Ovf:_Debug_LogErrorFormat_m575266265
BLg:_CCGregorianCalendar_month_from_fixed_m4268992710
qgh:_Array_compare_TisUICharInfo_t75501106_m1310495481_gshared
Luc:__ZNK28MonoBehaviourPropertyBinding12SetPPtrValueERKN11UnityEngine9Animation10BoundCurveEi
M7b:__Z21GetScriptingArraySize17ScriptingArrayPtr
UWc:__ZN20TextRenderingPrivate8FontImpl8TransferI14SafeBinaryReadEEvRT_
ola:__ZL51__ManagedRegistrationHelperFunction_HideInInspectorPv
ete:__ZL82AnimatorTransitionInfo_t2534804151_CustomAttributesCacheGenerator_m_NormalizedTimeP21CustomAttributesCache
C$d:__ZL55ISymbolWriter_t780458634_CustomAttributesCacheGeneratorP21CustomAttributesCache
ZKc:__ZN11IMGUIModule21ClearDeveloperConsoleEv
cpe:__ZL81MessageTypeSubscribers_t1684935770_CustomAttributesCacheGenerator_m_messageTypeIdP21CustomAttributesCache
j0h:_ReadOnlyCollection_1_System_Collections_IList_Clear_m4022532825_gshared
Ktg:_Encoding_get_ASCII_m3595602635
tFf:_Ray_get_direction_m761601601_AdjustorThunk
$ib:__ZN9GfxDevice17ImmediateTexCoordEifff
r8c:_ft_black_new
oSe:_DerivedType_GetCustomAttributes_m3536779709
Npj:__ZL24UnresolvedVirtualCall_72P12Il2CppObjectPK10MethodInfo
$8d:__ZL93Interlocked_t2273387594_CustomAttributesCacheGenerator_Interlocked_CompareExchange_m388540288P21CustomAttributesCache
UHd:_MethodBase_get_IsAbstract_m428833029
kCg:_AssemblyLoadEventHandler__ctor_m896828968
Nr:__ZN13ConstraintJob23ConstraintComponentDataC2ERK18PositionConstraint
wDb:__ZNSt3__26vectorINS_4pairI17ScriptingClassPtrPKN5Unity4TypeEEENS_9allocatorIS7_EEE21__push_back_slow_pathIS7_EEvOT_
ntk:_emscripten_glUniform4f__wrapper
GNi:_List_1_Reverse_m4144036584_gshared
QEh:_Enumerator_MoveNext_m2595190390_AdjustorThunk
Ohh:_Array_InternalArray__IndexOf_TisColor32_t2600501292_m3783551884_gshared
U$b:__ZNK6Camera16GetProjectionFarEv
gr:__Z24InverseTransformRotationRK23TransformAccessReadOnlyRKN4math7_float4E
ATc:__ZN11UnityEngine9Analytics16StartupTimeEvent23SetSplashScreenTimeInfoEyyy
l8i:_X509Chain_Build_m2469702749
Yog:_Evidence_get_IsSynchronized_m3446368195
pQ:__ZN11AudioSource6UpdateEv
eod:__Z31GetPerformanceReportingSettingsv
_Na:__ZNK14PlayableOutput11DerivesFromE17ScriptingClassPtr
dQa:__ZN7Texture34CreateFileTextureUploadInstructionE18TextureUploadFlagsj
QSd:__ZN25GenericVirtActionInvoker06InvokeEPK10MethodInfoP12Il2CppObject
pWd:__ZL64SerializableAttribute_t1992588303_CustomAttributesCacheGeneratorP21CustomAttributesCache
tfb:__ZN25SingleBlockMemoryFileDataC2E10MemLabelIdPvjb
wve:__ZL59GUISkin_t1244372282_CustomAttributesCacheGenerator_m_toggleP21CustomAttributesCache
wyc:__ZN19LowerResBlitTexture13ApplySettingsEv
eG:__ZN8Animator8TransferI14SafeBinaryReadEEvRT_
FXj:__ZN15dense_hashtableINSt3__24pairIK10KeyWrapperIP11Il2CppClassES4_EES5_N6il2cpp8metadata16SZArrayClassHashEN14dense_hash_mapIS5_S4_SA_NS5_14EqualsComparerINS9_19SZArrayClassCompareEEENS0_9allocatorIS7_EEE9SelectKeyESE_SG_E4swapERSJ_
Xva:__ZN17GlobalGameManager23VirtualRedirectTransferER18StreamedBinaryReadILb0EE
gYg:_NullStream_SetLength_m1485742029
maa:__Z23AsyncReadForceCloseFileRKN4core12basic_stringIcNS_20StringStorageDefaultIcEEEE
kpe:__ZL120RenderPipelineManager_t4036911426_CustomAttributesCacheGenerator_RenderPipelineManager_DoRenderLoop_Internal_m3799666479P21CustomAttributesCache
dW:__ZN16BaseVideoTexture19UpdateVideoTexturesEv
VKd:_MonoField_GetValue_m3124733531
Ffh:_Array_InternalArray__IEnumerable_GetEnumerator_TisOrderBlock_t1585977831_m2414028303_gshared
q7a:__ZNK16LightmapSettings23HasLightProbeTetrahedraEv
HWa:__ZN6Sprite23VirtualRedirectTransferER19StreamedBinaryWriteILb0EE
wbh:_Enum_GetHashCode_m2848082716
Nlc:__ZN2UI13RectTransform12SetAnchorMaxERK8Vector2f
zXj:__ZN14dense_hash_mapI10KeyWrapperIP11Il2CppClassES2_N6il2cpp8metadata16SZArrayClassHashENS3_14EqualsComparerINS5_19SZArrayClassCompareEEENSt3__29allocatorINSA_4pairIKS3_S2_EEEEE13set_empty_keyERSD_
vtd:_EventTrigger_Execute_m2453060771
l3h:_Comparison_1_Invoke_m517083441_gshared
jfh:_Array_InternalArray__IEnumerable_GetEnumerator_TisIntPtr_t_m2620447453_gshared
bNj:__ZNK15dense_hashtableINSt3__24pairIK10KeyWrapperINS1_IPK9FieldInfoP11Il2CppClassEEEjEES9_17ReflectionMapHashIS8_EN14dense_hash_mapIS9_jSD_NS9_14EqualsComparerINS0_8equal_toIS8_EEEENS0_9allocatorISB_EEE9SelectKeyESI_SK_E5beginEv
M7j:__ZN6il2cpp2os6Thread15CurrentThreadIdEv
XZh:_ReadOnlyCollection_1_System_Collections_IList_get_IsFixedSize_m3402868227_gshared
dE:__ZN15SerializeTraitsIN4math4trsXEE8TransferI8BlobSizeEEvRS1_RT_
nPb:__ZN14DataBufferGLES11CopySubDataEPKS_jjj
ee:_emscripten_glVertexPointer
pLj:__ZN6il2cpp2vm7Runtime47RaiseExecutionEngineExceptionIfMethodIsNotFoundEPK10MethodInfo
Y9i:_PatternCompiler_GetMachineFactory_m3758869886
i3b:__Z17GetFrustumPortionPK8Vector3fffPS_
cse:__ZL105RectTransform_t3704657025_CustomAttributesCacheGenerator_RectTransform_INTERNAL_get_anchorMin_m1735215721P21CustomAttributesCache
r0j:__ZN15dense_hashtableINSt3__24pairIK10KeyWrapperIP14Il2CppIUnknownEjEES5_N6il2cpp5utils11PointerHashIS3_EEN14dense_hash_mapIS5_jSB_NS5_14EqualsComparerINS0_8equal_toIS4_EEEENS0_9allocatorIS7_EEE9SelectKeyESG_SI_E14squash_deletedEv
Mtd:_EventTrigger_OnCancel_m585099428
T7d:__ZL107CodeAccessPermission_t2681295399_CustomAttributesCacheGenerator_CodeAccessPermission_GetHashCode_m880096813P21CustomAttributesCache
ehj:_GUILayoutEntry_ApplyOptions_m1741659338
aUd:_MethodDictionary_set_MethodKeys_m1451825752
Dnf:_RuntimeTypeHandle_Equals_m2857439487_AdjustorThunk
_be:__ZL69GC_t959872083_CustomAttributesCacheGenerator_GC_KeepAlive_m1400443516P21CustomAttributesCache
xhb:__ZNK9GfxDevice27GetPlatformAdjustedViewportEv
DWf:_ScrollRect_get_rectTransform_m2442061719
dZh:_ReadOnlyCollection_1_System_Collections_Generic_IListU3CTU3E_set_Item_m88350439_gshared
WJg:_Hashtable_get_IsSynchronized_m1426775249
Y8:__ZNSt3__26vectorINS_4pairIiiEE13stl_allocatorIS2_L18MemLabelIdentifier38ELi16EEE6insertENS_11__wrap_iterIPKS2_EEOS2_
Xea:__ZNSt3__26__treeINS_12__value_typeIPvsEENS_19__map_value_compareIS2_S3_NS_4lessIS2_EELb1EEE13stl_allocatorIS3_L18MemLabelIdentifier86ELi16EEE25__emplace_unique_key_argsIS2_JNS_4pairIS2_sEEEEENSD_INS_15__tree_iteratorIS3_PNS_11__tree_nodeIS3_S2_EEiEEbEERKT_DpOT0_
Qkj:_StandardEventPayload_IsRequiredDataValid_m361738930
iod:__GLOBAL__sub_I_artifacts_WebGL_codegenerator_0_cpp_6966
T0i:_Collection_1_System_Collections_IList_IndexOf_m3360434989_gshared
Gcj:_Reference_Compile_m4195878675
alk:_InputBuffer_remove_onCommandSent_m3139499669
C$h:_ReadOnlyCollection_1_System_Collections_ICollection_CopyTo_m2672196987_gshared
Xzc:__ZN16StreamedResource8TransferI24GenerateTypeTreeTransferEEvRT_
XGf:_RectTransform_get_anchorMin_m2928307238
_Fg:_ArrayList__ctor_m3828927650
dDa:__ZN10Matrix3x3f15InvertTransposeEv
qhj:_GUILayoutGroup_SetHorizontal_m996475327
_pg:_SecurityException_get_Demanded_m2500043391
hhj:_GUILayoutEntry__cctor_m663865902
e7f:_CaptureCollection_GetEnumerator_m732412500
pNf:__ZN23GenericVirtFuncInvoker2IDsiDsE6InvokeEPK10MethodInfoP12Il2CppObjectiDs
FWb:__Z11IsBatchmodev
tDh:_Enumerator_System_Collections_IEnumerator_get_Current_m713684915_gshared
Rrb:__Z29Transfer_Blittable_ArrayFieldI14SafeBinaryRead8Vector3fEvRT_R9ArrayInfoRK23StaticTransferFieldInfo
EId:_MemberInfo__ctor_m3258770133
S5d:__ZL62IFormatterConverter_t2171992254_CustomAttributesCacheGeneratorP21CustomAttributesCache
Nae:__ZL78Convert_t2465617642_CustomAttributesCacheGenerator_Convert_ToSByte_m4075629912P21CustomAttributesCache
iif:_SoapTypeAttribute_get_XmlTypeNamespace_m4211398148
JXc:__ZN20TextRenderingPrivate8FontImpl18ResetCachedTextureEv
TJj:__ZN6il2cpp6icalls8mscorlib6SystemL16GetFieldFromTypeINS_5utils10functional6FilterINSt3__212basic_stringIcNS7_11char_traitsIcEENS7_9allocatorIcEEEENS4_13VmStringUtils21CaseSensitiveComparerEEEEEP21Il2CppReflectionFieldP11Il2CppClassSK_iRKT_
Z2f:_X509KeyUsageExtension_Decode_m3150759625
Adk:_GC_print_finalization_stats
Obf:_KeyCollection_System_Collections_ICollection_get_IsSynchronized_m2596089789_gshared
Xxb:__Z35Transfer_Blittable_SingleValueFieldI19StreamedBinaryWriteILb0EE8Vector3fEvRT_R17GeneralMonoObjectRK23StaticTransferFieldInfo
pua:__ZN11NamedObject15ThreadedCleanupEv
Xhj:_GUITargetAttribute_GetGUITargetAttrValue_m2954410352
qmc:__Z53Register_UnityEngine_Behaviour_get_isActiveAndEnabledv
bCg:_SimpleEnumerator_get_Current_m72361444
Iq:__ZNSt3__26vectorIN4core12basic_stringIcNS1_20StringStorageDefaultIcEEEENS_9allocatorIS5_EEE8__appendEj
vdf:__ZN21InterfaceFuncInvoker2I27DictionaryEntry_t3123975638P12Il2CppObjectbE6InvokeEjP11Il2CppClassS2_S2_b
oW:__ZN13ProduceHelperI10SampleClipLb0EE7ProduceE10MemLabelId18ObjectCreationMode
C2a:__ZN26PlayerSettingsSplashScreen8TransferI17RemapPPtrTransferEEvRT_
Voh:_ASN1_set_Value_m2803403806
_Jj:__ZN6il2cpp6icalls8mscorlib6SystemL17CollectTypeFieldsINS_5utils10functional10TrueFilterEEEvP11Il2CppClassPKS7_iRNSt3__26vectorIP9FieldInfoNSB_9allocatorISE_EEEERKT_
bfi:__Z52RuntimeInvoker_Int16_t2552820387_Decimal_t2948259380PFvvEPK10MethodInfoPvPS4_
lnc:__Z13GetTagManagerv
Fzg:_Hashtable__ctor_m1815022027
N5h:__ZN28GenericInterfaceFuncInvoker1Ib39CustomAttributeNamedArgument_t287865710E6InvokeEPK10MethodInfoP12Il2CppObjectS0_
FKh:_UTF8Encoding_GetChars_m1433288684
bF:__ZN11UnityEngine9Animation37HasGenericRootTransformPropertyValuesERKNS0_30AnimatorGenericBindingConstantEb
OX:__ZN11UnityEngine15CloudWebService17CloudJobSchedulerD0Ev
ldi:__Z50RuntimeInvoker_Boolean_t97287965_SByte_t1669577662PFvvEPK10MethodInfoPvPS4_
qWe:_ArrayReadOnlyList_1_Contains_m381552673_gshared
Qyi:__Z105RuntimeInvoker_Int32_t2950945753_RuntimeObject_OrderBlock_t1585977831_Int32_t2950945753_Int32_t2950945753PFvvEPK10MethodInfoPvPS4_
gTc:__ZN11UnityEngine9Analytics26PerformanceReportingConfig13ConfigChangedERKN4core12basic_stringIcNS2_20StringStorageDefaultIcEEEER8JSONRead
oue:__ZL93AudioSource_t3935305588_CustomAttributesCacheGenerator_AudioSource_Play_m3389845180____delay0P21CustomAttributesCache
Aei:__Z96RuntimeInvoker_Boolean_t97287965_RuntimeObject_RuntimeObject_Int32_t2950945753_Int32_t2950945753PFvvEPK10MethodInfoPvPS4_
Tgh:_Array_IndexOf_TisUICharInfo_t75501106_m3198896198_gshared
Uad:__ZNK2UI11CanvasGroup22GetTypeVirtualInternalEv
Chg:_Context_get_Current_m2853615040
gNg:_CultureInfo_construct_internal_locale_from_lcid_m2668301444
voh:_PrimeGeneratorBase__ctor_m2973488305
PKa:__ZNK15PlayableMethods20CanInvokePrepareDataEv
OKc:__Z21CleanupGlobalGUIStatev
vPh:_Type_IsContextfulImpl_m3693603908
rYd:__ZL81RuntimeArray_CustomAttributesCacheGenerator_Array_GetValue_m120423883____indices0P21CustomAttributesCache
lEh:_Enumerator_VerifyState_m2873941769_gshared
mBb:__Z18Transfer_BlittableI18StreamedBinaryReadILb0EELb1EN4math12int3_storageEEvRK29SerializationCommandArgumentsR31RuntimeSerializationCommandInfo
kci:__Z56RuntimeInvoker_RuntimeObject_RuntimeObject_RuntimeObjectPFvvEPK10MethodInfoPvPS4_
XTb:__ZN22VertexDeclarationCache5ClearEv
ipf:_CspParameters__ctor_m3852972821
Uzg:_AppDomainInitializer_EndInvoke_m2095010821
Qac:__ZN17PersistentManager12SetPathRemapERKN4core12basic_stringIcNS0_20StringStorageDefaultIcEEEES6_
Ny:__Z27ProcessRootMotionEmptyMixerP35AnimationPlayableEvaluationConstantP32AnimationPlayableEvaluationInputP33AnimationPlayableEvaluationOutput
P4b:__ZN6Camera24PrepareCullingParametersERK23CameraCullingParameters13RenderingPathR11CullResults
_4b:__Z20CullReflectionProbesR8JobFenceRK22SceneCullingParametersRK23ReflectionProbesContextPKjjPjS9_
rBc:__Z12SetIUISystemP9IUISystem
e6a:__ZN19RuntimeSceneManager22EndIntegrateMainThreadEP10UnitySceneNS_11LoadingModeE
fIi:_Array_Sort_TisUICharInfo_t75501106_m3474449559_gshared
zwg:_Buffer_BlockCopy_m2884209081
rtb:__Z26Transfer_UnityEngineObjectI17RemapPPtrTransferLb0EEvRK29SerializationCommandArgumentsR31RuntimeSerializationCommandInfo
Kab:__ZN17WeakPtrSharedDataD0Ev
Vaj:_QuickSearch_GetShiftDistance_m2542665852
p$a:__Z32TransferEnumWithNameForceIntSizeI14SafeBinaryRead11IndexFormatEvRT_RT0_PKc17TransferMetaFlags
HKi:_Array_InternalArray__get_Item_TisCustomAttributeTypedArgument_t2723150157_m2639399822_gshared
hnh:_BigInteger_GenerateRandom_m3141592944
Nvb:__Z29Transfer_Blittable_ArrayFieldI24GenerateTypeTreeTransfer4AABBEvRT_R9ArrayInfoRK23StaticTransferFieldInfo
AHc:__ZN9Scripting11UnityEngine12StylePainter12CleanupProxyEv
P8f:_Interval_Contains_m1454846757
VDd:_Graphic_CacheCanvas_m1120385152
mI:__ZN26AnimatorOverrideController15InitializeClassEv
N5e:_InternalEnumerator_1_MoveNext_m1262906009_gshared
QCd:_U3CDelayedDestroyDropdownListU3Ec__Iterator0_Dispose_m100123149
EHc:__ZN9Scripting11UnityEngine15ScrollViewState12CleanupProxyEv
UNf:_InputField_set_contentType_m1277230266
ulk:_emscripten_GetProcAddress
nGh:_List_1_System_Collections_Generic_IEnumerableU3CTU3E_GetEnumerator_m944444416_gshared
Ca:invoke_fiiifii
Pmk:_modff
bIa:__ZN20SphericalHarmonicsL219AddDirectionalLightERKN4math7_float3ERKNS0_7_float4E
i6f:_X509ChainElementCollection_get_IsSynchronized_m3980338507
bfa:__Z26ScheduleJobForEachInternalR8JobFencePFvPvjES1_iPFvS1_E11JobPriority
fye:__ZL67RemoteSettings_t1718627291_CustomAttributesCacheGenerator_CompletedP21CustomAttributesCache
bWb:__ZZ23InitPlayerLoopCallbacksvEN41PostLateUpdateProfilerEndFrameRegistrator7ForwardEv
Rjc:__ZN9Scripting18RaiseMonoExceptionEPKcz
Tyc:__ZN10GameObject17WillHandleMessageERK17MessageIdentifier
Oog:_StrongNamePublicKeyBlob_Equals_m3655422942
Lpg:_SecurityContext__ctor_m1730177197
Ovj:_RectTransformUtility_GetTransposed_m3952754222
Ywc:__ZN9ShaderLab16FastPropertyName15InitBy28BitHashEj
zAj:__ZN6il2cpp2vm5Class7GetNameEP11Il2CppClass
jNi:_List_1_System_Collections_IList_set_Item_m4182383657_gshared
Nxh:_EqualityComparer_1_System_Collections_IEqualityComparer_GetHashCode_m3723747923_gshared
hHi:_Array_Resize_TisOrderBlock_t1585977831_m3449774576_gshared
UAb:__ZN15SerializeTraitsI13dynamic_arrayIfLj0EEE19ResizeSTLStyleArrayERS1_i
Ihi:__Z96RuntimeInvoker_Void_t1185182177_Int32_t2950945753_Single_t1397266774_RuntimeObject_RuntimeObjectPFvvEPK10MethodInfoPvPS4_
LXh:_ReadOnlyCollection_1_CopyTo_m3722791265_gshared
B8e:_Enumerator_System_Collections_IDictionaryEnumerator_get_Key_m195047678_AdjustorThunk
zNg:_DateTimeFormatInfo_get_RawAbbreviatedMonthNames_m2395953416
Iuj:_Canvas_get_pixelPerfect_m333060872
B$a:__ZN17PackedFloatVector12UnpackFloatsEPfiiii
rId:_TypeBuilder_ToString_m3497908325
VB:__ZN17AnimationPlayable28UpdateInternalStateRecursiveILi3ELb0EEEvPK35AnimationPlayableEvaluationConstant
WMb:__ZN13GfxDeviceGLES21DestroyComputeProgramER12ObjectHandleI18ComputeProgram_TagPvE
jeh:_Enumerable_Any_TisRuntimeObject_m3853239423_gshared
saj:_PatternCompiler_EmitIfDefined_m2075050865
Q7g:_Decimal_System_IConvertible_ToInt64_m1446427516_AdjustorThunk
yca:__ZN17UniqueIDGenerator16DestroyPureIndexEj
oMe:_NotImplementedException__ctor_m3095902440
Gsj:__ZL25UnresolvedVirtualCall_227P12Il2CppObjectPK10MethodInfo
C8:__ZL21AppendNestedClassName17ScriptingClassPtrRN4core17string_with_labelILi1EEE
$ec:__ZN14SafeBinaryRead21TransferSTLStyleArrayINSt3__26vectorIN9ShaderLab20SerializedSubProgram12UAVParameterENS1_9allocatorIS5_EEEEEEvRT_17TransferMetaFlags
XXj:__ZN6il2cpp8metadata13ArrayMetadata20SetupArrayInterfacesEP11Il2CppClassRKNS_2os12FastAutoLockE
_Nf:_InputField_set_inputType_m424695295
sNb:__ZN13GfxDeviceGLES32InitStereoGlobalsBuffersPlatformEiijPKv
t1:__ZNK13BaseAllocator10IsAssignedEv
LY:__ZN24TextDOMTransferWriteBaseI9JSONWriteE12PushMetaFlagEi
itj:__ZL25UnresolvedVirtualCall_257P12Il2CppObjecti19Vector2_t2156229523PK10MethodInfo
GPc:__Z18Transfer_BlittableI8JSONReadLb1E10ColorRGBAfEvRK29SerializationCommandArgumentsR31RuntimeSerializationCommandInfo
kia:__ZN6prcoreL26RemapGenericIntegerToFloatI17TexFormatARGB888815TexFormatRFloatEEvPKNS_9InnerInfoE
j1:__ZN5Mutex6UnlockEv
sJj:__ZN6il2cpp2vm10ThreadPool10InitializeEv
FQi:_List_1__ctor_m808270210_gshared
qTj:__ZN6il2cpp2vm17TypeNameParseInfoD2Ev
hBh:_PrimeHelper_ToPrime_m3704362632_gshared
cN:__ZN4FMOD7Channel7setModeEj
y7g:_Decimal_System_IConvertible_ToType_m2919262279
BLf:_Vector2_get_right_m1027081661
AUa:__ZNK8Renderer8GetLayerEv
rYg:_Stream_Close_m771352034
x6e:__ZN21InterfaceFuncInvoker1Ii19TimeSpan_t881159249E6InvokeEjP11Il2CppClassP12Il2CppObjectS0_
yHa:__ZN12FlareManager11DeleteFlareEi
TA:__ZN7mecanim9animation22DestroyBlendTreeOutputEPNS0_15BlendTreeOutputERNS_6memory9AllocatorE
b$b:__ZNK6Camera20GetReplacementShaderEv
CTi:_List_1_System_Collections_IList_Remove_m4226673807_gshared
Thk:__ZNSt3__26__treeINS_12__value_typeINS_12basic_stringIcNS_11char_traitsIcEENS_9allocatorIcEEEEPFvvEEENS_19__map_value_compareIS7_SA_NS_4lessIS7_EELb1EEENS5_ISA_EEE4findIS7_EENS_15__tree_iteratorISA_PNS_11__tree_nodeISA_PvEEiEERKT_
aPa:__ZL23stbir__calculate_memoryP11stbir__info
xOj:__ZNK15dense_hashtableINSt3__24pairIK10KeyWrapperINS1_IPK10MethodInfoP11Il2CppClassEEEjEES9_17ReflectionMapHashIS8_EN14dense_hash_mapIS9_jSD_NS9_14EqualsComparerINS0_8equal_toIS8_EEEENS0_9allocatorISB_EEE9SelectKeyESI_SK_E12test_deletedERK24dense_hashtable_iteratorISB_S9_SD_SM_SI_SK_E
Z7f:_Interpreter_Close_m126356671
w_i:_Collection_1_InsertItem_m168969280_gshared
kcd:__ZNSt3__227__insertion_sort_incompleteIRPFbPN2UI6CanvasES3_EPS3_EEbT0_S8_T_
jVc:__ZN9Scripting11UnityEngine14SphereCollider12CleanupProxyEv
hlk:__ZN25GenericVirtActionInvoker1IP8String_tE6InvokeEPK10MethodInfoP12Il2CppObjectS1_
WZa:__ZNK6Camera18GetRenderRectangleEv
gFj:__ZN6il2cpp5utils13dynamic_arrayIPK10Il2CppTypeLj4EE7reserveEj
A3j:__ZN6il2cpp8metadata15GenericMetadata7InflateEPK19Il2CppGenericMethodPK20Il2CppGenericContext
TSc:__ZN9Scripting11UnityEngine22ParticleCollisionEvent9InitProxyEv
mYa:__ZN13sorted_vectorIN4core12basic_stringIcNS0_20StringStorageDefaultIcEEEENSt3__24lessIS4_EE13stl_allocatorIS4_L18MemLabelIdentifier81ELi16EEE4findIS4_EENS5_11__wrap_iterIPS4_EERKT_
Qxc:__Z13RegisterClassI30RuntimeInitializeOnLoadManagerEvPKc
kbj:_Parser_HandleExplicitNumericGroups_m1412234891
fLi:_Array_InternalArray__get_Item_TisRaycastHit2D_t2279581989_m2440275162_gshared
CQe:_CustomAttributeNamedArgument_Equals_m1414002036
lQc:__ZL26Transfer_SimpleNativeClassI8JSONRead10RectOffsetLb1EEvRK29SerializationCommandArgumentsR31RuntimeSerializationCommandInfo
Ddd:__Z44CanvasRenderer_CUSTOM_INTERNAL_CALL_SetColorP12Il2CppObjectRK10ColorRGBAf
oFh:_List_1__ctor_m3376109328_gshared
gTe:_FieldBuilder_GetFieldOffset_m725157755
lDa:__Z26TransformVerticesInnerLoopILb1ELb1ELb1EEvPhRK10Matrix4x4fRK10Matrix3x3fjPKhiS8_ii25GfxTransformVerticesFlagsj
Kff:_Enumerator_MoveNext_m3045873697_AdjustorThunk
ICh:_Enumerator_System_Collections_IEnumerator_Reset_m959124362_AdjustorThunk
i_b:__ZNK20DynamicPropertySheet18FindQueuedPropertyEN9ShaderLab16FastPropertyNameEN19ShaderPropertySheet12PropertyTypeE
ibh:_Enum_ToObject_m121831801
Xpe:__ZL57AsyncOperation_t1445031843_CustomAttributesCacheGeneratorP21CustomAttributesCache
iGd:_Image_get_hasBorder_m3423344180
Vce:__ZL60TypeLoadException_t3707937253_CustomAttributesCacheGeneratorP21CustomAttributesCache
Rhd:__Z48UnityAnalyticsHandler_CUSTOM_SendCustomEventNameP12Il2CppObjectP12Il2CppString
rta:__ZN6ObjectD2Ev
Tpc:__ZN9Transform16SetLocalRotationERK11Quaternionf
Wla:__ZL49__ManagedRegistrationHelperFunction_CommandBufferPv
bXb:__ZN13RenderManager37RenderCamerasWithScriptableRenderLoopEi
pnf:_RuntimeMethodHandle__ctor_m2229201676
gNh:_TimeSpan__ctor_m3689759052
JWd:__ZL49UInt16_t2177724958_CustomAttributesCacheGeneratorP21CustomAttributesCache
xMb:__ZN13GfxDeviceGLES22ReleaseThreadOwnershipEv
XDi:__Z37RuntimeInvoker_Enumerator_t3123848928PFvvEPK10MethodInfoPvPS4_
f4j:__ZN6il2cpp2os19ReleaseSocketHandleEj
tMh:_ThreadStart__ctor_m3250019360
tV:__ZN11AudioModule16GetDSPSampleRateEv
u9j:__ZN15dense_hashtableINSt3__24pairIK10KeyWrapperIPK19Il2CppGenericMethodEP10MethodInfoEES6_N6il2cpp8metadata23Il2CppGenericMethodHashEN14dense_hash_mapIS6_S9_SD_NS6_14EqualsComparerINSC_26Il2CppGenericMethodCompareEEENS0_9allocatorISA_EEE9SelectKeyESH_SJ_E5clearEv
Vzc:__ZN16PropertyAccessor5ClearEv
P7e:_Comparer_1__ctor_m3649041856_gshared
mGd:_Image_OnBeforeSerialize_m3415525254
sNf:_InputField_get_characterValidation_m4196664041
yOh:_Type_get_Attributes_m58528356
xyf:_SpriteBone_t303320096_marshal_pinvoke
G6h:__ZN23GenericVirtFuncInvoker1Ib19Vector2_t2156229523E6InvokeEPK10MethodInfoP12Il2CppObjectS0_
v$b:__ZN6Camera28DefaultPerformRenderFunctionD0Ev
Swg:_Array_GetUpperBound_m4018715963
U8i:_X509Store__ctor_m2736551756
fsc:__Z13RegisterClassI9TextAssetEvPKc
B5j:__ZN6il2cpp2os5posix15PosixWaitObjectC2ENS2_4TypeE
gZb:__ZN6Camera21PostMultiCustomRenderENS_10RenderFlagEb
NEi:_Array_InternalArray__Insert_TisMonoResource_t4103430009_m1997865927_gshared
Jmg:_SHA512Managed_HashFinal_m2173184560
xSb:__ZN12_GLOBAL__N_112UploadImagesEP7ApiGLESjji14GraphicsFormatPKhjS2_iiii16TextureUsageModePh
kJb:__ZN23ShaderVariantCollection13WarmupShadersEv
xEa:__ZNK4PPtrI8MaterialEptEv
ftc:__ZN13ProduceHelperI9TransformLb0EE7ProduceE10MemLabelId18ObjectCreationMode
s4i:_SslStreamBase_Finalize_m3260913635
j8:__Z25GetCommonScriptingClassesv
O6a:__Z27scripting_gc_collect_unsafei
mcg:_MD5SHA1_HashFinal_m4115488658
yV:__ZN11AudioModule20SuspendVideoTexturesEv
vih:_Array_InternalArray__ICollection_Add_TisKeyValuePair_2_t71524366_m3468275433_gshared
Ead:__ZN9Scripting11UnityEngine9CSSLayout6Native9InitProxyEv
DU:__Z59Register_UnityEngine_AudioExtensionManager_GetAudioListenerv
N$d:__ZL78Calendar_t1661121569_CustomAttributesCacheGenerator_Calendar_Clone_m1356182658P21CustomAttributesCache
dvb:__Z26Transfer_UnityEngineObjectI24GenerateTypeTreeTransferLb0EEvRK29SerializationCommandArgumentsR31RuntimeSerializationCommandInfo
H1g:_Convert_ToDouble_m278900635
P0c:_UNITY_FT_GlyphLoader_CheckPoints
awf:_DebugLogHandler_LogException_m302830419
oPf:_InputField_LineDownCharacterPosition_m2798128425
fBh:_PrimeHelper_TestPrime_m2318568626_gshared
S_d:__ZL63KeyNotFoundException_t2292407383_CustomAttributesCacheGeneratorP21CustomAttributesCache
E9e:_Enumerator_System_Collections_IDictionaryEnumerator_get_Value_m684446183_AdjustorThunk
GHa:__ZN15SharedLightData7PrecalcEv
Uxa:__ZN10Matrix4x4fmLERKS_
fq:__ZN4PPtrI9TransformE8TransferI18StreamedBinaryReadILb0EEEEvRT_
JFf:_Vector2__ctor_m3970636864
nxa:__ZN17TransformInternal12InitLocalTRSE15TransformAccessRKN4math7_float3ERKNS1_7_float4ES4_
Gyb:__Z35Transfer_Blittable_FixedBufferFieldI18StreamedBinaryReadILb1EEsEvRK29SerializationCommandArgumentsR31RuntimeSerializationCommandInfo
tX:__ZNK4PPtrI4MeshEdeEv
Gbh:_Environment_InternalGetFolderPath_m468390978
zDe:__ZL156U3CClickRepeatU3Ec__Iterator0_t3442648935_CustomAttributesCacheGenerator_U3CClickRepeatU3Ec__Iterator0_System_Collections_IEnumerator_get_Current_m543328413P21CustomAttributesCache
Lce:__ZL65StackOverflowException_t3629451388_CustomAttributesCacheGeneratorP21CustomAttributesCache
_bf:_KeyCollection_System_Collections_IEnumerable_GetEnumerator_m2779004382_gshared
TPi:_List_1_System_Collections_Generic_ICollectionU3CTU3E_get_IsReadOnly_m2562366358_gshared
pcg:_RSASslSignatureFormatter__ctor_m1299283008
Ekd:__ZN11UnityEngine15PlatformWrapper18GetOperatingSystemEv
uqg:_SecurityFrame_ToString_m339310712
ede:__ZL54ThreadStart_t1006689297_CustomAttributesCacheGeneratorP21CustomAttributesCache
WZd:__ZL62ParamArrayAttribute_t3664765590_CustomAttributesCacheGeneratorP21CustomAttributesCache
PQc:__ZN8GUIStyle8TransferI8JSONReadEEvRT_
Qhj:_GUIStyleState_t1397964415_marshal_pinvoke
Idi:__Z49RuntimeInvoker_Char_t3634460470_Int16_t2552820387PFvvEPK10MethodInfoPvPS4_
xHi:_Array_Resize_TisVector4_t3319028937_m1507893064_gshared
Ylg:_SHA1Managed_HashFinal_m2365675383
jxd:_TouchInputModule_ProcessTouchPress_m3504077560
blj:_FieldWithTarget_get_typeString_m238478345
qYf:_Selectable_IsInteractable_m2611421038
t0c:_FT_MSB
gxh:_EqualityComparer_1_get_Default_m2572737998_gshared
xxk:_emscripten_glReadPixels__wrapper
yBh:_HashSet_1_Add_m1971460364_gshared
fik:__ZN6il2cpp6icalls8mscorlib4Mono8Security12Cryptography18KeyPairPersistence10_CanSecureEP12Il2CppString
Ubg:_MD4__ctor_m919379109
Qrj:__ZL25UnresolvedVirtualCall_183P12Il2CppObject20UIVertex_t4057497605PK10MethodInfo
Ach:_Array_InternalArray__ICollection_Contains_TisParameterModifier_t1461694466_m1000453323_gshared
l2d:__ZL57FieldAttributes_t400321159_CustomAttributesCacheGeneratorP21CustomAttributesCache
qth:_Dictionary_2_System_Collections_ICollection_CopyTo_m4047192178_gshared
MLj:__ZN6il2cpp2os4File11GetFileStatERKNSt3__212basic_stringIcNS2_11char_traitsIcEENS2_9allocatorIcEEEEPNS0_8FileStatEPi
BBi:__Z60RuntimeInvoker_DictionaryEntry_t3123975638_Int32_t2950945753PFvvEPK10MethodInfoPvPS4_
P4d:__ZL54IMessageCtrl_t317049502_CustomAttributesCacheGeneratorP21CustomAttributesCache
rhd:__ZN14UnityAnalytics22HandleCustomEventLimitERN11UnityEngine9Analytics15UserCustomEventE
etc:__ZN9TransformC2E10MemLabelId18ObjectCreationMode
aLb:__ZN13GfxDeviceGLES14SetRasterStateEPK17DeviceRasterState
pPe:_Assembly_ToString_m2053237013
wpb:__Z30TransferField_LinearCollectionI14SafeBinaryReadEvRK29SerializationCommandArgumentsR31RuntimeSerializationCommandInfo
HAf:_Vector4_Equals_m1779210055
WKg:_Exception_set_HResult_m3489164646
E2c:_otv_Coverage_get_count
RMd:_ParameterModifier_t1461694466_marshal_pinvoke_back
lsa:__ZN14SafeBinaryRead11EndTransferEv
Ezh:_EqualityComparer_1__cctor_m2741186979_gshared
RQ:__ZN20SoundChannelInstance19set3DMinMaxDistanceEff
hfe:__ZL70Uri_t100236324_CustomAttributesCacheGenerator_Uri_Unescape_m3373094076P21CustomAttributesCache
erj:__ZL25UnresolvedVirtualCall_145P12Il2CppObject19Vector2_t2156229523PK10MethodInfo
CXf:_ScrollRect_set_verticalNormalizedPosition_m1452826170
_ah:_Enum_System_IConvertible_ToUInt16_m4216751959
$ri:__Z61RuntimeInvoker_Boolean_t97287965_PlayableHandleU26_t645981773PFvvEPK10MethodInfoPvPS4_
dTb:__ZN21UniformBufferTFMethod13MapBoneBufferEj
Xkk:_StringExtension_Anagram_m968226828
Qkh:_Array_InternalArray__Insert_TisInt32_t2950945753_m4073217122_gshared
Nkg:_RNGCryptoServiceProvider_RngClose_m3915778345
d_g:_SortedList_Remove_m2784369438
ORa:__ZN4crnd12crn_unpacker10unpack_dxnEPPhjjj
N5g:_DateTime_get_Kind_m2154871796_AdjustorThunk
qEb:__ZN9TextAsset15ThreadedCleanupEv
L9i:_MatchCollection_get_SyncRoot_m1957585059
W8:__ZN14SerializedFileD2Ev
Maa:__Z21CompleteFenceInternalR8JobFence
lIc:__Z30Event_Get_Custom_PropModifiersP12Il2CppObject
sEi:__Z79RuntimeInvoker_RuntimeObject_OrderBlock_t1585977831_RuntimeObject_RuntimeObjectPFvvEPK10MethodInfoPvPS4_
uw:__ZN7mecanim9animation16CreateClipOutputEPKNS0_4ClipERNS_6memory9AllocatorE
$Vd:_SoapAttribute_SetReflectionObject_m4109300849
VTf:_RawImage_get_mainTexture_m2396337033
YLj:__ZN6il2cpp2vm10Reflection17GetAssemblyObjectEPK14Il2CppAssembly
Zug:_DecoderFallbackBuffer_Reset_m3069554060
ADb:__ZNSt3__218__stable_sort_moveIRN10vector_mapI17ScriptingClassPtrPKN5Unity4TypeENS_4lessIS2_EENS_9allocatorINS_4pairIS2_S6_EEEEE13value_compareENS_11__wrap_iterIPSB_EEEEvT0_SJ_T_NS_15iterator_traitsISJ_E15difference_typeEPNSM_10value_typeE
Qdc:__ZN6Shader21AwakeFromLoadThreadedEv
uha:__ZN6prcoreL17RemapGenericFloatI17TexFormatRGBFloat17TexFormatRGBAHalfEEvPKNS_9InnerInfoE
cnh:_BigInteger__ctor_m3991350270
_oc:__Z58Register_UnityEngine_PlayerConnectionInternal_PollInternalv
pLf:_Vector2_GetHashCode_m3916089713_AdjustorThunk
hqd:__ZN13RuntimeStaticINSt3__26vectorIjNS0_9allocatorIjEEEELb0EE16StaticInitializeEPv
j_:__ZN13UploadHandler10OnSentDataEj
ujk:__ZN6il2cpp2os9SemaphoreC2Eii
Rpb:__ZNSt3__26vectorI8MonoPPtr13stl_allocatorIS1_L18MemLabelIdentifier1ELi16EEE8__appendEj
JZb:__ZN14qsort_internal30FindAndMovePivotToLastPositionIP17RODataReplacementi19ROSorterReplacementEEvT_S4_T0_T1_
oTb:__ZN15UniformTFMethod20IsBoneCountSupportedEi
PGe:__ZL76StandardEventPayload_t1629891255_CustomAttributesCacheGenerator_m_ParametersP21CustomAttributesCache
PYh:_ReadOnlyCollection_1_System_Collections_IList_get_Item_m3076053687_gshared
OSh:_UnauthorizedAccessException__ctor_m246605039
Wvc:__Z12BuildTextureIA4_tPFvP9Texture2DPS0_iiiiEES2_PKcii13TextureFormatRKT0_17TextureColorSpaceb
Krk:dynCall_viidi
Uv:__ZN8Playable18OnApplicationPauseEb
dbf:_KeyCollection__ctor_m1356492051_gshared
S5:__ZN24ScriptingMethodFiltering17FilterOnSignatureENS_18MethodSearchFilterE
lhd:__ZNSt3__26__treeINS_12__value_typeIN4core12basic_stringIcNS2_20StringStorageDefaultIcEEEEN11UnityEngine9Analytics15UserCustomEvent11CustomValueEEENS_19__map_value_compareIS6_SB_NS_4lessIS6_EELb1EEE13stl_allocatorISB_L18MemLabelIdentifier6ELi16EEE7destroyEPNS_11__tree_nodeISB_PvEE
R$c:_cf2_arrstack_finalize
J7i:_X509Certificate_VerifySignature_m3538124832
vYg:_StreamAsyncResult_SetComplete_m1102187093
bGh:_List_1_Sort_m1293013666_gshared
Fuc:__ZN13MonoBehaviour19HandleNotificationsEPviR11MessageData
GGf:_RectOffset_Init_m2028508611
Vjk:__ZN6il2cpp2os9EventImpl5ResetEv
nSi:_List_1_Sort_m933660666_gshared
Ddg:_Alert__ctor_m3135936936
KSg:_Int64_System_IConvertible_ToInt32_m772105781
D4i:_TlsClientSettings__ctor_m3220697265
ZPj:__ZNK15dense_hashtableINSt3__24pairIK10KeyWrapperINS1_IPK9EventInfoP11Il2CppClassEEEjEES9_17ReflectionMapHashIS8_EN14dense_hash_mapIS9_jSD_NS9_14EqualsComparerINS0_8equal_toIS8_EEEENS0_9allocatorISB_EEE9SelectKeyESI_SK_E23find_position_with_hashERSA_j
Ucj:_CaptureAssertion_set_CapturingGroup_m2003123956
Wqd:__ZL45__ManagedRegistrationHelperFunction_SubsystemPv
Iti:__Z103RuntimeInvoker_Boolean_t97287965_RuntimeObject_Vector2_t2156229523_RuntimeObject_Vector2U26_t2376273893PFvvEPK10MethodInfoPvPS4_
Gsh:_Dictionary_2_make_pair_m2250450206_gshared
dIh:_ForwardingDecoder_GetChars_m4228908854
s8f:_InterpreterFactory_get_GroupCount_m2226373271
ruk:b53
ouk:b50
puk:b51
uuk:b56
vuk:b57
suk:b54
tuk:b55
Gs:__ZL45__ManagedRegistrationHelperFunction_HumanBonePv
vHh:_List_1_System_Collections_IList_get_IsReadOnly_m3531293387_gshared
tL:__ZN4PPtrI15AudioMixerGroupE8TransferI18StreamedBinaryReadILb0EEEEvRT_
Ylh:_SimpleCollator_IsSafe_m310268646
Sfh:_Array_InternalArray__IEnumerable_GetEnumerator_TisWorkRequest_t1354518612_m2622205355_gshared
UDg:_Byte_System_IConvertible_ToByte_m162267264_AdjustorThunk
Mxg:_X509Certificate_get_RawData_m2387471414
Zvk:_glDetachShader__wrapper
iCg:_ArrayTypeMismatchException__ctor_m3375008173
Mcf:_Transform_1_BeginInvoke_m1757796657_gshared
NTj:__ZNSt3__214__split_bufferINS_12basic_stringIcNS_11char_traitsIcEENS_9allocatorIcEEEERNS4_IS6_EEEC2EjjS8_
aCh:_KeyValuePair_2__ctor_m1794021352_AdjustorThunk
Ooa:__ZN9Scripting11UnityEngine7Hash12812CleanupProxyEv
Wtc:__ZN10GameObject12CleanupClassEv
zhb:__ZN9GfxDevice25SetShaderPropertiesSharedERK19ShaderPropertySheet
Bnd:__ZN11UnityEngine7Connect20RemoteConfigSettingsC2ERKN4core12basic_stringIcNS2_20StringStorageDefaultIcEEEEPFvPS1_E18ScriptingObjectPtr
Xxd:_BaseMeshEffect_get_graphic_m1852367505
SIg:_CaseInsensitiveHashCodeProvider_GetHashCode_m2168170016
aEb:__ZN10MonoScript17MainThreadCleanupEv
Tkb:__ZN18AsyncUploadManager19AsyncResourceUploadER9GfxDeviceii9TextureID
Upa:__ZN9Scripting11UnityEngine12Experimental18GlobalIllumination11LightDataGI12CleanupProxyEv
G4e:_InternalEnumerator_1_Dispose_m28687982_AdjustorThunk
Auc:__ZL25InitializeDefaultMaterialv
XSe:_FieldBuilder_get_Attributes_m1473479383
YGd:_PropertyBuilder_GetCustomAttributes_m3798356764
SVg:_Stream__ctor_m3881936881
VMd:_PropertyInfo_get_MemberType_m2794839864
Tab:__ZN19FileAccessorHandlerD2Ev
Fkj:_EventTrigger_RemoveRule_m1596811726
ZEh:_Enumerator_Dispose_m2367589020_AdjustorThunk
x7e:_Comparer_1_System_Collections_IComparer_Compare_m4179495191_gshared
Z7a:__ZN17PersistentManager12UnloadStreamERKN4core12basic_stringIcNS0_20StringStorageDefaultIcEEEEb
kfb:__ZN10MemoryFile4ReadEyyPvPy
kFi:_Array_InternalArray__Insert_TisUICharInfo_t75501106_m2924156520_gshared
Fyh:_EqualityComparer_1_System_Collections_IEqualityComparer_Equals_m3139704160_gshared
lih:_MonoProperty_GetterAdapterFrame_TisRuntimeObject_TisRuntimeObject_m458718082_gshared
CHi:_Array_Sort_TisInt32_t2950945753_TisInt32_t2950945753_m3955828611_gshared
vVj:_il2cpp_unity_liveness_calculation_from_statics
yxi:__Z70RuntimeInvoker_Boolean_t97287965_CharU26_t1697032762_Int16_t2552820387PFvvEPK10MethodInfoPvPS4_
eA:__ZNK26AnimatorControllerPlayable11DerivesFromE17ScriptingClassPtr
YVd:_SoapAttribute__ctor_m1857608874
N4e:_InternalEnumerator_1_System_Collections_IEnumerator_get_Current_m2649471526_gshared
Jxh:_EqualityComparer_1_System_Collections_IEqualityComparer_Equals_m3218482536_gshared
mVa:__ZN8Renderer8TransferI17RemapPPtrTransferEEvRT_
u4i:_InternalAsyncResult_get_AsyncState_m1436290550
Z7b:__ZN13RenderTexture16SetSRGBReadWriteEb
xPa:__ZN6prcore16BlitFuncInfoSIMD19BlitFuncExecuteSIMDEPKNS_9InnerInfoEPKv
Wod:__ZN20UnityWebRequestProtoI24UnityWebRequestTransport16AtomicRefCounter14RedirectHelper14ResponseHelper15DownloadHandler13UploadHandler18CertificateHandler12HeaderHelper14AsyncOperationE9DoRequestEv
x8e:_Enumerator_System_Collections_IDictionaryEnumerator_get_Entry_m522483686_gshared
$qh:_PrivateKeyInfo_RemoveLeadingZero_m3921889925
PLh:_Thread_get_CurrentContext_m1695017876
wS:__ZN9AudioClip20OnBeforeDomainUnloadEv
KLi:_Mesh_GetAllocArrayFromChannel_TisColor32_t2600501292_m3180365313_gshared
j8b:__Z24LookRotationToQuaternionRK8Vector3fS1_P11Quaternionf
h8b:__ZN16ReflectionProbes9GetCameraEv
V2b:__Z23CalculateLightOcclusionRK17LightProbeContextRK29LightProbeSamplingCoordinatesi
Vic:__ZL18IsGpuProgramUsable20ShaderGpuProgramTypePK6Shader
scd:__ZN2UI6Canvas17SetSortingLayerIDEi
dyd:_Button_get_onClick_m2332132945
y5j:__ZN6il2cpp2vm11MethodStack23CleanupForCurrentThreadEv
hCe:__ZL61Image_t2670269651_CustomAttributesCacheGenerator_m_FillMethodP21CustomAttributesCache
Tke:__ZL62EndGraphicsJobsLate_t3823419272_CustomAttributesCacheGeneratorP21CustomAttributesCache
q4g:_Convert_ToUInt64_m388601487
MFa:__ZN20TierGraphicsSettings8TransferI24GenerateTypeTreeTransferEEvRT_
UEj:__ZN15dense_hashtableINSt3__24pairIK10KeyWrapperIN6il2cpp5utils13dynamic_arrayIPK10Il2CppTypeLj4EEEEPFvvEEESA_NS3_8metadata19Il2CppSignatureHashEN14dense_hash_mapISA_SD_SG_NSA_14EqualsComparerINSF_22Il2CppSignatureCompareEEENS0_9allocatorISE_EEE9SelectKeyESK_SM_E16reset_thresholdsEv
MJf:_TouchScreenKeyboard_get_text_m1797464608
nNa:__ZN18UnityPropertySheet8TransferI19StreamedBinaryWriteILb0EEEEvRT_
ct:__ZN9Scripting11UnityEngine27AnimatorControllerParameter9InitProxyEv
$fa:__ZNSt3__26__treeINS_12__value_typeIiN11TypeManager18TypeCallbackStructEEENS_19__map_value_compareIiS4_NS_4lessIiEELb1EEENS_9allocatorIS4_EEE7destroyEPNS_11__tree_nodeIS4_PvEE
kEe:__ZL60Slider_t3903728902_CustomAttributesCacheGenerator_m_FillRectP21CustomAttributesCache
mBa:__ZN9ShaderLab32FindBestMatchingShaderKeywordSetERK16ShaderKeywordSetRK13dynamic_arrayIS0_Lj0EEPS5_
jxi:__Z71RuntimeInvoker_Void_t1185182177_CornerU26_t2243868623_Int32_t2950945753PFvvEPK10MethodInfoPvPS4_
cyf:_TextureMixerPlayable_Equals_m1074187513_AdjustorThunk
yzc:__ZNK14PlayableOutput23GetSourcePlayableUnsafeEv
zjd:__ZN11UnityEngine7Connect17XRDeviceInfoEventD0Ev
f5d:__ZL60SoapTypeAttribute_t1750930817_CustomAttributesCacheGeneratorP21CustomAttributesCache
CVe:_Action_3__ctor_m3820700807_gshared
WPe:_Binder_ConvertArgs_m2124461494
odc:__ZN21UnityDefaultAllocatorI17LowLevelAllocatorE10DeallocateEPv
$xk:b86
qke:__ZL63Physics2DFixedUpdate_t3234482501_CustomAttributesCacheGeneratorP21CustomAttributesCache
KH:__ZN15PackedIntVector8TransferI14SafeBinaryReadEEvRT_
DLf:_Vector3__ctor_m3353183577_AdjustorThunk
rZe:_InternalEnumerator_1_System_Collections_IEnumerator_get_Current_m1514266661_gshared
Tig:_PrivateKeySelectionCallback__ctor_m265141085
lcg:_MD5SHA1_Initialize_m675470944
gjh:_Array_InternalArray__ICollection_Add_TisKeyframe_t4206410242_m442111799_gshared
fRi:_List_1_CheckMatch_m3263549496_gshared
IEf:_PropertyNameUtils_PropertyNameFromString_Injected_m1259736140
P$h:_ReadOnlyCollection_1_System_Collections_IList_get_IsReadOnly_m2041535988_gshared
u7i:_X509Certificate_set_KeyAlgorithmParameters_m2010117999
jT:__ZN13AudioListener8DoUpdateEv
lLc:__ZN5Unity9rapidjson13GenericReaderINS0_4UTF8IcEES3_13JSONAllocatorE9ParseTrueILj1ENS0_25GenericInsituStringStreamIS3_EENS0_15GenericDocumentIS3_S4_S4_EEEEvRT0_RT1_
NJe:__Z13bankers_roundd
r2a:__ZN14SafeBinaryRead8TransferI5RectTIfEEEvRT_PKc17TransferMetaFlags
qi:_emscripten_glGenFramebuffers
Wfa:__ZN17BaseObjectManager16StaticInitializeEPv
taf:_Enumerator_MoveNext_m1127886695_gshared
oec:__ZNSt3__26vectorIN9ShaderLab26SerializedShaderDependencyENS_9allocatorIS2_EEE26__swap_out_circular_bufferERNS_14__split_bufferIS2_RS4_EE
EGh:_List_1_AddCollection_m4102468168_gshared
Ona:__ZN9Scripting11UnityEngine9Profiling8Profiler12CleanupProxyEv
Jta:__ZN9Behaviour23VirtualRedirectTransferER17RemapPPtrTransfer
Xgd:__ZN21UnityAnalyticsManager23VirtualRedirectTransferER19StreamedBinaryWriteILb0EE
HNc:__Z18Transfer_BlittableI9JSONWriteLb0EyEvRK29SerializationCommandArgumentsR31RuntimeSerializationCommandInfo
zKa:__ZN13RenderTexture15ThreadedCleanupEv
L3f:_X509BasicConstraintsExtension__ctor_m3721156175
tQa:__ZN12CubemapArray23VirtualRedirectTransferER14SafeBinaryRead
Jrj:__ZL25UnresolvedVirtualCall_176P12Il2CppObject25RaycastResult_t3360306849S1_PK10MethodInfo
zye:__ZL70EventSystem_t1003666588_CustomAttributesCacheGenerator_m_DragThresholdP21CustomAttributesCache
xw:__ZN21AnimationClipPlayable16ProcessHumanPassEPK35AnimationPlayableEvaluationConstantPK32AnimationPlayableEvaluationInputP33AnimationPlayableEvaluationOutput
QUg:_Path_GetFileName_m1354558116
LDc:__Z51Register_UnityEngine_QualitySettings_set_vSyncCountv
Wuk:_emscripten_glUniform3i__wrapper
tmh:_SimpleCollator_IsPrefix_m3581642267
oGf:_Rect_Contains_m1232228501_AdjustorThunk
Rlc:__Z43RectTransform_CUSTOM_INTERNAL_set_sizeDeltaP12Il2CppObjectRK13Vector2fIcall
TSg:_Int64_System_IConvertible_ToType_m3223988955_AdjustorThunk
m1j:__ZN15dense_hashtableINSt3__24pairIK10KeyWrapperINS1_IPKcS4_EEEiEES6_24NamespaceAndNamePairHashN14dense_hash_mapIS6_iS9_NS6_14EqualsComparerI26NamespaceAndNamePairEqualsEENS0_9allocatorIS8_EEE9SelectKeyESD_SF_E6insertERKS8_
$ta:__ZN24GenerateTypeTreeTransfer18BeginArrayTransferEPKcS1_Ri17TransferMetaFlags
dLi:_Array_InternalArray__get_Item_TisPlayableBinding_t354260709_m3837494573_gshared
pm:___syscall51
Ctg:_String_CreateString_m4016935005
H9i:_MatchCollection_get_FullList_m1829231879
tm:___syscall54
_Ag:_Array_GetValue_m2528415604
Q4d:__ZL55IMessageSink_t2514424906_CustomAttributesCacheGeneratorP21CustomAttributesCache
Vmg:_SymmetricAlgorithm_Clear_m3302238152
zHf:_Transform_INTERNAL_CALL_TransformPoint_m4261269221
cQg:_Guid_AppendShort_m791023083
Gze:__ZL109PointerEventData_t3807901092_CustomAttributesCacheGenerator_PointerEventData_get_eligibleForClick_m3788762543P21CustomAttributesCache
BRi:_List_1__ctor_m4212503576_gshared
t7c:_ft_var_get_item_delta
DIg:_BitArrayEnumerator_MoveNext_m3806676766
ZBd:_Dropdown_get_value_m1555353112
Q0c:_cff_builder_add_point1
v2j:__ZN6il2cpp2vm5Image21GetCachedResourceDataEPK11Il2CppImageRKNSt3__212basic_stringIcNS5_11char_traitsIcEENS5_9allocatorIcEEEE
zob:__Z18Transfer_BlittableI14SafeBinaryReadLb0E10ColorRGBAfEvRK29SerializationCommandArgumentsR31RuntimeSerializationCommandInfo
za:invoke_iiiiiiiiii
wwf:_DrivenRectTransformTracker_Clear_m371772582
sU:__ZN11AudioSource25GetNumExtensionPropertiesEv
skh:_Array_InternalArray__ICollection_CopyTo_TisUILineInfo_t4195266810_m104406798_gshared
KT:__ZNK7Texture10GetVRUsageEv
Msc:__ZZL31RegisterRectTransformPropertiesR22GenericPropertyBindingEN32Wrapper_RectTransformAnchorMaxx013GetFloatValueEPv
dvh:_DefaultComparer__ctor_m41012692_gshared
Pvf:_Debug_LogErrorFormat_m3558239521
RDd:_Graphic_get_canvas_m3320066409
NOf:_InputField_ActivateInputFieldInternal_m3360893886
TVi:_List_1_Insert_m1781696722_gshared
m2i:_RijndaelManagedTransform__ctor_m1033522223
wcc:__ZN10FileSystem19SetCurrentDirectoryERKN4core12basic_stringIcNS0_20StringStorageDefaultIcEEEE
Zuf:_Component_get_gameObject_m442555142
QJe:_Math_Log_m2526073084
ltc:__ZN23TransformChangeDispatch24RemovePermanentInterestsE15TransformAccessPKN5Unity4TypeE
LEc:__Z47Register_UnityEngine_Coroutine_ReleaseCoroutinev
CL:__ZN15AudioReverbZone13SetFMODValuesEv
b7:__ZN14SafeBinaryRead4InitERK16TypeTreeIteratorxx24TransferInstructionFlags10MemLabelId
H2:__ZL19StaticDestroyShaderPv
$d:_glRenderbufferStorageMultisample
uze:__ZL105PointerEventData_t3807901092_CustomAttributesCacheGenerator_PointerEventData_get_pointerEnter_m3901270554P21CustomAttributesCache
qB:__ZN23AnimationPlayableOutput17SetTargetAnimatorEP8Animator
A2d:__ZL62ParameterAttributes_t1826424051_CustomAttributesCacheGeneratorP21CustomAttributesCache
l0b:__ZN22MotionVectorRenderLoopD2Ev
Kqj:__ZL25UnresolvedVirtualCall_123P12Il2CppObjectiS0_S0_S0_PK10MethodInfo
rXg:_MemoryStream_get_CanRead_m1639425566
esf:_Debug_LogException_m2207318968
evg:_DecoderReplacementFallback_GetHashCode_m1611165826
DGd:_Image_get_minWidth_m755066479
$se:__ZL76AnimatorTransitionInfo_t2534804151_CustomAttributesCacheGenerator_m_FullPathP21CustomAttributesCache
yoe:__ZL99PlayableHandle_t1095853803_CustomAttributesCacheGenerator_PlayableHandle_GetPlayableType_m432385838P21CustomAttributesCache
pih:_Array_InternalArray__ICollection_Add_TisClientCertificateType_t1004704908_m2622721177_gshared
TH:__ZN17PackedFloatVector8TransferI18StreamedBinaryReadILb0EEEEvRT_
TQa:__ZN7Cubemap23VirtualRedirectTransferER17RemapPPtrTransfer
PGc:__Z37Register_UnityEngine_Screen_get_widthv
Gxj:_UnityAnalyticsHandler_SendCustomEvent_m1223269116
Wej:_Uri_get_Authority_m3816772302
Jkc:__ZN22BlockMemoryCacheWriter11GetPathNameEv
lag:_BigInteger_op_Division_m3713793389
FJf:_Touch_get_position_m3109777936
ZLd:_ParameterInfo__ctor_m3269320476
Xje:__ZL60ProcessRemoteInput_t950001846_CustomAttributesCacheGeneratorP21CustomAttributesCache
M6f:_X509SubjectKeyIdentifierExtension_FromHexChars_m3244835916
frg:_Single_CompareTo_m2785801815
aSh:_UInt64_System_IConvertible_ToInt32_m949522652_AdjustorThunk
s6i:_PKCS12_MAC_m3355614022
T4d:__ZL63IMethodReturnMessage_t3705538073_CustomAttributesCacheGeneratorP21CustomAttributesCache
Yo:stackAlloc
wfb:__ZN25SingleBlockMemoryFileData4LockEPPv
bcb:__ZN12HandlerChain5TouchER13FileEntryData
Byk:_glProgramParameteri__wrapper
er:__ZN17CallbackArrayBaseIPFvP10UnitySceneS1_EPFvPKvS1_S1_EE8RegisterES3_S7_S5_
t2h:_ReadOnlyCollection_1_System_Collections_Generic_ICollectionU3CTU3E_get_IsReadOnly_m1215739200_gshared
Wrf:_AnimationCurve_t3046754366_marshal_pinvoke
Vnc:__Z32RectOffset_Get_Custom_PropBottomP12Il2CppObject
Lvf:_Debug_LogError_m2850623458
Upj:__ZL24UnresolvedVirtualCall_79P12Il2CppObjectPK10MethodInfo
dec:__ZNSt3__26__treeINS_12__value_typeIN4core12basic_stringIcNS2_20StringStorageDefaultIcEEEE4PPtrI7TextureEEENS_19__map_value_compareIS6_SA_NS_4lessIS6_EELb1EEENS_9allocatorISA_EEE7destroyEPNS_11__tree_nodeISA_PvEE
Cmj:__ZN25GenericVirtActionInvoker1IP24SingleU5BU5D_t1444911251E6InvokeEPK10MethodInfoP12Il2CppObjectS1_
qni:__Z69RuntimeInvoker_UInt64_t4134040092_Int32_t2950945753_SByte_t1669577662PFvvEPK10MethodInfoPvPS4_
pFe:__ZL74LayoutElement_t1785403678_CustomAttributesCacheGenerator_m_PreferredHeightP21CustomAttributesCache
$mk:_stat
tBa:__ZN9ShaderLab10SubProgram7CompileEv
_Ri:_List_1_Contains_m353222571_gshared
RGd:_PropertyBuilder_get_CanRead_m3783190070
a9:__ZN14SerializedFile14SerializedTypeD2Ev
Hpa:__ZN9Scripting11UnityEngine12Experimental9Playables21TexturePlayableOutput9InitProxyEv
cfg:_CipherSuiteCollection_System_Collections_IList_get_Item_m2175128671
kya:__ZN6CameraD2Ev
iFc:__Z50Register_UnityEngine_Camera_get_pixelRect_Injectedv
la:invoke_iiiiiiiiiiii
t5g:_DateTime_System_IConvertible_ToType_m1242864300_AdjustorThunk
xgf:_ValueCollection_get_Count_m994935123_gshared
X3e:_InternalEnumerator_1_get_Current_m2446410893_AdjustorThunk
XCa:__Z29CalculateDefaultChannelsToAdd17ShaderChannelMaskS_
noe:__ZL89PlayableBinding_t354260709_CustomAttributesCacheGenerator_U3CstreamTypeU3Ek__BackingFieldP21CustomAttributesCache
RBg:_Array_Sort_m870838517
bUb:__ZNSt3__26__treeI20DeviceBlendStateGLES14MemoryCompLessI16DeviceBlendStateENS_9allocatorIS1_EEE7destroyEPNS_11__tree_nodeIS1_PvEE
svj:_CanvasRenderer_SetMaterial_m633746949
LP:__ZN10AudioMixer12RebindOutputEv
arj:__ZL25UnresolvedVirtualCall_141P12Il2CppObject19Vector2_t2156229523S0_PK10MethodInfo
LXj:__ZNK15dense_hashtableINSt3__24pairIK10KeyWrapperIP11Il2CppClassES4_EES5_N6il2cpp8metadata16SZArrayClassHashEN14dense_hash_mapIS5_S4_SA_NS5_14EqualsComparerINS9_19SZArrayClassCompareEEENS0_9allocatorIS7_EEE9SelectKeyESE_SG_E5beginEv
yZe:_InternalEnumerator_1__ctor_m819716934_gshared
RRf:_LayoutRebuilder_PerformLayoutControl_m4241054021
Zzj:__ZN6il2cpp2vm17SetupFieldsLockedEP11Il2CppClassRKNS_2os12FastAutoLockE
Zrf:_AnimationCurve__ctor_m1565662948
eQ:__ZN11AudioSourceD0Ev
YQb:__ZN18GlslGpuProgramGLES13SwitchProgramEj
NUb:__ZN20ArchiveStorageReaderC2E10MemLabelId
_di:__Z132RuntimeInvoker_Int32_t2950945753_RuntimeObject_Int32_t2950945753_Int32_t2950945753_RuntimeObject_Int32_t2950945753_Int32_t2950945753PFvvEPK10MethodInfoPvPS4_
egb:__ZN16MemoryFileSystem4NameEv
Xvd:_ButtonState__ctor_m1506593332
rVj:_il2cpp_gchandle_free
zDc:__Z13SetCopyBufferRKN4core12basic_stringIcNS_20StringStorageDefaultIcEEEE
zDh:_Enumerator_get_Current_m2468920150_AdjustorThunk
W4i:_TlsException__ctor_m818940807
Wxg:_X509CertificateEnumerator_System_Collections_IEnumerator_get_Current_m418791713
Dgd:__ZN14UnityAnalyticsD2Ev
Kmc:__Z42ScriptingGetComponentsOfTypeFromGameObjectRK26ScriptingGetComponentsArgs
mne:__ZL73ArgumentCache_t2187958399_CustomAttributesCacheGenerator_m_ObjectArgumentP21CustomAttributesCache
_se:__ZL65AnimatorTransitionInfo_t2534804151_CustomAttributesCacheGeneratorP21CustomAttributesCache
KIi:_Array_swap_TisRaycastResult_t3360306849_TisRaycastResult_t3360306849_m3400922624_gshared
qVc:__ZN9Scripting11UnityEngine21ControllerColliderHit9InitProxyEv
hpf:_CspParameters__ctor_m2741097571
sSe:_EnumBuilder_get_DeclaringType_m4266754303
KNa:__ZNSt3__27__sort4IRPFbRKNS_4pairIN9ShaderLab16FastPropertyNameEN18UnityPropertySheet11UnityTexEnvEEES8_EPS6_EEjT0_SD_SD_SD_T_
wbj:_Assertion_get_TrueExpression_m2743006331
P$c:_cf2_hintmap_build
pyj:_NativeHeaderAttribute_set_Header_m3310668383
mJf:_Texture_get_width_m888163864
ymc:__Z11StringToIntRKN4core16basic_string_refIcEE
M8c:_Line_Up
lHi:_Array_Resize_TisRaycastResult_t3360306849_m1277390301_gshared
ge:_emscripten_glBufferSubData
etg:_String_ReplaceUnchecked_m1381393810
Crh:_SymmetricTransform_CBC_m435753239
itb:__Z18Transfer_BlittableI17RemapPPtrTransferLb1EyEvRK29SerializationCommandArgumentsR31RuntimeSerializationCommandInfo
XEe:__ZL76ContentSizeFitter_t3850442145_CustomAttributesCacheGenerator_m_HorizontalFitP21CustomAttributesCache
C6e:_DefaultComparer_Compare_m3278268937_gshared
Sp:__Z17CalculateGlobalRS23TransformAccessReadOnly
vOj:__ZN24dense_hashtable_iteratorINSt3__24pairIK10KeyWrapperINS1_IPK10MethodInfoP11Il2CppClassEEEjEES9_17ReflectionMapHashIS8_EN14dense_hash_mapIS9_jSD_NS9_14EqualsComparerINS0_8equal_toIS8_EEEENS0_9allocatorISB_EEE9SelectKeyESI_SK_E30advance_past_empty_and_deletedEv
u9c:__Z56Register_UnityEngine_TextGenerator_GetCharactersInternalv
Egk:__ZNSt3__210__list_impIPN6il2cpp5utils10MemoryPool6RegionENS_9allocatorIS5_EEE5clearEv
gGb:__ZNK25PathNamePersistentManager24PathIDToPathNameInternalEi
$bb:__ZNK12HandlerChain7ToLocalERK13FileEntryDataRN4core12basic_stringIcNS3_20StringStorageDefaultIcEEEERyS9_
fqd:__ZN13RuntimeStaticINSt3__26vectorIN5physx25PxVehicleWheelQueryResultENS0_9allocatorIS3_EEEELb0EE16StaticInitializeEPv
agi:__Z38RuntimeInvoker_MemberTypes_t3790569052PFvvEPK10MethodInfoPvPS4_
V8a:__ZN22MemoryCacherReadBlocks14LockCacheBlockEjPPhS1_
wYg:_StreamAsyncResult_get_NBytes_m548041729
eTj:__ZN6il2cpp2vm14TypeNameParser17ParseAssemblyNameEv
TZa:__ZNK9GfxDevice26GetSinglePassStereoEyeMaskEv
Zvf:_DebugLogHandler_Internal_Log_m4175774469
QCj:__ZN15dense_hashtableINSt3__24pairIK10KeyWrapperIP9FieldInfoEiEES5_N6il2cpp5utils11PointerHashIS3_EEN14dense_hash_mapIS5_iSB_NS5_14EqualsComparerINS0_8equal_toIS4_EEEENS0_9allocatorIS7_EEE9SelectKeyESG_SI_E13set_empty_keyERKS7_
qak:__ZN4utf88internal15increase_safelyIPKcEENS0_9utf_errorERT_S5_
Cge:__ZL66StaticAccessorAttribute_t2432663902_CustomAttributesCacheGeneratorP21CustomAttributesCache
Opg:_SecurityContext_get_CompressedStack_m3401528670
TFg:_CharEnumerator_get_Current_m525608209
M0e:_InternalEnumerator_1_Dispose_m887344916_AdjustorThunk
Osd:__Z21ArrayElementTypeCheckP11Il2CppArrayPv
Hxk:_emscripten_glTexSubImage2D__wrapper
sWa:__ZN18StreamedBinaryReadILb0EE21TransferSTLStyleArrayI13dynamic_arrayI33EnlightenTerrainChunksInformationLj0EEEEvRT_17TransferMetaFlags
F$d:__ZL69DebuggerBrowsableAttribute_t1026244177_CustomAttributesCacheGeneratorP21CustomAttributesCache
ula:__ZL48__ManagedRegistrationHelperFunction_LightmapDataPv
Tok:__ZNSt3__212basic_stringIcNS_11char_traitsIcEENS_9allocatorIcEEE6appendEjc
qDb:__Z13TransferFieldI18StreamedBinaryReadILb0EELb0E16Converter_StringEvRK23StaticTransferFieldInfoR31RuntimeSerializationCommandInfoRT1_
mdd:__Z42Register_UnityEngine_Canvas_get_rootCanvasv
W9d:__ZL78Convert_t2465617642_CustomAttributesCacheGenerator_Convert_ToBoolean_m40300963P21CustomAttributesCache
Opb:__Z14resize_trimmedINSt3__26vectorI8MonoPPtr13stl_allocatorIS2_L18MemLabelIdentifier1ELi16EEEEEvRT_j
Pe:_TTF_RenderText_Solid
vsf:__ZN23InterfaceActionInvoker3IP8String_tS1_iE6InvokeEjP11Il2CppClassP12Il2CppObjectS1_S1_i
hHh:_List_1__ctor_m3947764094_gshared
MXc:__ZN20TextRenderingPrivate21TextMeshGeneratorImpl5FlushEv
Ndj:_Parser_IsIgnorePatternWhitespace_m2107132682
ohd:__ZN14UnityAnalytics15Internal_CreateE18ScriptingObjectPtr
K0f:_HttpRequestCreator_Create_m400548686
Cnd:__ZN11UnityEngine7Connect16PersistentValuesC2Ev
Nji:__Z49RuntimeInvoker_RuntimeObject_StringU26_t181565287PFvvEPK10MethodInfoPvPS4_
u1h:_ReadOnlyCollection_1_System_Collections_IList_Insert_m134149130_gshared
lNc:__Z18Transfer_BlittableI9JSONWriteLb0E5RectTIiEEvRK29SerializationCommandArgumentsR31RuntimeSerializationCommandInfo
gnh:_BigInteger_get_Rng_m4216817480
qdh:_Array_InternalArray__ICollection_Remove_TisDateTime_t3738529785_m2250893026_gshared
h7d:__ZL67RijndaelManagedTransform_t4102601014_CustomAttributesCacheGeneratorP21CustomAttributesCache
bRb:__Z15IsIEEE754Format14GraphicsFormat
x9:__ZL12CreateStringPjR13dynamic_arrayIcLj0EEPKc
wtb:__Z19TransferField_ArrayI17RemapPPtrTransfer27Converter_UnityEngineObjectEvRK23StaticTransferFieldInfoR31RuntimeSerializationCommandInfoRT0_
CJg:_KeyNotFoundException__ctor_m541499307
Kba:__ZN13RuntimeStaticINSt3__23mapIN4core12basic_stringIcNS2_20StringStorageDefaultIcEEEES6_NS0_4lessIS6_EE13stl_allocatorINS0_4pairIKS6_S6_EEL18MemLabelIdentifier13ELi16EEEELb0EE16StaticInitializeEPv
Oeh:_SetPropertyUtility_SetStruct_TisSpriteState_t1362986479_m665096788_gshared
uei:__Z61RuntimeInvoker_Single_t1397266774_RuntimeObject_RuntimeObjectPFvvEPK10MethodInfoPvPS4_
g9i:_Enumerator__ctor_m1228633090
wdh:_Array_InternalArray__ICollection_Remove_TisIntPtr_t_m3807208150_gshared
fqi:__Z71RuntimeInvoker_Void_t1185182177_Vector3_t3722313464_Vector3_t3722313464PFvvEPK10MethodInfoPvPS4_
v0e:_InternalEnumerator_1_get_Current_m2316281569_AdjustorThunk
E0g:_DateTime__ctor_m1095105629
bMb:__ZN13GfxDeviceGLES15UploadTexture2DE9TextureID16TextureDimensionPKhiii14GraphicsFormati18TextureUploadFlags16TextureUsageMode
Cfj:_Event_Cleanup_m2477919477
CO:__ZN4FMOD6System9createDSPEP20FMOD_DSP_DESCRIPTIONPPNS_3DSPE
q9d:__ZL87Thread_t2300836069_CustomAttributesCacheGenerator_Thread_GetCompressedStack_m2923422412P21CustomAttributesCache
AIf:_HitInfo_t3229609740_marshal_pinvoke_back
nkg:_SslClientStream_get_ClientCertificates_m998716871
uQd:__ZN21InterfaceFuncInvoker0IP8String_tE6InvokeEjP11Il2CppClassP12Il2CppObject
MM:__ZN4FMOD8ChannelI11EndCallbackEv
JJc:__ZN8GUIStyle14SetDefaultFontEPN13TextRendering4FontE
NMi:_List_1_ToArray_m2860284581_gshared
uTa:__ZN15QualitySettings23VirtualRedirectTransferER24GenerateTypeTreeTransfer
Elf:_ObjectReader_ReadValue_m3145979203
eK:__ZN9Scripting11UnityEngine24AssetBundleCreateRequest9InitProxyEv
Myd:_CanvasScaler_OnDisable_m3424669401
dff:_Transform_1_BeginInvoke_m500585065_gshared
xEc:__Z59Register_UnityEngine_MonoBehaviour_Internal_CancelInvokeAllv
tDe:__ZL68Scrollbar_t1494447233_CustomAttributesCacheGenerator_m_NumberOfStepsP21CustomAttributesCache
lWf:_ScrollRect_set_content_m321343743
hDj:__ZN30dense_hashtable_const_iteratorINSt3__24pairIK10KeyWrapperIPK19Il2CppGenericMethodEPK26Il2CppGenericMethodIndicesEES6_N6il2cpp8metadata23Il2CppGenericMethodHashEN14dense_hash_mapIS6_SA_SE_NS6_14EqualsComparerINSD_26Il2CppGenericMethodCompareEEENS0_9allocatorISB_EEE9SelectKeyESI_SK_EppEv
KYc:_UNITY_FT_Request_Metrics
hKa:__ZN7Texture8TransferI18StreamedBinaryReadILb0EEEEvRT_
h0j:__ZN6il2cpp6icalls8mscorlib6System10Reflection10MonoMethod29get_IsGenericMethodDefinitionEP22Il2CppReflectionMethod
QWj:__ZN6il2cpp2vm6Thread21AllocThreadStaticDataEi
_xe:__ZL63AnalyticsSessionState_t681173134_CustomAttributesCacheGeneratorP21CustomAttributesCache
COg:_NumberFormatInfo_get_PercentNegativePattern_m1304634118
bEa:__ZL12CopyChannelsj17ShaderChannelMaskRA4_K10StreamInfoRA12_K11ChannelInfoPKhS3_S7_Ph
YPe:_Default_SelectMethod_m469311730
ezf:_Input_get_mousePosition_m1616496925
A9j:__ZN30dense_hashtable_const_iteratorINSt3__24pairIK10KeyWrapperIPK19Il2CppGenericMethodEP10MethodInfoEES6_N6il2cpp8metadata23Il2CppGenericMethodHashEN14dense_hash_mapIS6_S9_SD_NS6_14EqualsComparerINSC_26Il2CppGenericMethodCompareEEENS0_9allocatorISA_EEE9SelectKeyESH_SJ_EppEv
LRh:_UInt32_ToString_m2066897296_AdjustorThunk
A9a:__ZN24GenerateTypeTreeTransfer19TransferSTLStyleMapINSt3__23mapI4PPtrI6ShaderEN4core12basic_stringIcNS6_20StringStorageDefaultIcEEEENS1_4lessIS5_EENS1_9allocatorINS1_4pairIKS5_SA_EEEEEEEEvRT_17TransferMetaFlags
TJg:_Enumerator_Reset_m4274366540
KMc:__Z18Transfer_BlittableI9JSONWriteLb0E8Vector3fEvRK29SerializationCommandArgumentsR31RuntimeSerializationCommandInfo
oca:__ZN13RuntimeStaticI17UniqueIDGeneratorLb0EE13StaticDestroyEPv
Of:_emscripten_glUniform4i
Ure:__ZL103Transform_t3600365921_CustomAttributesCacheGenerator_Transform_INTERNAL_CALL_TransformPoint_m4261269221P21CustomAttributesCache
FCf:_PlayerConnection_RegisterDisconnection_m2618599213
_e:_emscripten_glUniform4f
wj:___unlock
w4i:_TlsCipherSuite_ComputeServerRecordMAC_m3941098609
O1c:_otv_validate
Sac:__ZN13sorted_vectorINSt3__24pairIN4core12basic_stringIcNS2_20StringStorageDefaultIcEEEES6_EEN10vector_mapIS6_S6_27compare_tstring_insensitiveIS6_E13stl_allocatorIS7_L18MemLabelIdentifier38ELi16EEE13value_compareESD_E9erase_oneIS6_EEjRKT_
svh:_DefaultComparer__ctor_m963958896_gshared
cog:_X509Certificate_Equals_m3784196370
lVi:_List_1__ctor_m3376067838_gshared
PQ:__ZN20SoundChannelInstance19setReverbPropertiesEP29FMOD_REVERB_CHANNELPROPERTIES
rEh:_Enumerator_MoveNext_m1446151600_gshared
Slg:_SHA1Internal_ProcessFinalBlock_m1403775421
jxe:__ZL87Canvas_t3310196443_CustomAttributesCacheGenerator_Canvas_get_sortingLayerID_m3685979122P21CustomAttributesCache
NWi:_Queue_1_System_Collections_ICollection_CopyTo_m3452613063_gshared
oce:__ZL69Math_t1671470975_CustomAttributesCacheGenerator_Math_Sqrt_m1297338011P21CustomAttributesCache
Dqc:__Z40Register_UnityEngine_Transform_IsChildOfv
Qif:_RemotingServices_GetOrCreateClientIdentity_m648299611
Z5e:_InternalEnumerator_1_get_Current_m2356858238_AdjustorThunk
Loc:__Z45Register_UnityEngine_Display_GetSystemExtImplv
prh:_RSAManaged_ImportParameters_m1844641996
U1d:__ZL67AssemblyProductAttribute_t1000945320_CustomAttributesCacheGeneratorP21CustomAttributesCache
nkb:__ZN9GfxDevice31DrawIndexedNullGeometryIndirectE16GfxPrimitiveTypeP9GfxBuffer15ComputeBufferIDj
E8e:_Enumerator_System_Collections_IDictionaryEnumerator_get_Value_m3325938730_AdjustorThunk
yx:__ZN7mecanim9animation23TransformValuesFromClipEiiiRKNS_10ValueArrayERKNS0_10ClipOutputERKNS0_12ClipBindingsERS1_RNS_14ValueArrayMaskEb
gFa:__ZN14SafeBinaryRead21TransferSTLStyleArrayI13dynamic_arrayI21PlatformShaderDefinesLj0EEEEvRT_17TransferMetaFlags
GGi:_Array_qsort_TisOrderBlock_t1585977831_TisOrderBlock_t1585977831_m1675918557_gshared
rUc:__GLOBAL__sub_I_Runtime_Dynamics_0_cpp
ugf:_ValueCollection_System_Collections_ICollection_get_SyncRoot_m1114275063_gshared
kxj:__ZL17log2withScale_128yyi
UPg:_Guid_Equals_m1866984197
Kgd:__ZN14UnityAnalytics19ConfigChangedStaticEPS_RKN4core12basic_stringIcNS1_20StringStorageDefaultIcEEEER8JSONReadb
o9e:_Enumerator__ctor_m65667165_gshared
LOe:_PlatformNotSupportedException__ctor_m1787918017
Lda:__ZN13RuntimeStaticI15DirectorManagerLb0EE16StaticInitializeEPv
q_h:_ReadOnlyCollection_1_System_Collections_ICollection_CopyTo_m2643246984_gshared
r1a:__ZN11TimeManager6UpdateEv
hFh:_Enumerator_System_Collections_IEnumerator_get_Current_m209407522_gshared
hnf:_StreamingContext_GetHashCode_m2281950854_AdjustorThunk
jYe:_InternalEnumerator_1__ctor_m619554185_AdjustorThunk
Fyd:_CanvasScaler_get_fallbackScreenDPI_m2811935689
Er:__ZNK16ParentConstraint18GetTranslationAxisEv
zjf:_WellKnownServiceTypeEntry_get_ObjectUri_m560402900
YLg:_DateTimeFormatInfo_ReadOnly_m890935083
r0h:_ReadOnlyCollection_1_System_Collections_ICollection_get_SyncRoot_m1280260618_gshared
LQf:_LayoutElement_set_preferredHeight_m1999633022
gnk:_fflush
h7a:__ZN17LightProbeContext4InitERK16LightmapSettingsRK14RenderSettings
dhi:__Z82RuntimeInvoker_Int32_t2950945753_RuntimeObject_Int32_t2950945753_SByte_t1669577662PFvvEPK10MethodInfoPvPS4_
K3b:__ZN18DeferredRenderLoop14RenderLightingER21ActiveLightingContextP13RenderTexture9TextureIDPS3_iRK8Vector4fRK14LightingLayersR10MinMaxAABBb12ObjectHandleI17RenderSurface_TagP17RenderSurfaceBaseE
hIf:_SceneManager_Internal_ActiveSceneChanged_m3676176255
M7i:_X509Certificate_GetIssuerName_m1142198382
udj:_ExpressionAssertion_set_Negate_m1236561973
U9g:_Double_System_IConvertible_ToInt16_m3591921965
bZa:__ZN9Texture3DD2Ev
rUh:_Collection_1_set_Item_m4280581817_gshared
WFd:_Image_get_fillMethod_m1027254375
Tya:__ZN10ColorRGBAf8TransferI19StreamedBinaryWriteILb0EEEEvRT_
W8d:__ZL97CompressedStack_t1202932761_CustomAttributesCacheGenerator_CompressedStack_CreateCopy_m2591279216P21CustomAttributesCache
U$g:_Convert_ToChar_m2796006345
jFi:_Array_InternalArray__Insert_TisContentType_t1787303396_m3566390691_gshared
t5j:__ZNSt3__26vectorI20Il2CppStackFrameInfoNS_9allocatorIS1_EEE7reserveEj
Wba:__ZN5CacheD2Ev
hHg:_ArrayListWrapper_GetEnumerator_m2336495952
p6b:__Z34ProcessIndexListIsNodeVisibleStep2RK22SceneCullingParametersPK9SceneNodePK4AABBR9IndexList
_Db:__ZN10MonoScriptD2Ev
moa:__ZN9Scripting11UnityEngine10Networking16PlayerConnection16PlayerConnection12CleanupProxyEv
Jia:__ZN6prcoreL12RemapGenericI17TexFormatARGB888817TexFormatBGRA8888EEvPKNS_9InnerInfoE
HTb:__ZN19ConstantBuffersGLES8UpdateCBE5CbKeyPKvj
myd:_U3COnFinishSubmitU3Ec__Iterator0_System_Collections_Generic_IEnumeratorU3CobjectU3E_get_Current_m2586882303
Qmj:_AudioSource_get_spatializeInternal_m2117549793
crc:__Z39Input_CUSTOM_INTERNAL_get_mousePositionP8Vector3f
Zlf:_SerializationCallbacks_GetMethodsByAttribute_m2095490433
s4c:_tt_cmap13_char_next
Bye:__ZL117EventSystem_t1003666588_CustomAttributesCacheGenerator_EventSystem_t1003666588____lastSelectedGameObject_PropertyInfoP21CustomAttributesCache
xWb:__ZN9ShaderLab4Pass16SetupPassOptionsEv
SUi:_List_1_GetIndex_m1042356532_gshared
ch:_JS_Sound_ReleaseInstance
ZVj:_il2cpp_type_equals
wPg:_Guid_CheckArray_m921056615
gRd:_ConfigHandler_ReadLifetine_m208994800
Y9e:_Enumerator_System_Collections_IDictionaryEnumerator_get_Entry_m3417028588_AdjustorThunk
aOj:__ZNK15dense_hashtableINSt3__24pairIK10KeyWrapperINS1_IPK10MethodInfoP11Il2CppClassEEEjEES9_17ReflectionMapHashIS8_EN14dense_hash_mapIS9_jSD_NS9_14EqualsComparerINS0_8equal_toIS8_EEEENS0_9allocatorISB_EEE9SelectKeyESI_SK_E12test_deletedEj
IYj:__ZN6il2cpp6icalls8mscorlib6System7Runtime15InteropServices7Marshal19copy_from_unmanagedEiiP11Il2CppArrayi
_Ph:_UInt16_System_IConvertible_ToByte_m3185614807_AdjustorThunk
Zjg:_SecurityParameters_set_ServerWriteMAC_m3003817350
Lmf:_SerializationEntry_get_Value_m2039470570
UFf:_Rect_get_max_m350137314_AdjustorThunk
Dm:FUNCTION_TABLE_diddi
f_j:__ZN6il2cpp6icalls8mscorlib6System5Array8FastCopyEP11Il2CppArrayiS5_ii
rKj:__ZNSt3__26vectorIPK10MethodInfoNS_9allocatorIS3_EEE21__push_back_slow_pathIRKS3_EEvOT_
ayi:__Z54RuntimeInvoker_Boolean_t97287965_LabelFixup_t858502054PFvvEPK10MethodInfoPvPS4_
jbd:__ZNK2UI14CanvasRenderer22GetTypeVirtualInternalEv
VSi:_List_1_Clear_m2244610185_gshared
ioc:__Z42Register_UnityEngine_RectOffset_get_bottomv
m0d:__ZL55BinaryReader_t2428077293_CustomAttributesCacheGeneratorP21CustomAttributesCache
Jmk:_newlocale
tOe:_ObjectDisposedException_get_Message_m1666887471
Drb:__ZN9BoundsInt8TransferI14SafeBinaryReadEEvRT_
C$b:__Z20DoDeferredRenderLoopRK17RenderLoopContextR13dynamic_arrayI16RenderObjectDataLj0EES5_RK11CullResultsRP13RenderTextureSB_Pb
Kvk:_emscripten_glUniform1f__wrapper
Pqk:dynCall_di
Nxg:_X509Certificate_get_SubjectName_m3160893681
o6a:__ZN21EnlightenSceneMapping6AppendEiRKS_
Kwf:_BaseInvokableCall_AllowInvoke_m878393606
sMc:__Z28RegisterModule_JSONSerializev
$id:__ZThn1168_N18UnityConnectClientD1Ev
rwf:_DisplaysUpdatedDelegate__ctor_m2116638722
_Tc:__ZL57__ManagedRegistrationHelperFunction_CachedContactPoints2DPv
W9a:__ZN2UI13RectTransform8TransferI14SafeBinaryReadEEvRT_
DNc:__Z35Transfer_Blittable_FixedBufferFieldI9JSONWriteaEvRK29SerializationCommandArgumentsR31RuntimeSerializationCommandInfo
Zsf:_Behaviour_get_enabled_m753527255
gpc:__Z20IsHumanControllingUsv
Uff:_Enumerator_MoveNext_m181298207_gshared
xCi:__Z44RuntimeInvoker_ParameterModifier_t1461694466PFvvEPK10MethodInfoPvPS4_
s1:__ZNK20DynamicHeapAllocatorI17LowLevelAllocatorE10GetPtrSizeEPKv
Fwb:__Z18Transfer_BlittableI19StreamedBinaryWriteILb0EELb1EtEvRK29SerializationCommandArgumentsR31RuntimeSerializationCommandInfo
zVi:_List_1_System_Collections_IList_get_IsReadOnly_m3278465421_gshared
g0d:__ZL51TextInfo_t3810425522_CustomAttributesCacheGeneratorP21CustomAttributesCache
tmc:__ZN10systeminfo21GetPersistentDataPathEv
_id:__ZThn1168_N18UnityConnectClient18OnAdsIdRequestDoneERKN4core12basic_stringIcNS0_20StringStorageDefaultIcEEEEbS6_
Fij:_SymmetricTransform_get_KeepLastBlock_m2492071306
ALb:__ZN13GfxDeviceGLES17DestroyGpuProgramEPK10GpuProgram
hGi:_Array_InternalArray__set_Item_TisRaycastResult_t3360306849_m730888808_gshared
Ynb:__Z44InitializeTransferFunctionScriptingTraitsForI18StreamedBinaryReadILb0EEEvR31TransferFunctionScriptingTraits
vff:_Enumerator_System_Collections_IEnumerator_Reset_m53411943_gshared
W1b:__ZNSt3__218__insertion_sort_3IR23CompareReflectionProbesP31RuntimeReflectionProbeBlendInfoEEvT0_S5_T_
Gtb:__ZN12NativeBufferI27Converter_SimpleNativeClassI8GradientEE15SetupForWritingER9ArrayInfo
Onh:_Kernel_RightShift_m2207393597
Gga:__ZNSt3__213__stable_sortIRNS_4lessIN4core12basic_stringIcNS2_20StringStorageDefaultIcEEEEEENS_11__wrap_iterIPS6_EEEEvT0_SC_T_NS_15iterator_traitsISC_E15difference_typeEPNSF_10value_typeEi
rGe:__ZL48Shadow_t773074319_CustomAttributesCacheGeneratorP21CustomAttributesCache
K2:__ZN12_GLOBAL__N_113StaticDestroyEPv
cJc:__ZNK8GUIStyle4DrawER8GUIStateRK5RectTIfER10GUIContentbbbb
uAk:_glUnmapBuffer__wrapper
def:_Transform_1__ctor_m3369371265_gshared
kRc:__ZN8JSONRead21TransferSTLStyleArrayINSt3__26vectorI8Gradient13stl_allocatorIS3_L18MemLabelIdentifier1ELi16EEEEEEvRT_17TransferMetaFlags
s3a:__ZNSt3__218__insertion_sort_3IRNS_6__lessINS_4pairIPKN5Unity4TypeE7Hash128EES8_EEPS8_EEvT0_SC_T_
QNf:_InputField_set_onValueChanged_m3658917578
ovb:__ZN10RectOffset8TransferI24GenerateTypeTreeTransferEEvRT_
I4i:_TlsClientSettings_get_ClientCertificate_m3139459118
bUg:_BinaryReader__ctor_m2266204403
$pa:__ZN9Scripting11UnityEngine6Events14UnityEventBase9InitProxyEv
_Ch:_Enumerator_VerifyState_m3047769867_AdjustorThunk
Aub:__Z18Transfer_BlittableI24GenerateTypeTreeTransferLb1E5RectTIiEEvRK29SerializationCommandArgumentsR31RuntimeSerializationCommandInfo
P9i:_Enumerator_System_Collections_IEnumerator_Reset_m24787251
ubd:__ZN2UI13CanvasManager19RemoveDirtyRendererEPNS_6CanvasEPNS_14CanvasRendererE
Llk:_isspace
Njf:_BinaryFormatter__ctor_m2620705134
uHb:__Z15GetIApplicationv
qkd:__ZN11UnityEngine15PlatformWrapper25GetGraphicsRendererStringEv
YJh:_UTF7Encoding_InternalGetBytes_m797138468
Hsc:__ZZL31RegisterRectTransformPropertiesR22GenericPropertyBindingEN39Wrapper_RectTransformAnchoredPositiony113SetFloatValueEPvf
W$:__ZN11UnityEngine15CloudWebService17WebFileDownloaderINS0_20WebRequestRestClientENS0_23WebRequestRestHeaderMapEED2Ev
Nb:invoke_vi
tyg:_SmallXmlParser_HandleWhitespaces_m549588711
Lb:invoke_vd
Gya:__ZNK6Camera19GetStereoViewMatrixE15StereoscopicEye
D9i:_Regex_get_RightToLeft_m2317867572
xaa:__ZNK10GameObject8IsActiveEv
GGc:__Z34Component_Get_Custom_PropTransformP12Il2CppObject
lxe:__ZL83Canvas_t3310196443_CustomAttributesCacheGenerator_Canvas_get_rootCanvas_m3165691493P21CustomAttributesCache
Owe:__ZL67g_UnityEngine_PhysicsModule_Assembly_CustomAttributesCacheGeneratorP21CustomAttributesCache
B7i:_X509Certificate_get_SignatureAlgorithm_m122054440
PQb:__ZN18GfxFramebufferGLES23SetupDefaultFramebufferEPP17RenderSurfaceBaseS2_N2gl6HandleILNS3_10ObjectTypeE9EEE
BZh:_ReadOnlyCollection_1_get_Item_m3437922467_gshared
wBd:_DefaultControls_CreateDropdown_m3286664171
XYa:__ZN13ScreenManager18RequestOrientationE17ScreenOrientation
wAj:__ZN6il2cpp2vm5Class12SetupMethodsEP11Il2CppClass
_Bc:__Z39DeleteLastPathNameComponentWithAnySlashRKN4core12basic_stringIcNS_20StringStorageDefaultIcEEEE
rKc:__ZN10GUIManager14InitGUIManagerEv
Opi:__Z77RuntimeInvoker_Void_t1185182177_RegexOptionsU26_t1638284957_SByte_t1669577662PFvvEPK10MethodInfoPvPS4_
FFe:__ZL78LayoutRebuilder_t541313304_CustomAttributesCacheGenerator_U3CU3Ef__amU24cache1P21CustomAttributesCache
XKj:__ZNSt3__26vectorIP11Il2CppClassNS_9allocatorIS2_EEE26__swap_out_circular_bufferERNS_14__split_bufferIS2_RS4_EE
AQh:_UInt16_Equals_m642257745
AAg:_Array_System_Collections_IList_IndexOf_m3301661616
zPe:_AssemblyFileVersionAttribute__ctor_m3720707642
vMf:_WaitForSeconds__ctor_m2199082655
tOd:_RuntimeResourceSet_CloneDisposableObjectIfPossible_m2725520898
_qf:_HMACSHA384_set_ProduceLegacyHmacValues_m76936446
NJc:__Z37Register_UnityEngine_GUIStyle_Cleanupv
Ka:invoke_iiifii
sFc:__Z26Mesh_CUSTOM_SetIndicesImplP12Il2CppObjecti16GfxPrimitiveTypeP11Il2CppArrayihi
GYf:_SliderEvent__ctor_m3149452941
Exg:_DeriveBytes__cctor_m1212925033
oxd:_UIBehaviour_OnDestroy_m1613239498
Rtc:__ZN8GUILayer12AddToManagerEv
fEd:_Graphic_OnDisable_m1097930217
KKj:__ZN6il2cpp6icalls8mscorlib6System8MonoType13IsPointerImplEP20Il2CppReflectionType
Pi:_emscripten_glFramebufferRenderbuffer
S4b:__ZN19CullingGroupManager17CullAndSendEventsERK22SceneCullingParametersiRK13CullingOutputRK8JobFence
wQd:__ZN21InterfaceFuncInvoker3IP12Il2CppObjectP8String_tS1_PS3_E6InvokeEjP11Il2CppClassS1_S3_S1_S4_
gwj:_AnimationLayerMixerPlayable_GetHandle_m3854437798_AdjustorThunk
JNi:_List_1_ToArray_m2949058867_gshared
Are:__ZL98DataUtility_t2196215967_CustomAttributesCacheGenerator_DataUtility_Internal_GetMinSize_m2628270685P21CustomAttributesCache
_wa:__ZN9Transform30EnsureTransformHierarchyExistsEv
vOh:_Type_FilterName_impl_m2651733559
MV:__ZN11AudioModule26SetDefaultMicrophoneDriverEPv
qAh:_GenericEqualityComparer_1_GetHashCode_m457148860_gshared
kth:_Dictionary_2_System_Collections_Generic_ICollectionU3CSystem_Collections_Generic_KeyValuePairU3CTKeyU2CTValueU3EU3E_Add_m1448015620_gshared
xpc:__Z46Register_UnityEngine_Application_get_isPlayingv
pWh:_Collection_1_ClearItems_m2182923889_gshared
bDc:__ZN13MonoBehaviour13StopCoroutineEPKc
Eac:__ZNSt3__26vectorINS_4pairIN4core12basic_stringIcNS2_20StringStorageDefaultIcEEEEPK17MessageIdentifierEENS_9allocatorISA_EEE12__move_rangeEPSA_SE_SE_
KZb:__ZN14qsort_internal17MedianOfThreeSwapIP17RODataReplacement19ROSorterReplacementEEvT_S4_S4_T0_
esg:_String_Split_m3646115398
KGf:_RectOffset_ToString_m2007443979
mzj:__ZNK15dense_hashtableINSt3__24pairIK10KeyWrapperIPK22Il2CppGenericParameterEP11Il2CppClassEES6_N6il2cpp5utils11PointerHashIS4_EEN14dense_hash_mapIS6_S9_SE_NS6_14EqualsComparerINS0_8equal_toIS5_EEEENS0_9allocatorISA_EEE9SelectKeyESJ_SL_E3endEv
Cvb:__Z29Transfer_Blittable_ArrayFieldI24GenerateTypeTreeTransfer11ColorRGBA32EvRT_R9ArrayInfoRK23StaticTransferFieldInfo
Fdb:__ZN17ArchiveFileSystem10ToAbsoluteEPKc
Mxc:__Z13RegisterClassI11PreloadDataEvPKc
aFc:__Z35Camera_CUSTOM_RaycastTry2D_InjectedP12Il2CppObjectRK3Rayfi
ald:__ZN19UnityConnectService15GetPlayerUserIdEv
Ehh:_Array_InternalArray__IndexOf_TisSByte_t1669577662_m4156538463_gshared
DC:__ZN7mecanim6CRCKeyENS_7eStringE
Noj:__ZL24UnresolvedVirtualCall_18P12Il2CppObjectiPK10MethodInfo
noc:__ZL12SetPrefValueRKN4core12basic_stringIcNS_20StringStorageDefaultIcEEEERK9PrefValue
gac:__Z21GetBackgroundJobQueuev
Lec:__ZL30ReconstructParamNamesFromTableIN9ShaderLab20SerializedSubProgram15MatrixParameterEEvRK14dense_hash_mapIiN4core17string_with_labelILi1EEE18SInt32HashFunctionNSt3__28equal_toIiEE13stl_allocatorINS8_4pairIKiS6_EEL18MemLabelIdentifier1ELi16EEERNS8_6vectorIT_NS8_9allocatorISL_EEEE
GZa:__ZN19ShaderPropertySheet20ReservePropertyCountEj
Y9j:__ZN6il2cpp5utils11StringUtils6PrintfEPKcz
$Xj:__ZNSt3__26vectorIN6il2cpp8metadata18GenericArrayMethodENS_9allocatorIS3_EEE7reserveEj
TNa:__ZN15NameToObjectMapI6ShaderNSt3__23mapI4PPtrIS0_EN4core12basic_stringIcNS5_20StringStorageDefaultIcEEEENS1_4lessIS4_EENS1_9allocatorINS1_4pairIKS4_S9_EEEEEENS1_8multimapIS9_S4_NSA_IS9_EENSC_INSD_IKS9_S4_EEEEEEE4FindERSK_
QPa:__ZN24GenerateTypeTreeTransfer21TransferResourceImageE19ActiveResourceImagePKcR13StreamingInfoPvjiPKN5Unity4TypeE
sIi:_Array_Sort_TisVector3_t3722313464_m1030213405_gshared
M3j:__ZN6il2cpp2vm6Object5CloneEP12Il2CppObject
vse:__ZL94TextGenerator_t3211863866_CustomAttributesCacheGenerator_TextGenerator_Dispose_cpp_m1826354328P21CustomAttributesCache
dik:__ZN6il2cpp6icalls8mscorlib6System9Threading5Mutex20CreateMutex_internalEbP12Il2CppStringPb
Ume:__ZL47Time_t2420636075_CustomAttributesCacheGeneratorP21CustomAttributesCache
lvf:_Coroutine_Finalize_m1957108547
rij:_KeyBuilder_Key_m2503211157
sGa:__ZNSt3__212__deque_baseI18ReflectionProbeJobNS_9allocatorIS1_EEED2Ev
YB:__ZN11UnityEngine9Animation27DestroyAnimationSetBindingsEPNS0_20AnimationSetBindingsERN7mecanim6memory9AllocatorE
Rec:__ZN15dense_hashtableINSt3__24pairIKiN4core17string_with_labelILi1EEEEEi18SInt32HashFunctionN14dense_hash_mapIiS5_S7_NS0_8equal_toIiEE13stl_allocatorIS6_L18MemLabelIdentifier1ELi16EEE9SelectKeyESA_SD_E13set_empty_keyERKS6_
avf:_Component_GetComponentInChildren_m388868270
JAh:_GenericEqualityComparer_1_Equals_m1705889345_gshared
uI:__ZN8Animator12CleanupClassEv
XEd:__ZN21InterfaceFuncInvoker0IiE6InvokeEjP11Il2CppClassP12Il2CppObject
Bfd:__ZN17CallbackArrayBaseIPFvP6CameraEPFvPKvS1_EE8RegisterES3_S7_S5_
A0f:_FtpWebRequest__cctor_m699542155
SDg:_Byte_System_IConvertible_ToBoolean_m2888023769
R2j:__GLOBAL__sub_I_GenericMetadata_cpp
xYd:__ZL70RuntimeArray_CustomAttributesCacheGenerator_Array_SetValue_m3412648248P21CustomAttributesCache
z$f:_NameObjectCollectionBase_GetEnumerator_m3677320185
P5b:__Z24CalculateSpotLightBoundsffRK10Matrix4x4fR15SpotLightBounds
Tbi:_ListPool_1_Get_m3176656818_gshared
BJa:__ZNK13RenderTexture21GetShadowSamplingModeEv
DX:__ZN23CloudWebServicesManager23VirtualRedirectTransferER14SafeBinaryRead
Cxg:_PKCS12_AddCertificate_m3857004455
vkf:_WellKnownClientTypeEntry_ToString_m1119458503
nFb:__Z19ShouldTransferFieldR32SerializationCommandQueueBuilder17ScriptingClassPtriR18TransferField_InfoRK20CoreScriptingClasses
$6d:__ZL67RSACryptoServiceProvider_t2683512874_CustomAttributesCacheGeneratorP21CustomAttributesCache
zEc:__Z48Register_UnityEngine_MonoBehaviour_InvokeDelayedv
vpg:_SecurityElement_IsValidText_m1346599242
vtc:__Z33PPtrToObjectDontLoadNoThreadCheckI8MaterialEPT_4PPtrIS1_E
jnb:__ZN26SinglePassStereoSupportExt21SetStereoMatrixCommonE21MonoOrStereoscopicEye24BuiltinShaderMatrixParamRK10Matrix4x4f
mP:__ZN5audio5mixer22UpdateAudioMixerMemoryERKNS0_18AudioMixerConstantERNS0_16AudioMixerMemoryEfPN4FMOD6SystemEf
JVc:__ZL21InitializeCachedStripPv
qsh:_Dictionary_2_System_Collections_Generic_ICollectionU3CSystem_Collections_Generic_KeyValuePairU3CTKeyU2CTValueU3EU3E_Add_m3652125112_gshared
y9b:__ZN19CustomRenderTexture16GetRenderTextureEv
p9d:__ZL80Thread_t2300836069_CustomAttributesCacheGenerator_Thread_GetHashCode_m3479107071P21CustomAttributesCache
vZj:__ZN6il2cpp6icalls8mscorlib6System9Threading6Thread23GetCachedCurrentCultureEP12Il2CppThread
Jxa:__ZNK6Camera22GetWorldToCameraMatrixEv
_pk:runPostSets
o5j:__ZN6il2cpp2vm12GenericClass11IsValueTypeEP18Il2CppGenericClass
Cdc:__ZN13ScreenManager24SetIsFullscreenImmediateEb
zEb:__ZN13MonoBehaviour7SetNameEPKc
UUd:_MethodDictionary_IsOverridenKey_m946843558
oWg:_FileStream_BeginRead_m2419864669
fbi:_U3CStartU3Ec__Iterator0_MoveNext_m4270440387_gshared
DEj:__ZN10KeyWrapperIN6il2cpp5utils13dynamic_arrayIPK10Il2CppTypeLj4EEEEC2ERKS7_
zJb:__ZN17InstancingBatcher22FindCBUpperBoundKonstsEv
Lgd:__ZN11UnityEngine9Analytics15AnalyticsConfig13ConfigChangedERKN4core12basic_stringIcNS2_20StringStorageDefaultIcEEEER8JSONRead
h6a:__ZN18AwakeFromLoadQueue5ClearEv
LWg:_FileStream_SetLength_m99749826
j4b:__ZNSt3__27__sort5IR15ReflProbeSorterPP15ReflectionProbeEEjT0_S6_S6_S6_S6_T_
Aea:__ZN8Playable10DisconnectEPS_i
vk:_glGenTransformFeedbacks
t5a:__ZN13LoadOperationD2Ev
kxe:__ZL86Canvas_t3310196443_CustomAttributesCacheGenerator_Canvas_set_sortingLayerID_m861680532P21CustomAttributesCache
xGh:_List_1_System_Collections_ICollection_get_SyncRoot_m1990178029_gshared
MQg:_Int16_System_IConvertible_ToType_m3672347013
wTf:_Navigation_set_mode_m3709908198_AdjustorThunk
B_d:__ZL86MSCompatUnicodeTable_t1453885583_CustomAttributesCacheGenerator_U3CU3Ef__switchU24map4P21CustomAttributesCache
_yg:_AttrListImpl_GetValue_m3657391095
qIb:__Z21PlayerStartFirstSceneb
SVi:_List_1_CheckIndex_m3933537097_gshared
LNa:__ZNSt3__27__sort5IRPFbRKNS_4pairIN9ShaderLab16FastPropertyNameEN18UnityPropertySheet11UnityTexEnvEEES8_EPS6_EEjT0_SD_SD_SD_SD_T_
TOb:__ZNK7ApiGLES18GetExtensionStringEv
sVi:_List_1_System_Collections_IList_IndexOf_m2444653486_gshared
voi:__Z50RuntimeInvoker_SecurityCompressionType_t4242483129PFvvEPK10MethodInfoPvPS4_
Lvk:_emscripten_glVertexAttrib1f__wrapper
tvh:_DefaultComparer_GetHashCode_m402448534_gshared
Bbb:__ZNK12HandlerChain4SizeERK13FileEntryData
Wo:FUNCTION_TABLE_iiiiiiiii
GTc:__ZN11UnityEngine9Analytics18RenderingInfoEvent13SetFrameStatsERK13dynamic_arrayIjLj0EEjjj
N9e:_Enumerator_Dispose_m1360775770_AdjustorThunk
ZYi:_Collection_1_ClearItems_m1096166028_gshared
S_h:_ReadOnlyCollection_1_System_Collections_Generic_ICollectionU3CTU3E_Remove_m4177779688_gshared
lra:__ZN9Scripting11UnityEngine14AnimationCurve9InitProxyEv
xFg:_Char_IsLetter_m3996985877
IWi:_Queue_1_Peek_m2302800625_gshared
UXd:__ZL51Delegate_t1188392813_CustomAttributesCacheGeneratorP21CustomAttributesCache
$ce:__ZL56WeakReference_t1334886716_CustomAttributesCacheGeneratorP21CustomAttributesCache
mNi:_List_1_AddCollection_m4263017124_gshared
$ck:_GC_allochblk
tSd:__ZN21InterfaceFuncInvoker1IbP19Context_t3285446944E6InvokeEjP11Il2CppClassP12Il2CppObjectS1_
z6a:__Z15UnloadGameScenev
lkh:_Array_InternalArray__ICollection_CopyTo_TisKeyframe_t4206410242_m2132255743_gshared
pAk:_glCheckFramebufferStatus__wrapper
NFd:_Image__ctor_m2551076292
nhf:_Dictionary_2_System_Collections_ICollection_CopyTo_m3143696177_gshared
dRj:__ZN15dense_hashtableINSt3__24pairIK10KeyWrapperIPK14Il2CppAssemblyEPK22Il2CppMonoAssemblyNameEES6_N6il2cpp5utils11PointerHashIS4_EEN14dense_hash_mapIS6_SA_SF_NS6_14EqualsComparerINS0_8equal_toIS5_EEEENS0_9allocatorISB_EEE9SelectKeyESK_SM_E5clearEv
tgi:__Z103RuntimeInvoker_Void_t1185182177_Int32_t2950945753_Int32_t2950945753_Int32_t2950945753_SByte_t1669577662PFvvEPK10MethodInfoPvPS4_
St:__ZN16MecanimAnimationD0Ev
xpj:__ZL24UnresolvedVirtualCall_56P12Il2CppObjectS0_iiS0_S0_PK10MethodInfo
Tsj:__ZL25UnresolvedVirtualCall_240P12Il2CppObjecti40CustomAttributeTypedArgument_t2723150157PK10MethodInfo
TGc:__Z36Renderer_Get_Custom_PropSortingOrderP12Il2CppObject
tNj:__ZNK15dense_hashtableINSt3__24pairIK10KeyWrapperIPK10Il2CppTypeEjEES6_N6il2cpp8metadata14Il2CppTypeHashEN14dense_hash_mapIS6_jSB_NS6_14EqualsComparerINSA_26Il2CppTypeEqualityComparerEEENS0_9allocatorIS8_EEE9SelectKeyESF_SH_E13find_positionERS7_
rJa:__ZN7Texture5ResetEv
aub:__Z18Transfer_BlittableI24GenerateTypeTreeTransferLb0E8Vector2fEvRK29SerializationCommandArgumentsR31RuntimeSerializationCommandInfo
o7d:__ZL54SHA384Managed_t74158575_CustomAttributesCacheGeneratorP21CustomAttributesCache
aSd:_Context_get_HasDynamicSinks_m3952434387
gIh:_Latin1Encoding_GetByteCount_m1145650505
Rtb:__Z18Transfer_BlittableI24GenerateTypeTreeTransferLb1EhEvRK29SerializationCommandArgumentsR31RuntimeSerializationCommandInfo
Frj:__ZL25UnresolvedVirtualCall_172P12Il2CppObject22OrderBlock_t1585977831S1_PK10MethodInfo
wTe:_GenericTypeParameterBuilder_GetPropertyImpl_m2584778600
SAb:__Z13TransferFieldI18StreamedBinaryReadILb1EELb0E16Converter_StringEvRK23StaticTransferFieldInfoR31RuntimeSerializationCommandInfoRT1_
hwh:_DefaultComparer_GetHashCode_m177499767_gshared
mdf:__ZN28GenericInterfaceFuncInvoker1IbbE6InvokeEPK10MethodInfoP12Il2CppObjectb
mDc:__ZNK16TypeTreeIterator10ByteOffsetEv
grk:dynCall_iiifii
kda:__ZnwjRKSt9nothrow_t
QF:__ZN8Animator11ClearObjectEv
WWg:__ZN21InterfaceFuncInvoker3IiP22ByteU5BU5D_t4116647657iiE6InvokeEjP11Il2CppClassP12Il2CppObjectS1_ii
Wzg:_ApplicationException__ctor_m2557611022
sMa:__ZN14SafeBinaryRead19TransferSTLStyleMapINSt3__23mapI39DeprecatedFastPropertyNameSerializationN18UnityPropertySheet11UnityTexEnvENS1_4lessIS3_EENS1_9allocatorINS1_4pairIKS3_S5_EEEEEEEEvRT_17TransferMetaFlags
BEc:__Z45Register_UnityEngine_MonoBehaviour_IsInvokingv
ZSi:_List_1_CheckMatch_m579516778_gshared
Vwb:__ZL26Transfer_SimpleNativeClassI19StreamedBinaryWriteILb0EE17AnimationCurveTplIfELb0EEvRK29SerializationCommandArgumentsR31RuntimeSerializationCommandInfo
JIb:__Z43GiveManagedDebuggerChanceToAttachIfRequiredv
ODg:_Buffer_ByteLengthInternal_m1388208719
nze:__ZL92PointerEventData_t3807901092_CustomAttributesCacheGenerator_U3CworldNormalU3Ek__BackingFieldP21CustomAttributesCache
Mjh:_Array_InternalArray__ICollection_CopyTo_TisInt64_t3736567304_m2845057751_gshared
iDc:__Z35UnregisterSerializationCacheBuilderPFv17ScriptingClassPtrR23CachedSerializationDataRbE
iXd:__ZL52ICloneable_t724424198_CustomAttributesCacheGeneratorP21CustomAttributesCache
c8:__ZNSt3__26__treeINS_12__value_typeIPKc18ScriptingMethodPtrEENS_19__map_value_compareIS3_S5_14CStringCompareLb1EEE13stl_allocatorIS5_L18MemLabelIdentifier1ELi16EEE25__emplace_unique_key_argsIS3_JRKNS_21piecewise_construct_tENS_5tupleIJOS3_EEENSH_IJEEEEEENS_4pairINS_15__tree_iteratorIS5_PNS_11__tree_nodeIS5_PvEEiEEbEERKT_DpOT0_
XSg:_Int64_System_IConvertible_ToUInt32_m109903525_AdjustorThunk
bBa:__Z30GetBuiltinVectorParamArraySize24BuiltinShaderVectorParam
m_d:__ZL67DecimalConstantAttribute_t1976047975_CustomAttributesCacheGeneratorP21CustomAttributesCache
hla:__ZL46__ManagedRegistrationHelperFunction_SpriteBonePv
zMj:__ZNSt3__218uninitialized_copyIPNS_4pairIK10KeyWrapperINS1_IPK14Il2CppAssemblyP11Il2CppClassEEEjEESC_EET0_T_SE_SD_
WEc:__Z36Camera_CUSTOM_get_pixelRect_InjectedP12Il2CppObjectR5RectTIfE
kJa:__ZN13RenderTextureC2E10MemLabelId18ObjectCreationMode
aRg:_Int32_GetFormatException_m519586683
x8d:__ZL46StringBuilder_t_CustomAttributesCacheGeneratorP21CustomAttributesCache
yUg:_BinaryReader_ReadSByte_m3736742795
kGc:__Z60Register_UnityEngine_ScriptableObject_CreateScriptableObjectv
mLi:_Array_InternalArray__get_Item_TisVector2_t2156229523_m2502961026_gshared
SUa:__ZN21RendererUpdateManager11AddRendererER8Renderer
vNj:__ZNK15dense_hashtableINSt3__24pairIK10KeyWrapperIPK10Il2CppTypeEjEES6_N6il2cpp8metadata14Il2CppTypeHashEN14dense_hash_mapIS6_jSB_NS6_14EqualsComparerINSA_26Il2CppTypeEqualityComparerEEENS0_9allocatorIS8_EEE9SelectKeyESF_SH_E12test_deletedERK30dense_hashtable_const_iteratorIS8_S6_SB_SJ_SF_SH_E
Hob:__Z35Transfer_Blittable_FixedBufferFieldI14SafeBinaryReadsEvRK29SerializationCommandArgumentsR31RuntimeSerializationCommandInfo
Z$g:_Convert_ToDateTime_m3802186295
Z9j:__ZN6il2cpp5utils11StringUtils11Utf16ToUtf8EPKDs
q5a:__ZN18StreamedBinaryReadILb0EE21TransferSTLStyleArrayINSt3__26vectorIN15ResourceManager10DependencyE13stl_allocatorIS5_L18MemLabelIdentifier52ELi16EEEEEEvRT_17TransferMetaFlags
tSh:_UInt64_CompareTo_m1614517204_AdjustorThunk
Fkd:__ZN11UnityEngine15PlatformWrapper20IsRootedOrJailbrokenEv
jWb:__ZZ23InitPlayerLoopCallbacksvEN52PreLateUpdateScriptRunBehaviourLateUpdateRegistrator7ForwardEv
glk:__ZN30GenericInterfaceActionInvoker1IP8String_tE6InvokeEPK10MethodInfoP12Il2CppObjectS1_
q6b:__Z33IntersectAABBPlaneBoundsOptimizedRK4AABBPKN4math7_float4Ei
h9b:__ZN19ScriptingInvocation6InvokeI28ScriptingSystemTypeObjectPtrEET_P21ScriptingExceptionPtrb
Ohb:__ZN9GfxDevice19EndGeometryJobFrameEv
mgj:_GUILayoutUtility_Layout_m1159951704
TMf:_InputField_get_shouldActivateOnSelect_m3055465770
Svh:_DefaultComparer_Equals_m2269092119_gshared
Ltb:__ZN27Converter_SimpleNativeClassI17AnimationCurveTplIfEE17ScriptingToNativeER18ScriptingObjectPtrPS1_
uOh:_Type__cctor_m2371893800
Qik:__ZN6il2cpp8metadata24Il2CppGenericInstCompare7CompareERK10KeyWrapperIPK17Il2CppGenericInstES8_
eDj:__ZNK15dense_hashtableINSt3__24pairIK10KeyWrapperIPK19Il2CppGenericMethodEPK26Il2CppGenericMethodIndicesEES6_N6il2cpp8metadata23Il2CppGenericMethodHashEN14dense_hash_mapIS6_SA_SE_NS6_14EqualsComparerINSD_26Il2CppGenericMethodCompareEEENS0_9allocatorISB_EEE9SelectKeyESI_SK_E5beginEv
Rtd:_ExecuteEvents_Execute_m3049310229
Hv:__ZN27AnimationLayerMixerPlayable21UpdateLayerParametersEv
dne:__ZL84Object_t631007953_CustomAttributesCacheGenerator_Object_DestroyImmediate_m2288369078P21CustomAttributesCache
kUe:__ZN21InterfaceFuncInvoker1IiP12MemberInfo_tE6InvokeEjP11Il2CppClassP12Il2CppObjectS1_
RAg:_Array_get_IsSynchronized_m3066873806
yoa:__ZN9Scripting11UnityEngine12LightmapData12CleanupProxyEv
ry:__ZN7mecanim9animation16CopyMotionOutputEPKNS0_18AnimationNodeStateEPS1_bbRKNS_6bitsetILj83EEE
Gqc:__ZNK17AnimationCurveTplIfE8EvaluateEfPNS0_5CacheE
oVb:__Z31ManagerContextInitializeClassesv
$_h:_ReadOnlyCollection_1_System_Collections_IList_Contains_m2650112051_gshared
Wbh:_Array_get_swapper_TisVector3_t3722313464_m1221246401_gshared
I_h:_ReadOnlyCollection_1_CopyTo_m1950082901_gshared
x5c:_ft_smooth_transform
mZc:_UNITY_FT_List_Finalize
xik:__ZN6il2cpp6icalls8mscorlib6System7Runtime8Remoting10Activation18ActivationServices34AllocateUninitializedClassInstanceEP20Il2CppReflectionType
W_b:__Z20LightAttenuateApproxRKfS0_
D7:__ZN9Scripting30SetCachedPtrOnScriptingWrapperE18ScriptingObjectPtrP6Object
zKg:_HashKeys_get_IsSynchronized_m174400341
X1:__ZN17LowLevelAllocator6MallocEj
azi:__Z57RuntimeInvoker_Int32_t2950945753_KeyValuePair_2_t71524366PFvvEPK10MethodInfoPvPS4_
hih:_NoAllocHelpers_SafeLength_TisColor32_t2600501292_m3406165959_gshared
$x:__ZN17AnimationPlayable17SetInternalWeightEf
Uke:__ZL71ParticleSystemBeginUpdateAll_t1600980369_CustomAttributesCacheGeneratorP21CustomAttributesCache
Q9h:_UnityEvent_1__ctor_m1789019280_gshared
f8f:_RepeatContext_get_IsMinimum_m3640286252
Gdi:__Z64RuntimeInvoker_Boolean_t97287965_RuntimeObject_Int32_t2950945753PFvvEPK10MethodInfoPvPS4_
F_e:_InternalEnumerator_1__ctor_m4055378331_AdjustorThunk
rmf:_ObjectRecord_ChainFixup_m1889316362
NHa:__ZN18BlockRangeInternal16PopLastNodeIndexEP10BlockRangeji
Obk:__ZN6il2cpp2vm13CachedCCWBaseINS0_13ManagedObjectEE6AddRefEv
DOj:__ZN6il2cpp2gc19AppendOnlyGCHashMapINSt3__24pairIPK11Il2CppImageP11Il2CppClassEEP22Il2CppReflectionModule17ReflectionMapHashIS9_ENS2_8equal_toIS9_EEE10CopyValuesEPv
cxd:_TouchInputModule_UpdateModule_m2582897964
b$a:__ZN4MeshD0Ev
Aqd:__ZL42RequestRecreateEyeTexturesBeforeNextUpdatev
sAa:__ZNK6Camera20IsCurrentlyRenderingEv
xx:__ZN21AnimationClipPlayable23ProcessRootMotionNoClipEPK35AnimationPlayableEvaluationConstantPK32AnimationPlayableEvaluationInputP33AnimationPlayableEvaluationOutput
Udd:__Z36CanvasRenderer_CUSTOM_SetPopMaterialP12Il2CppObjectS0_i
KNc:__Z18Transfer_BlittableI9JSONWriteLb0EdEvRK29SerializationCommandArgumentsR31RuntimeSerializationCommandInfo
x2c:_otv_u_O_O_u_O_O
Sya:__ZN6Camera8TransferI19StreamedBinaryWriteILb0EEEEvRT_
g7g:_DBNull_System_IConvertible_ToSByte_m3533624679
uEa:__ZThn252_N31CanvasBatchIntermediateRenderer14OnAssetDeletedEv
emk:_wctomb
nFg:_Char_CompareTo_m42489266
BAi:__Z67RuntimeInvoker_Void_t1185182177_Int32_t2950945753_Double_t594665363PFvvEPK10MethodInfoPvPS4_
Doc:__Z27Camera_CUSTOM_GetAllCamerasP11Il2CppArray
AEb:__ZNK13MonoBehaviour25GetNeedsPerObjectTypeTreeEv
aBb:__Z35Transfer_Blittable_FixedBufferFieldI18StreamedBinaryReadILb0EEiEvRK29SerializationCommandArgumentsR31RuntimeSerializationCommandInfo
Uc:___cxa_rethrow
KMd:_ParameterInfo_GetCustomAttributes_m2376494592
oPc:__Z18Transfer_BlittableI8JSONReadLb1EhEvRK29SerializationCommandArgumentsR31RuntimeSerializationCommandInfo
ZDd:_Graphic_get_canvasRenderer_m315509948
y$i:_Collection_1_System_Collections_IList_Contains_m3397768605_gshared
zTf:_Navigation_set_selectOnUp_m827629728_AdjustorThunk
Wne:__ZL69NativeFixedLengthAttribute_t3072952540_CustomAttributesCacheGeneratorP21CustomAttributesCache
sJi:_Dictionary_2_Do_CopyTo_TisInt32_t2950945753_TisInt32_t2950945753_m3384108308_gshared
HBc:__ZN10systeminfo23SupportsLocationServiceEv
hNg:_CultureInfo_construct_internal_locale_from_name_m3254739477
Sjg:_RSASslSignatureDeformatter_VerifySignature_m1061897602
U8b:__ZN13MonoBehaviour8SetClassE17ScriptingClassPtr18ScriptingObjectPtr
Drf:_RandomNumberGenerator_Create_m4162970280
LEi:_Array_InternalArray__Insert_TisLabelFixup_t858502054_m171542753_gshared
r5e:_InternalEnumerator_1_System_Collections_IEnumerator_get_Current_m3539708496_AdjustorThunk
hcb:__ZN20LocalFileSystemPosix4ReadER13FileEntryDatayyPvPy
L2b:__ZNSt3__211__sift_downIRN23ForwardShaderRenderLoop18RenderObjectSorterILb0EEEP21ForwardRenderPassDataEEvT0_S7_T_NS_15iterator_traitsIS7_E15difference_typeES7_
fog:_SecurityPermission__ctor_m1462427327
ssk:dynCall_iiiiiiffiiiiiiiiiffffiiii
PEb:__ZN13MonoBehaviour5DoGUIENS_13GUILayoutTypeEii
iQd:_ChannelData_get_ClientProviders_m594662942
yI:__ZZN8Animator15InitializeClassEvEN43FunctorImpl_438kDidModifyAnimatorController4CallEPviR11MessageData
Uaj:_QuickSearch_GetChar_m1297698557
Cua:__ZNK12TLSAllocatorI14StackAllocatorE8ContainsEPKv
u1a:__ZN11TimeManager8TransferI18StreamedBinaryReadILb0EEEEvRT_
K_b:__ZL8AddLightRK12ActiveLightsRK8Vector3fiR13dynamic_arrayI11CulledLightLj0EE
k0g:_DateTime__ParseEnum_m253019513
_3g:_Convert_ToUInt32_m2194577773
o$a:__ZN14BlendShapeData8TransferI14SafeBinaryReadEEvRT_
kKg:_Hashtable_Remove_m4032631466
Iph:_DSAManaged_GenerateKeyPair_m2236915969
Xde:__ZL91RSASslSignatureFormatter_t2709678514_CustomAttributesCacheGenerator_U3CU3Ef__switchU24map16P21CustomAttributesCache
zPa:__ZN7Texture25ReloadFromStorageIfNeededEPvb
$gh:_Array_InternalArray__IndexOf_TisBoolean_t97287965_m1161209222_gshared
ICj:__ZNK15dense_hashtableINSt3__24pairIK10KeyWrapperIP9FieldInfoEiEES5_N6il2cpp5utils11PointerHashIS3_EEN14dense_hash_mapIS5_iSB_NS5_14EqualsComparerINS0_8equal_toIS4_EEEENS0_9allocatorIS7_EEE9SelectKeyESG_SI_E3endEv
aHc:__GLOBAL__sub_I_artifacts_WebGL_codegenerator_0_cpp_2794
Lwe:__ZL55RaycastHit2D_t2279581989_CustomAttributesCacheGeneratorP21CustomAttributesCache
rqa:__ZN9Scripting11UnityEngine12CullingGroup9InitProxyEv
VHg:_SynchronizedArrayListWrapper_Clear_m2191301493
S6c:_Update_Max
z5h:_Predicate_1__ctor_m2943702050_gshared
Ytg:_String_CreateString_m780602784
o_j:__ZN6il2cpp6icalls8mscorlib6SystemL15ThrowNoWideningEv
_pc:__ZNK23TransformChangeDispatch24GetChangeMaskForInterestENS_12InterestTypeE
dqc:__Z45Transform_CUSTOM_INTERNAL_CALL_TransformPointP12Il2CppObjectRK8Vector3fRS1_
FTe:_GenericTypeParameterBuilder_InvokeMember_m1647304778
KFd:_HorizontalOrVerticalLayoutGroup_set_childControlWidth_m3261460516
KMa:__ZNSt3__26__treeINS_12__value_typeI39DeprecatedFastPropertyNameSerializationfEENS_19__map_value_compareIS2_S3_NS_4lessIS2_EELb1EEENS_9allocatorIS3_EEE7destroyEPNS_11__tree_nodeIS3_PvEE
S4c:_tt_cmap4_char_index
Lxd:_AspectRatioFitter_GetParentSize_m3159144324
rqg:_SecurityFrame_get_Assembly_m2874566710
$Xe:_InternalEnumerator_1__ctor_m2336656763_AdjustorThunk
hWi:_Enumerator_System_Collections_IEnumerator_Reset_m1487823313_gshared
Lbb:__ZNK12HandlerChain8IsHiddenERK13FileEntryData
Jgb:__ZNSt3__26__treeINS_12__value_typeIN4core12basic_stringIcNS2_20StringStorageDefaultIcEEEEPN16MemoryFileSystem4NodeEEENS_19__map_value_compareIS6_SA_NS_4lessIS6_EELb1EEE13stl_allocatorISA_L18MemLabelIdentifier55ELi16EEE25__emplace_unique_key_argsIS6_JNS_4pairIKS6_S9_EEEEENSK_INS_15__tree_iteratorISA_PNS_11__tree_nodeISA_PvEEiEEbEERKT_DpOT0_
gNi:_List_1_System_Collections_IList_get_IsFixedSize_m1752888098_gshared
$sb:__ZL26Transfer_SimpleNativeClassI17RemapPPtrTransfer10RectOffsetLb0EEvRK29SerializationCommandArgumentsR31RuntimeSerializationCommandInfo
nkd:__ZN11UnityEngine15PlatformWrapper18GetWin8ScalingModeEv
IXf:_ScrollRect_CalculateLayoutInputVertical_m3155297482
uSg:_Int32_ToString_m2507389746_AdjustorThunk
I2g:_Decimal_op_Explicit_m438967917
o5d:__ZL55IChannelInfo_t3866172133_CustomAttributesCacheGeneratorP21CustomAttributesCache
Awj:_AnimatorControllerPlayable_SetHandle_m2260644454_AdjustorThunk
OVe:__ZN30GenericInterfaceActionInvoker2IP12Il2CppObjectS1_E6InvokeEPK10MethodInfoS1_S1_S1_
xbh:_Environment_get_SocketSecurityEnabled_m190813817
tsi:__Z53RuntimeInvoker_Void_t1185182177_Vector4U26_t200349727PFvvEPK10MethodInfoPvPS4_
Dne:__ZL57UnityEventBase_t3960448221_CustomAttributesCacheGeneratorP21CustomAttributesCache
cYg:_NullStream_Flush_m3382897993
ggc:__ZNSt3__26vectorIN9ShaderLab20SerializedSubProgram13BufferBindingENS_9allocatorIS3_EEEC2ERKS6_
KNf:_InputField_set_selectionColor_m2084640295
SCi:__Z114RuntimeInvoker_Int32_t2950945753_CustomAttributeTypedArgument_t2723150157_CustomAttributeTypedArgument_t2723150157PFvvEPK10MethodInfoPvPS4_
qJi:_Dictionary_2_Do_CopyTo_TisKeyValuePair_2_t2401056908_TisKeyValuePair_2_t2401056908_m676905794_gshared
ZAa:__ZNK9ShaderLab20ShaderBlendStateDesc15ToGfxBlendStateEPK19ShaderPropertySheetS3_R13GfxBlendState
fTd:_EnvoyInfo_get_EnvoySinks_m1211050346
Aaf:_Enumerator_System_Collections_IEnumerator_get_Current_m1747693366_AdjustorThunk
bRd:_ConfigHandler_OnIgnorableWhitespace_m278399491
BB:__ZN11UnityEngine9AnimationL22GenericBindingCallbackEPvS1_i
ME:__ZN12_GLOBAL__N_121ProcessAnimationBeginER35AnimationPlayableEvaluationConstantR32AnimationPlayableEvaluationInputR33AnimationPlayableEvaluationOutput
Mjc:__ZN9ShaderLab9IntShaderC2Ev
_4h:_Func_3__ctor_m1375075958_gshared
Iqj:__ZL25UnresolvedVirtualCall_121P12Il2CppObjectaiS0_PK10MethodInfo
RKj:__ZN6il2cpp6icalls8mscorlib6SystemL9IsPrivateEPK9EventInfo
khk:__ZN6il2cpp6icalls8mscorlib6System10Reflection4Emit11TypeBuilder20setup_internal_classEP27Il2CppReflectionTypeBuilderS7_
Fde:__ZL72PKCS12_t4101533061_CustomAttributesCacheGenerator_U3CU3Ef__switchU24mapCP21CustomAttributesCache
xhh:_Array_InternalArray__IndexOf_TisILTokenInfo_t2325775114_m2602704009_gshared
Utd:_ExecuteEvents_Execute_m3613826831
zsh:_Dictionary_2_System_Collections_IDictionary_GetEnumerator_m972834308_gshared
QQi:_List_1_System_Collections_ICollection_get_IsSynchronized_m967177678_gshared
XIh:_StringBuilder_AppendFormat_m3255666490
IOe:_OverflowException__ctor_m4029085969
HKc:__ZN13GUIStateScope3EndER16GUIKeyboardStateR8GUIStatePN5IMGUI19NamedKeyControlListE
vId:_TypeBuilder_GetGenericArguments_m2872156836
OUd:_MethodCall_get_Uri_m1720935531
hqj:__ZL24UnresolvedVirtualCall_94P12Il2CppObjectS0_S0_iPK10MethodInfo
Yyj:__ZN13Il2CppHashMapIPK22Il2CppGenericParameterP11Il2CppClassN6il2cpp5utils11PointerHashIS1_EENSt3__28equal_toIS2_EENS9_9allocatorINS9_4pairIK10KeyWrapperIS2_ES4_EEEEEC2EjRKS8_RKSB_
GQc:__ZN8JSONRead21TransferSTLStyleArrayI31ArrayOfManagedObjectsTransfererEEvRT_17TransferMetaFlags
Vcb:__Z15CreateDirectoryRKN4core12basic_stringIcNS_20StringStorageDefaultIcEEEE
I0a:__Z21CalculateGlobalMatrix23TransformAccessReadOnly
wId:_TypeBuilder_GetGenericTypeDefinition_m1632720438
ich:_Array_InternalArray__ICollection_Contains_TisLink_t544317964_m163190451_gshared
F6g:_DateTimeOffset_System_IComparable_CompareTo_m176229495_AdjustorThunk
Qzf:_ManagedStreamHelpers_ValidateLoadFromStream_m580138133
twe:__ZL104GUIUtility_t1868551600_CustomAttributesCacheGenerator_GUIUtility_EndContainerGUIFromException_m530164245P21CustomAttributesCache
c3a:__ZNK13BuildSettings22GetTypeVirtualInternalEv
Nkc:__ZN13MonoBehaviour20SetScriptingDataFromERKS_
O8h:__ZN30GenericInterfaceActionInvoker1I17Scene_t2348375561E6InvokeEPK10MethodInfoP12Il2CppObjectS0_
A$e:_InternalEnumerator_1__ctor_m1486034688_gshared
iyb:__Z35Transfer_Blittable_FixedBufferFieldI18StreamedBinaryReadILb1EEhEvRK29SerializationCommandArgumentsR31RuntimeSerializationCommandInfo
J9d:__ZL56AppDomainSetup_t123196401_CustomAttributesCacheGeneratorP21CustomAttributesCache
_Ti:_List_1_CheckIndex_m2250397830_gshared
Usg:_String_LastIndexOf_m578673845
hEf:_PlayableOutput_GetHandle_m777137769_AdjustorThunk
CCf:_PlayerEditorConnectionEvents_UnregisterManagedCallback_m400366024
Jtj:_FontTextureRebuildCallback_EndInvoke_m3732346867
yjc:__ZN9ShaderLab20SerializedSubProgram14ConstantBufferC2EOS1_
z:tempBigIntI
E8f:_Interval_get_Empty_m3617514670
CCi:__Z31RuntimeInvoker_Mark_t3471605523PFvvEPK10MethodInfoPvPS4_
lPe:_Assembly_GetName_m981771927
Zee:__ZL53RegexOptions_t92845595_CustomAttributesCacheGeneratorP21CustomAttributesCache
Pz:__ZN7mecanim12statemachine24CreateStateMachineOutputEPKNS0_20StateMachineConstantEjRNS_6memory9AllocatorE
m5j:__ZN6il2cpp2vm12GenericClass8GetClassEP18Il2CppGenericClass
iib:__ZNK9GfxDevice27GetActiveRenderSurfaceWidthEv
pAe:__ZL114StandaloneInputModule_t2760469101_CustomAttributesCacheGenerator_StandaloneInputModule_ForceAutoSelect_m2837047882P21CustomAttributesCache
skd:__ZN11UnityEngine15PlatformWrapper28GetCleanGraphicsFixedVersionEv
kTf:_MaskableGraphic_RecalculateClipping_m1772937317
oJe:_UnmanagedMemoryStream_SetLength_m3752964620
Ufb:__ZN16MemoryFileSystem5WriteER13FileEntryDatayyPvPy
D3i:_SslStreamBase_RaiseLocalPrivateKeySelection_m4112368540
RTj:__ZN6il2cpp2vm4Type7GetTypeEPK10Il2CppType
_Yc:_open_face_PS_from_sfnt_stream
b0e:_InternalEnumerator_1_get_Current_m165106323_AdjustorThunk
LJh:_UTF32Encoding_GetByteCount_m3610769032
oV:__ZN11AudioModule16SetListenerPauseEb
cXb:__Z16FindCameraStacksRKNSt3__24listI4PPtrI6CameraENS_9allocatorIS3_EEEERNS_6vectorI11CameraStackNS4_ISA_EEEE
M9i:_MatchCollection_CopyTo_m3807326147
MVa:__ZN10GISettings8TransferI14SafeBinaryReadEEvRT_
sn:FUNCTION_TABLE_vifff
amf:_ObjectReader_get_CurrentObject_m2820303483
srf:_MD5CryptoServiceProvider__ctor_m3271163125
V9b:__ZN19CustomRenderTexture12ClearGPUDataEv
XPg:_Guid_Equals_m3683678873
Dbi:_ListPool_1_Get_m2875520964_gshared
U8d:__ZL95UnicodeEncoding_t1959134050_CustomAttributesCacheGenerator_UnicodeEncoding_GetBytes_m3223155660P21CustomAttributesCache
AJa:__ZN13RenderTexture13ApplySettingsEv
olf:_ObjectReader_RegisterObject_m1853376334
_Ue:_ModuleBuilderTokenGenerator_GetToken_m2588853565
gDg:_Boolean_System_IConvertible_ToDecimal_m3176932461_AdjustorThunk
p2b:__ZNSt3__26__treeINS_12__value_typeIi17ShadowCachingDataEENS_19__map_value_compareIiS3_NS_4lessIiEELb1EEE13stl_allocatorIS3_L18MemLabelIdentifier66ELi16EEE25__emplace_unique_key_argsIiJNS_4pairIiS2_EEEEENSD_INS_15__tree_iteratorIS3_PNS_11__tree_nodeIS3_PvEEiEEbEERKT_DpOT0_
Te:_JS_Sound_SetListenerPosition
ln:FUNCTION_TABLE_fiffi
Ksi:__Z54RuntimeInvoker_Int32_t2950945753_LayerMask_t3493934918PFvvEPK10MethodInfoPvPS4_
Cdd:__Z55Register_UnityEngine_CanvasGroup_get_ignoreParentGroupsv
V_h:_ReadOnlyCollection_1_System_Collections_Generic_IListU3CTU3E_set_Item_m711370667_gshared
T1j:__ZNK15dense_hashtableINSt3__24pairIK10KeyWrapperINS1_IPKcS4_EEEiEES6_24NamespaceAndNamePairHashN14dense_hash_mapIS6_iS9_NS6_14EqualsComparerI26NamespaceAndNamePairEqualsEENS0_9allocatorIS8_EEE9SelectKeyESD_SF_E10test_emptyERK24dense_hashtable_iteratorIS8_S6_S9_SH_SD_SF_E
O0a:__ZN12EventManager11RemoveEventEP10EventEntryPFvPvS2_iES2_
hQe:_Default_check_arguments_with_score_m3467814020
vxk:_glGetActiveUniform__wrapper
fZg:_StreamWriter_LowLevelWrite_m1081676583
HEh:_Enumerator__ctor_m3875432026_AdjustorThunk
xjb:__ZN9GfxDevice20SetRenderSurfaceNameEP17RenderSurfaceBasePKc
N8a:__ZNK8Material16MarkDependenciesER27GarbageCollectorThreadState
NYf:_Slider_set_handleRect_m1101657556
S6g:_DateTimeOffset_ToString_m3985341516_AdjustorThunk
pVh:_Collection_1_System_Collections_IList_Contains_m3348135931_gshared
NNc:__ZL17Transfer_GUIStyleI9JSONWriteLb0EEvRK29SerializationCommandArgumentsR31RuntimeSerializationCommandInfo
R$b:__Z28GetHaloVertexPositionsStereoP8Vector3fRKS_S2_f
iia:__ZN6prcoreL27StretchGenericFloatBilinearI15TexFormatRGHalfEEvPKNS_9InnerInfoE
mH:__Z16return_effectiveRK21AnimationClipOverride
qhf:_Dictionary_2_System_Collections_IDictionary_GetEnumerator_m751864982_gshared
N$b:__ZN9DepthPass7PrepareER6CameraRK13dynamic_arrayI16RenderObjectDataLj0EERK15RenderNodeQueueRK17ShaderReplaceDatab
Xoa:__ZN9Scripting11UnityEngine12Experimental3U2D10SpriteBone9InitProxyEv
OKa:__ZNK15PlayableMethods18InvokePrepareFrameER18ScriptingObjectPtrRK9HPlayableP18ScriptingFrameData
pH:__ZN14SafeBinaryRead21TransferSTLStyleArrayI13dynamic_arrayI21AnimationClipOverrideLj0EEEEvRT_17TransferMetaFlags
mW:__Z13RegisterClassI12AudioManagerEvPKc
Nrj:__ZL25UnresolvedVirtualCall_180P12Il2CppObject22UILineInfo_t4195266810S1_PK10MethodInfo
yBb:__Z18Transfer_BlittableI18StreamedBinaryReadILb0EELb1E9BoundsIntEvRK29SerializationCommandArgumentsR31RuntimeSerializationCommandInfo
uEe:__ZL71SpriteState_t1362986479_CustomAttributesCacheGenerator_m_DisabledSpriteP21CustomAttributesCache
$ld:__ZN22BaseUnityConnectClient28UpdateConfigFromServerStaticEPv
z3f:_PublicKey_DecodeDSA_m3490622362
Jpc:__Z49Register_UnityEngine_Resources_GetBuiltinResourcev
lPh:_Type_GetMethod_m1479779718
F4c:_tt_cmap10_char_index
b4i:_TlsException__ctor_m3242533711
_gc:__ZN15SerializeTraitsINSt3__24pairIN4core12basic_stringIcNS2_20StringStorageDefaultIcEEEE4PPtrI7TextureEEEE8TransferI24GenerateTypeTreeTransferEEvRSA_RT_
$ye:__ZL94AxisEventData_t2331243652_CustomAttributesCacheGenerator_AxisEventData_get_moveDir_m2423724085P21CustomAttributesCache
KZg:_SortedList__ctor_m3676552745
Azj:__ZN15dense_hashtableINSt3__24pairIK10KeyWrapperIPK22Il2CppGenericParameterEP11Il2CppClassEES6_N6il2cpp5utils11PointerHashIS4_EEN14dense_hash_mapIS6_S9_SE_NS6_14EqualsComparerINS0_8equal_toIS5_EEEENS0_9allocatorISA_EEE9SelectKeyESJ_SL_E3endEv
IBj:__ZNK15dense_hashtableINSt3__24pairIK10KeyWrapperIPK11Il2CppClassEPKcEES6_N6il2cpp5utils11PointerHashIS3_EEN14dense_hash_mapIS6_S9_SE_NS6_14EqualsComparerINS0_8equal_toIS5_EEEENS0_9allocatorISA_EEE9SelectKeyESJ_SL_E8min_sizeEjj
AU:__ZN11AudioSource24ClearExtensionPropertiesE12PropertyName
Fef:_Transform_1_EndInvoke_m332304766_gshared
cic:__ZN9ShaderLab22SerializedBindChannels8TransferI19StreamedBinaryWriteILb0EEEEvRT_
gfi:__Z52RuntimeInvoker_Decimal_t2948259380_Int32_t2950945753PFvvEPK10MethodInfoPvPS4_
mrb:__ZN15SerializeTraitsI5RectTIiEE8TransferI14SafeBinaryReadEEvRS1_RT_
uJc:__ZN5IMGUI20MoveWindowFromLayoutER8GUIStateiRK5RectTIfE
ami:__Z50RuntimeInvoker_SByte_t1669577662_Int64_t3736567304PFvvEPK10MethodInfoPvPS4_
DZc:_UNITY_FT_Stream_ReadUShort
_0i:_Collection_1_System_Collections_IList_get_Item_m1677338752_gshared
Mxb:__Z29Transfer_Blittable_ArrayFieldI19StreamedBinaryWriteILb0EE11ColorRGBA32EvRT_R9ArrayInfoRK23StaticTransferFieldInfo
rMa:__ZNSt3__26__treeINS_12__value_typeIN4core12basic_stringIcNS2_20StringStorageDefaultIcEEEES6_EENS_19__map_value_compareIS6_S7_NS_4lessIS6_EELb1EEE13stl_allocatorIS7_L18MemLabelIdentifier1ELi16EEE7destroyEPNS_11__tree_nodeIS7_PvEE
$Re:_DerivedType_IsAssignableFrom_m1623073368
Rzh:_EqualityComparer_1_get_Default_m1095255266_gshared
LPb:__Z13IsDepthFormat14GraphicsFormat
x2a:__ZN12AspectRatios8TransferI24GenerateTypeTreeTransferEEvRT_
qLe:_MonoType_GetFields_m4176012508
Pbc:__Z29StdTemplateConversionFunctionIshEbPvR14SafeBinaryRead
J4g:_CurrentSystemTimeZone_GetTimeZoneData_m2641861607
Jf:_emscripten_glUniform1fv
Sxh:_EqualityComparer_1_System_Collections_IEqualityComparer_GetHashCode_m3423304513_gshared
E0d:__ZL57FileSystemInfo_t3745885336_CustomAttributesCacheGeneratorP21CustomAttributesCache
Nzj:__ZN6il2cpp2vm5Class13GetArrayClassEP11Il2CppClassj
wwd:_StandaloneInputModule_set_inputActionsPerSecond_m4057208843
BIb:__ZN19RuntimeSceneManager18LoadSceneAsyncIntoER10UnitySceneRKN4core12basic_stringIcNS2_20StringStorageDefaultIcEEEENS_11LoadingModeEb
qxf:_UnityAction_BeginInvoke_m1892359299
IIe:_TextWriter_Write_m164803641
gNc:__Z35Transfer_Blittable_FixedBufferFieldI9JSONWritetEvRK29SerializationCommandArgumentsR31RuntimeSerializationCommandInfo
XKc:__ZN11IMGUIModule12AddGUIScriptER8ListNodeI13MonoBehaviourE
lb:invoke_difi
jgj:_GUILayoutUtility_BeginWindow_m2240221150
qwk:_glDeleteSamplers__wrapper
Mca:__ZL50StaticRegisterSceneLoadedCallback_LightmapSettingsPv
N_f:_HybridDictionary_set_Item_m2997363718
e0b:__ZN29MotionVectorRenderLoopScratch15ThreadedCleanupEv
Nm:FUNCTION_TABLE_iiffi
P5e:_InternalEnumerator_1_get_Current_m1477715453_AdjustorThunk
b3h:__ZN28GenericInterfaceFuncInvoker1IiP12Il2CppObjectE6InvokeEPK10MethodInfoS1_S1_
lSh:_UInt64_System_IConvertible_ToUInt32_m2784653358
vPb:__ZN21GLESGpuProgramApplier11ApplyVectorERKN20GpuProgramParameters14ValueParameterEPK8Vector4ft
X4b:__Z17PrepareSceneNodesP11CullResults
fia:__ZN6prcoreL27StretchGenericFloatBilinearI18TexFormatRGBAFloatEEvPKNS_9InnerInfoE
