uc:_glClearStencil
aQh:_UInt16_System_IConvertible_ToChar_m2096055221_AdjustorThunk
jTf:_MaskableGraphic_OnCanvasHierarchyChanged_m1780820310
heh:_Array_TrueForAll_TisRuntimeObject_m1084992726_gshared
W5j:__ZN6il2cpp2vm5Array13GetByteLengthEP11Il2CppArray
FFi:_Array_InternalArray__set_Item_TisDateTime_t3738529785_m1331437427_gshared
qij:_KeyBuilder_get_Rng_m3373220441
yya:__Z30GetIntermediateRendererManagerv
gSa:__Z21SourceMipLevelForBlitiiii
rEa:__ZN31CanvasBatchIntermediateRenderer15AddAsRenderNodeER15RenderNodeQueueRK20DeprecatedSourceData
oNh:_TimeSpan_get_Hours_m550761902
Hic:__ZN9ShaderLab9SubShader15FindNamedPassesERKN4core12basic_stringIcNS1_20StringStorageDefaultIcEEEER13dynamic_arrayIPNS_4PassELj0EE
zoe:__ZL63PlayableOutputHandle_t4208053793_CustomAttributesCacheGeneratorP21CustomAttributesCache
C_:__ZN11UnityEngine15CloudWebService26CloudServiceEventWithParam12ToJsonStringER9JSONWrite
rJe:_UnmanagedMemoryStream_Write_m930787521
$oc:__Z59Register_UnityEngine_PlayerConnectionInternal_DisconnectAllv
Fjj:_AnalyticsEventTracker_SendEvent_m1365958832
bs:__ZN11UnityEngine9Animation28GenericAnimationBindingCacheD2Ev
X8i:_X509Store_LoadCrl_m1881903843
eIi:_Array_Sort_TisUICharInfo_t75501106_TisUICharInfo_t75501106_m722747892_gshared
B8b:__Z18RestoreRenderStateR20CameraRenderOldStateR17ShaderPassContext
Qyb:__Z18Transfer_BlittableI18StreamedBinaryReadILb1EELb1E5RectTIfEEvRK29SerializationCommandArgumentsR31RuntimeSerializationCommandInfo
Dub:__Z18Transfer_BlittableI24GenerateTypeTreeTransferLb0E11ColorRGBA32EvRK29SerializationCommandArgumentsR31RuntimeSerializationCommandInfo
IDb:__Z25scripting_class_from_name17ScriptingImagePtrPKcS1_
VEi:_Array_InternalArray__Insert_TisSingle_t1397266774_m3161726127_gshared
wSj:__ZN14dense_hash_mapI10KeyWrapperINSt3__24pairIPK12PropertyInfoP11Il2CppClassEEEj17ReflectionMapHashIS8_ENS9_14EqualsComparerINS1_8equal_toIS8_EEEENS1_9allocatorINS2_IKS9_jEEEEE15set_deleted_keyERSH_
AFb:__Z29scripting_class_enum_basetype17ScriptingClassPtr
hJc:__ZN6IDList10BeginOnGUIEv
t_j:__ZN6il2cpp2vm9Exception25RaiseOutOfMemoryExceptionERKNS_5utils10StringViewIDsEEP19Il2CppSequencePoint
yka:__ZL43__ManagedRegistrationHelperFunction_TexturePv
K5e:_InternalEnumerator_1_get_Current_m1477715453_gshared
rcb:__ZNK20LocalFileSystemPosix6ParentERK13FileEntryDataRN4core12basic_stringIcNS3_20StringStorageDefaultIcEEEE
Hie:__ZL118TouchScreenKeyboard_t731888065_CustomAttributesCacheGenerator_TouchScreenKeyboard_Open_m3609399077____textPlaceholder6P21CustomAttributesCache
B$i:_Collection_1_System_Collections_IList_Remove_m1476284619_gshared
DLe:_MonoType_IsPrimitiveImpl_m2401722705
Hlg:_SHA1CryptoServiceProvider__ctor_m4195188793
Mna:__ZN9Scripting11UnityEngine9Profiling8Recorder12CleanupProxyEv
QCb:__ZN18StreamedBinaryReadILb0EE21TransferSTLStyleArrayI13dynamic_arrayI11ColorRGBA32Lj0EEEEvRT_17TransferMetaFlags
vCd:_Dropdown_Hide_m504034854
VSa:__ZN9Texture2D25CreateScaledAndPaddedDataEPP17SharedTextureDataS2_
idh:_Array_InternalArray__ICollection_Remove_TisLink_t3209266973_m897088622_gshared
ALf:_Vector2_get_up_m2647420593
pPb:__ZN7ApiGLES17CopyBufferSubDataEjjlll
fkh:_Array_InternalArray__ICollection_CopyTo_TisUInt64_t4134040092_m691431926_gshared
t1f:_IPAddress_ToString_m1181734207
LIh:_StringBuilder_Append_m1965104174
iLc:__ZN5Unity9rapidjson15GenericDocumentINS0_4UTF8IcEE13JSONAllocatorS4_E11ParseStreamILj1ES3_NS0_25GenericInsituStringStreamIS3_EEEERS5_RT1_
Qwh:_EqualityComparer_1__cctor_m3766928733_gshared
U8h:_UnityAction_1_Invoke_m610765085_gshared
oBg:_Array_GetValue_m116098292
K9f:_Kernel_modInverse_m652700340
yxe:__ZL57CanvasRenderer_t2598313366_CustomAttributesCacheGeneratorP21CustomAttributesCache
pKc:__ZN5IMGUI18RepaintModalWindowER8GUIState
lBa:__ZNK15dense_hashtableINSt3__24pairIKN9ShaderLab7Program23ShaderKeywordSetAndHashEPKNS2_10SubProgramEEES4_NS3_24ShaderKeywordHashFunctorEN14dense_hash_mapIS4_S8_SA_NS0_8equal_toIS4_EE13stl_allocatorIS9_L18MemLabelIdentifier67ELi16EEE9SelectKeyESD_SG_E23find_position_with_hashERS5_j
gMg:_CompareInfo_Finalize_m404687489
aXa:__Z23SetSpriteMeshIndexCountP14SharedMeshDataj
PKh:_UTF8Decoder_GetChars_m1236346907
I9j:__ZN6il2cpp8metadata13GenericMethod9GetMethodEPK19Il2CppGenericMethod
Nq:__ZNSt3__26vectorIN4core12basic_stringIcNS1_20StringStorageDefaultIcEEEENS_9allocatorIS5_EEE7reserveEj
gQe:_Default_SelectProperty_m1220817815
qjf:_RemotingConfiguration_IsRemotelyActivatedClientType_m4117048589
AHf:_Transform_TransformPoint_m226827784
oLb:__ZN13GfxDeviceGLES11SetViewportERK5RectTIiE
_Fc:__Z24Time_Get_Custom_PropTimev
Nd:_emscripten_glDepthRange
v3i:_SslStreamBase_BeginNegotiateHandshake_m4180435790
AWc:__ZN9Scripting11UnityEngine10UILineInfo12CleanupProxyEv
Uac:__ZNSt3__26vectorINS_4pairIN4core12basic_stringIcNS2_20StringStorageDefaultIcEEEES6_EE13stl_allocatorIS7_L18MemLabelIdentifier38ELi16EEE12__move_rangeEPS7_SC_SC_
gfc:__Z14resize_trimmedINSt3__26vectorIN9ShaderLab20SerializedSubProgram12UAVParameterENS0_9allocatorIS4_EEEEEvRT_j
oLc:__ZN5Unity9rapidjson13GenericReaderINS0_4UTF8IcEES3_13JSONAllocatorE11ParseObjectILj1ENS0_25GenericInsituStringStreamIS3_EENS0_15GenericDocumentIS3_S4_S4_EEEEvRT0_RT1_
Vwd:_StandaloneInputModule_GetRawMoveVector_m2737091079
WDe:__ZL62Selectable_t3250028441_CustomAttributesCacheGenerator_m_ColorsP21CustomAttributesCache
O0g:_Convert_ToDateTime_m2616935982
BNb:__ZThn10632_N13GfxDeviceGLES22SetScissorRectPlatformERK5RectTIiE
d4i:_SslStreamBase_EndWrite_m4073224031
saa:__ZNSt3__218__insertion_sort_3IRNS_6__lessI14ObjectLoadDataS2_EEPS2_EEvT0_S6_T_
Uka:__ZL50__ManagedRegistrationHelperFunction_PostLateUpdatePv
JRa:__ZN4crndL20crnd_default_reallocEPvjPjbS0_
iYa:__ZN18SpriteAtlasManager19AddRequestingSpriteE4PPtrI6SpriteE
G7b:__ZN23ScriptableRenderContextC2Ev
jFd:_GridLayoutGroup_get_spacing_m2409263614
SGh:_List_1_CheckIndex_m581273900_gshared
Y6c:_UNITY_FT_Stream_GetChar
pzb:__Z18Transfer_BlittableI18StreamedBinaryReadILb1EELb1EdEvRK29SerializationCommandArgumentsR31RuntimeSerializationCommandInfo
HFb:__Z26BuildSerializationCacheFor17ScriptingClassPtrRb
lRb:__ZN7ApiGLES15BlitFramebufferEN2gl6HandleILNS0_10ObjectTypeE9EEENS0_15FramebufferReadES3_S3_iiiiiiiiNS0_15FramebufferTypeE
Loi:__Z112RuntimeInvoker_RuntimeObject_RuntimeObject_RuntimeObject_RuntimeObject_RuntimeObject_RuntimeObject_RuntimeObjectPFvvEPK10MethodInfoPvPS4_
Z4e:_InternalEnumerator_1_System_Collections_IEnumerator_get_Current_m3553395619_AdjustorThunk
Tne:__ZL60ReadOnlyAttribute_t3518714744_CustomAttributesCacheGeneratorP21CustomAttributesCache
fBg:_Array_SetValue_m3998268557
JRc:__ZN8JSONRead8TransferI8Vector4fEEvRT_PKc17TransferMetaFlagsb
Ezd:_ColorBlock_set_highlightedColor_m2089444414_AdjustorThunk
gHf:_RectTransform_INTERNAL_set_anchoredPosition_m939517950
Ihg:_Context_EndSwitchingSecurityParameters_m4148956166
h2c:_otv_PairPos_validate
qy:__ZN7mecanim9animation14CopyHumanPosesEPKNS0_18AnimationNodeStateEPS1_RKNS_6bitsetILj83EEE
DKj:__ZN6il2cpp6icalls8mscorlib6SystemL8IsStaticEPK12PropertyInfo
MGb:__Z9InitInputv
b4c:_UNITY_tt_face_build_cmaps
UNj:__ZN6il2cpp2gc19AppendOnlyGCHashMapINSt3__24pairIPK10MethodInfoP11Il2CppClassEEP22Il2CppReflectionMethod17ReflectionMapHashIS9_ENS2_8equal_toIS9_EEE3AddERKS9_SB_
qgb:__ZN16MemoryFileSystem6DeleteER13FileEntryDatab
uji:__Z81RuntimeInvoker_Void_t1185182177_RuntimeObject_Int64_t3736567304_Int32_t2950945753PFvvEPK10MethodInfoPvPS4_
bIh:_List_1_set_Item_m1979164443_gshared
uih:_Array_InternalArray__ICollection_Add_TisLink_t3209266973_m77922316_gshared
ROa:__ZL21BlitScaleStbImageImplRK14ImageReferenceRS_NS_10ColorSpaceE
uDg:_Boolean_System_IConvertible_ToUInt16_m3465173538_AdjustorThunk
Is:__ZL48__ManagedRegistrationHelperFunction_SkeletonBonePv
bOf:_InputField_get_keyboardType_m1248105267
tqb:__Z29Transfer_Blittable_ArrayFieldI14SafeBinaryReadyEvRT_R9ArrayInfoRK23StaticTransferFieldInfo
EQ:__ZN20SoundChannelInstance15setChannelGroupEPN4FMOD12ChannelGroupE
w9i:_Match__ctor_m2425511580
uqh:_KeyPairPersistence_Remove_m1876145547
ic:invoke_vifffii
Keb:__ZNK25MultiBlocksMemoryFileData5CloneEv
tfk:_GC_add_ext_descriptor
jMj:__ZNK15dense_hashtableINSt3__24pairIK10KeyWrapperINS1_IPK14Il2CppAssemblyP11Il2CppClassEEEjEES9_17ReflectionMapHashIS8_EN14dense_hash_mapIS9_jSD_NS9_14EqualsComparerINS0_8equal_toIS8_EEEENS0_9allocatorISB_EEE9SelectKeyESI_SK_E23find_position_with_hashERSA_j
bKi:_LayoutGroup_SetProperty_TisSingle_t1397266774_m793506911_gshared
Vof:_CryptoConfig_CreateFromName_m1538277313
Jqk:dynCall_iiiiiiiiiiii
op:__ZN9Scripting11UnityEngine2AI18NavMeshBuildSource9InitProxyEv
mOf:_InputField_set_caretPositionInternal_m3823580651
Qid:__ZN18UnityConnectClient16IsServiceEnabledEv
zqa:__ZN9Scripting11UnityEngine10ColorGamut9InitProxyEv
Qgb:__ZN22VertexDeclarationCacheD0Ev
gYf:_Selectable_set_interactable_m3105888815
GEa:__ZL26KeywordSetToStringDontSortRKNSt3__26vectorIN4core12basic_stringIcNS1_20StringStorageDefaultIcEEEENS_9allocatorIS5_EEEERS5_
nha:__ZN6prcoreL17RemapGenericFloatI16TexFormatRGFloat17TexFormatRGBAHalfEEvPKNS_9InnerInfoE
FS:__ZN12AudioManager22CreateFMODSoundFromWWWEP10IWWWStream15FMOD_SOUND_TYPE17FMOD_SOUND_FORMATjjbbP10SampleClip
Wwc:__ZNK32RendererMaterialAnimationBinding15GenerateBindingERKN4core12basic_stringIcNS0_20StringStorageDefaultIcEEEEbRN11UnityEngine9Animation14GenericBindingE
aNd:_TargetException__ctor_m4172127019
uPi:_List_1_CheckCollection_m274117203_gshared
xye:__ZL70EventSystem_t1003666588_CustomAttributesCacheGenerator_m_FirstSelectedP21CustomAttributesCache
F8:__ZN8Remapper23GetOrGenerateInstanceIDERK26SerializedObjectIdentifier
qAd:_ColorTween_get_startColor_m3792586410_AdjustorThunk
blb:__ZN11TextureData17GetImageReferenceEii
lOe:_CustomInfo__ctor_m426096741
qtd:_EventSystem_ToString_m3779610692
sXa:__ZN6Sprite8TransferI24GenerateTypeTreeTransferEEvRT_
Cqc:__Z48Register_UnityEngine_Transform_SetAsFirstSiblingv
hOa:__ZNK18DelayedCallManager22GetTypeVirtualInternalEv
xXa:__ZN7SubMesh8TransferI24GenerateTypeTreeTransferEEvRT_
Ayj:_NativeTypeAttribute__ctor_m133676646
STh:_Collection_1_System_Collections_IList_Contains_m296643274_gshared
HUg:_DirectoryInfo__ctor_m126519516
sJd:_MethodBase_GetMethodFromIntPtr_m3014201362
iqc:__ZN9Transform23SetSiblingIndexInternalEib
pOc:__ZN9JSONWrite8TransferI13dynamic_arrayIaLj0EEEEvRT_PKc17TransferMetaFlags
l_g:_Enumerator_MoveNext_m635366482
$xg:_X509Extension_Equals_m1222951829
Gw:__ZN7mecanim5human12HumanPoseSubERNS0_9HumanPoseERKS1_S4_
p3j:__ZN6il2cpp8metadata15GenericMetadata15GetGenericClassEiPK17Il2CppGenericInst
Uob:__Z18Transfer_BlittableI14SafeBinaryReadLb0E10Matrix4x4fEvRK29SerializationCommandArgumentsR31RuntimeSerializationCommandInfo
YEb:__Z24GetFixedBehaviourManagerv
zJj:__ZN6il2cpp2vm10ThreadPool4WaitEP17Il2CppAsyncResultPPv
uxg:_PKCS12_Encrypt_m2617413749
H8i:_X509Crl_VerifySignature_m1377612461
Xlk:_vfprintf
RKc:__ZN10GUIManager12AddGUIScriptER8ListNodeI13MonoBehaviourE
hma:__ZL53__ManagedRegistrationHelperFunction_StackTraceUtilityPv
B_g:_Stack_Clear_m2010200235
T_c:_cf2_getVStore
gvd:_PointerEventData_set_pointerPressRaycast_m1363193059
EZb:__ZN20DynamicPropertySheetD0Ev
BPd:_SafeHandle_Dispose_m4229010569
Yac:__ZN14SafeBinaryRead17RegisterConverterEPKcS1_PFbPvRS_E
lhe:__ZL77RuntimePlatform_t4159857903_CustomAttributesCacheGenerator_OSXDashboardPlayerP21CustomAttributesCache
Y0:__ZN35RegisterRuntimeInitializeAndCleanup8RegisterEPFvPvES2_iS0_
l6i:_SubjectAltNameExtension_get_IPAddresses_m1641002124
hTe:_FieldBuilder_SetValue_m828035213
Q4h:__ZN28GenericInterfaceFuncInvoker0IfE6InvokeEPK10MethodInfoP12Il2CppObject
mGc:__Z21Object_CUSTOM_DestroyP12Il2CppObjectf
nWb:__ZN8Material26ResetAllCachedMaterialDataEP6Shader
nni:__Z63RuntimeInvoker_Void_t1185182177_RuntimeObject_Int16_t2552820387PFvvEPK10MethodInfoPvPS4_
i7c:_UNITY_TT_Get_MM_Var
qmf:_ObjectManager_AddFixup_m2154325362
g7e:_Comparer_1__cctor_m3761458313_gshared
H6g:_DateTimeOffset_CompareTo_m1350732322_AdjustorThunk
aa:invoke_diddi
Vbd:__ZNK2UI6Canvas13GetRenderModeEv
bxf:_PersistentCall__ctor_m1217622171
jgh:_Array_compare_TisCustomAttributeTypedArgument_t2723150157_m1384644047_gshared
esh:_StrongName_get_TokenAlgorithm_m1794722022
dob:__Z18Transfer_BlittableI14SafeBinaryReadLb0EiEvRK29SerializationCommandArgumentsR31RuntimeSerializationCommandInfo
lHj:__ZN6il2cpp2vm13MetadataCache30GetPropertyDefinitionFromIndexEi
yij:_SymmetricTransform_Transform_m1683494363
Tld:__ZN22BaseUnityConnectClient17InitializeSessionERKN4core12basic_stringIcNS0_20StringStorageDefaultIcEEEES6_N19CloudServiceHandler13InitModeFlagsE
P_d:__ZL56KeyCollection_t4251528776_CustomAttributesCacheGeneratorP21CustomAttributesCache
uti:__Z74RuntimeInvoker_RuntimeObject_Int32_t2950945753_RuntimeObject_RuntimeObjectPFvvEPK10MethodInfoPvPS4_
iVi:_List_1_get_Item_m200663048_gshared
Awk:_emscripten_glDeleteBuffers__wrapper
cDc:__ZN13MonoBehaviour34StopCoroutineFromEnumeratorManagedE18ScriptingObjectPtr
Rs:__ZN9Scripting11UnityEngine9HumanBone12CleanupProxyEv
jTc:__ZN11UnityEngine9Analytics18SceneLoadTimeEvent12SetSceneLoadERKN4core12basic_stringIcNS2_20StringStorageDefaultIcEEEEiyyyy
x4a:__ZN30RuntimeInitializeOnLoadManager8TransferI18StreamedBinaryReadILb0EEEEvRT_
v0g:_DateTimeOffset__ctor_m2084804982
E3c:_UNITY_tt_face_load_pclt
Xmc:__ZL34GetComponentsImplementationRecurseILb1ELi0ELi2EEbR10GameObjectbRK17CompareParametersRK39GetComponentsImplementation_ReturnValue
HBg:_Array_Sort_m3698291233
Xzf:_Material_GetTexture_m3545614349
eei:__Z64RuntimeInvoker_RuntimeObject_Int32_t2950945753_Int16_t2552820387PFvvEPK10MethodInfoPvPS4_
Hxh:_EqualityComparer_1__cctor_m4244842342_gshared
ZYb:__ZNK6Camera18WorldToScreenPointERK8Vector3fPb
tIf:_SendMouseEvents_DoSendMouseEvents_m2140870850
Egd:__ZN14UnityAnalyticsD0Ev
waj:_PatternCompiler_EmitJump_m3915926156
MKb:__Z18IsCompressedFormat14GraphicsFormat
_w:__ZN7mecanim9animation19AdjustPoseForMotionERKNS0_14AvatarConstantERKNS0_14SkeletonTQSMapERKN4math4trsXERNS_10ValueArrayERNS_8skeleton13SkeletonPoseTIS8_EESG_
fLd:_MonoMethod_GetBaseDefinition_m2844667474
DNh:__Z33il2cpp_codegen_check_add_overflowxx
J6:__ZNSt3__227__insertion_sort_incompleteIRPFbRKN18AwakeFromLoadQueue4ItemES4_EPS2_EEbT0_S9_T_
the:__ZL73RuntimePlatform_t4159857903_CustomAttributesCacheGenerator_MetroPlayerARMP21CustomAttributesCache
_Tg:_InvalidOperationException__ctor_m1685032583
lFj:__ZN14dense_hash_mapI10KeyWrapperIN6il2cpp5utils13dynamic_arrayIPK10Il2CppTypeLj4EEEEPFvvENS1_8metadata19Il2CppSignatureHashENS8_14EqualsComparerINSB_22Il2CppSignatureCompareEEENSt3__29allocatorINSG_4pairIKS8_SA_EEEEE15set_deleted_keyERSJ_
jOh:_TimeSpan_op_Subtraction_m3592306516
Fzh:_EqualityComparer_1_System_Collections_IEqualityComparer_GetHashCode_m1517903420_gshared
$Va:__ZN26EnlightenSystemInformation8TransferI14SafeBinaryReadEEvRT_
l5a:__ZN24GenerateTypeTreeTransfer8TransferINSt3__26vectorIN15ResourceManager10DependencyE13stl_allocatorIS4_L18MemLabelIdentifier52ELi16EEEEEEvRT_PKc17TransferMetaFlags
zvj:_CanvasRenderer_SplitUIVertexStreams_m2753637362
Vui:__Z119RuntimeInvoker_Void_t1185182177_RuntimeObject_Single_t1397266774_Single_t1397266774_SByte_t1669577662_Int32_t2950945753PFvvEPK10MethodInfoPvPS4_
Yza:__ZN27PerObjectLightCullingOutputD2Ev
Q0a:__ZN12MeshRendererD0Ev
QT:__ZN12AudioManager35GetCurrentSpatializerDefinitionNameEv
wma:__ZN9Scripting11UnityEngine14WaitForSeconds9InitProxyEv
yh:_utime
uoe:__ZL56PlayableGraph_t3515989261_CustomAttributesCacheGeneratorP21CustomAttributesCache
Pcj:_BalancingGroup_Compile_m2575117193
GTj:__ZNSt3__26vectorIN6il2cpp2vm17TypeNameParseInfoENS_9allocatorIS3_EEE8allocateEj
Ws:__ZN9Scripting11UnityEngine22AnimatorTransitionInfo9InitProxyEv
r9i:_Mark_get_Index_m3048692661_AdjustorThunk
on:FUNCTION_TABLE_viiiiif
I6e:_DefaultComparer_Compare_m3931992727_gshared
tn:FUNCTION_TABLE_viiiiii
B5e:_InternalEnumerator_1_System_Collections_IEnumerator_get_Current_m1847780851_AdjustorThunk
ohj:_GUILayoutUtility_get_spaceStyle_m3392862907
eqg:_SecurityException_ToString_m3228070608
w0g:_DateTimeOffset__ctor_m74032857
oyg:_SmallXmlParser_Error_m3899025466
XF:__ZN7mecanim9animation22DestroyAvatarWorkspaceEPNS0_15AvatarWorkspaceERNS_6memory9AllocatorE
dPh:_Type_type_is_assignable_from_m76737532
QHc:__ZN9Scripting11UnityEngine14GUILayoutGroup12CleanupProxyEv
$Na:__ZN14PlayableOutput17SetSourcePlayableEP8Playable
p4a:__ZNSt3__26vectorIN4core12basic_stringIcNS1_20StringStorageDefaultIcEEEE13stl_allocatorIS5_L18MemLabelIdentifier13ELi16EEE8__appendEj
yF:__ZN7mecanim9animation29MotionOutputGetDeltaTransformEPKNS0_12MotionOutputE
iTc:__ZN27PerformanceReportingManager21OnSceneTimingCallbackERK15SceneLoadTimingRKN4core12basic_stringIcNS3_20StringStorageDefaultIcEEEE
Qpc:__Z43Transform_CUSTOM_INTERNAL_get_localRotationP12Il2CppObjectP11Quaternionf
PMg:_CultureInfo_get_Parent_m672689885
Qfk:__ZN6il2cpp6icalls8mscorlib6System10Reflection4Emit13ModuleBuilder13RegisterTokenEP29Il2CppReflectionModuleBuilderP12Il2CppObjecti
Fuk:_glGetShaderInfoLog__wrapper
Ope:__ZL63SpriteBone_t303320096_CustomAttributesCacheGenerator_m_ParentIdP21CustomAttributesCache
bi:_emscripten_glGetTexParameteriv
uka:__ZL49__ManagedRegistrationHelperFunction_ComputeBufferPv
cjd:__ZN11UnityEngine7Connect15DeviceInfoEvent7GFXInfoD2Ev
bwk:_glGenTextures__wrapper
Dfc:__ZN9ShaderLab20SerializedSubProgram14ConstantBufferaSERKS1_
YKa:__ZN8PlayableD0Ev
vg:emscriptenWebGLGetBufferBinding
eM:__ZN12AudioManager8TransferI19StreamedBinaryWriteILb0EEEEvRT_
JYf:_Slider_UpdateCachedReferences_m3259451627
Ili:__Z50RuntimeInvoker_Double_t594665363_Double_t594665363PFvvEPK10MethodInfoPvPS4_
oYj:__ZN15dense_hashtableINSt3__24pairIK10KeyWrapperINS1_IP11Il2CppClassjEEES4_EES6_N6il2cpp8metadata14ArrayClassHashEN14dense_hash_mapIS6_S4_SB_NS6_14EqualsComparerINSA_17ArrayClassCompareEEENS0_9allocatorIS8_EEE9SelectKeyESF_SH_E6insertERKS8_
SCd:_U3CShowU3Ec__AnonStorey1_U3CU3Em__0_m2340880019
Wld:__ZN22BaseUnityConnectClient38PrepareConfigRequestOnMainThreadStaticEPS_
A5i:_TlsStream_Flush_m3793197834
dbb:__ZN22LocalFileSystemHandler9MakeLocalER13FileEntryDatab
jbk:__ZN6il2cpp2vm8Profiler10AllocationEP12Il2CppObjectP11Il2CppClass
PBe:__ZL61Graphic_t1660335611_CustomAttributesCacheGenerator_m_MaterialP21CustomAttributesCache
Ega:__Z13FormatOrderedPKcz
_Kj:__ZN6il2cpp2vm8basepathEPKc
D3e:_InternalEnumerator_1_get_Current_m1506120701_AdjustorThunk
S4f:_X509Chain_GetAuthorityKeyIdentifier_m614536199
XWc:__ZN14SafeBinaryRead21TransferSTLStyleArrayI10vector_mapINSt3__24pairIttEEfN20TextRenderingPrivate8FontImpl14KerningCompareENS2_9allocatorINS3_IS4_fEEEEEEEvRT_17TransferMetaFlags
vgg:_TlsServerFinished__ctor_m1445633918
dOe:_NumberFormatter_FastIntegerToString_m390846811
nSf:__ZN21InterfaceFuncInvoker0IfE6InvokeEjP11Il2CppClassP12Il2CppObject
h0a:__ZN14CompressedMesh10GetQualityE15MeshCompression
v4b:__ZN25DeferredRenderLoopScratchD0Ev
gz:__ZN27AnimationLayerMixerPlayable14SetInputWeightEif
eri:__Z83RuntimeInvoker_Void_t1185182177_RuntimeObject_Single_t1397266774_Single_t1397266774PFvvEPK10MethodInfoPvPS4_
Lud:_PhysicsRaycaster_Raycast_m776323695
$Kf:_UnityException__ctor_m1456865679
Cw:__ZN7mecanim9animation17EvaluateHumanPoseERKNS0_18ClipMuscleConstantERKNS0_15ClipMuscleInputEPKfRKNS0_12MotionOutputERNS_5human9HumanPoseE
Oec:__ZN15dense_hashtableINSt3__24pairIKiN4core17string_with_labelILi1EEEEEi18SInt32HashFunctionN14dense_hash_mapIiS5_S7_NS0_8equal_toIiEE13stl_allocatorIS6_L18MemLabelIdentifier1ELi16EEE9SelectKeyESA_SD_E9copy_fromERKSG_j
FQe:_CustomAttributeNamedArgument_GetHashCode_m2317130892
I4a:__ZN15ResourceManagerD0Ev
yBa:__ZN22CreateGpuProgramOutputD2Ev
mUi:_List_1_get_Item_m1378751541_gshared
Jlg:_SHA1CryptoServiceProvider_Finalize_m1793183797
B$g:_Convert_ToByte_m4146281512
mBh:_HashSet_1_System_Collections_Generic_ICollectionU3CTU3E_CopyTo_m408073502_gshared
Gcg:_EncryptedPrivateKeyInfo_get_EncryptedData_m491452551
sbb:__ZN12HandlerChain4OpenER13FileEntryData14FilePermission16FileAutoBehavior
fjh:_Array_InternalArray__ICollection_Add_TisPlayerLoopSystem_t105772105_m1930641144_gshared
WAi:__Z72RuntimeInvoker_Void_t1185182177_Int32_t2950945753_RaycastHit_t1056001966PFvvEPK10MethodInfoPvPS4_
YNj:__ZN15dense_hashtableINSt3__24pairIK10KeyWrapperINS1_IPK10MethodInfoP11Il2CppClassEEEjEES9_17ReflectionMapHashIS8_EN14dense_hash_mapIS9_jSD_NS9_14EqualsComparerINS0_8equal_toIS8_EEEENS0_9allocatorISB_EEE9SelectKeyESI_SK_E6insertERKSB_
TK:__ZL55__ManagedRegistrationHelperFunction_AudioPlayableOutputPv
uTc:__ZN27PerformanceReportingManager29OnSceneLoadedAfterAwakeStaticEPS_iR18AwakeFromLoadQueueN19RuntimeSceneManager11LoadingModeE
dBg:_Array_SetValue_m394135409
N9:__ZN14FileCacherReadD2Ev
C7a:__ZN13RendererScene23UpdatePreviousFrameDataEii
XBf:_MonoBehaviour_StopCoroutine_m615723318
Fmc:__Z50Register_UnityEngine_CullingGroup_FinalizerFailurev
xog:_SecurityPermission_IsSubsetOf_m545000671
Fjc:__ZN12ShaderErrors11ShaderErrorC2EOS0_
Hok:__ZNKSt3__221__basic_string_commonILb1EE20__throw_out_of_rangeEv
Cvf:_Cursor_get_lockState_m2828192107
EIj:_UpdatedEventHandler_Invoke_m1320302085
otg:_String_Format_m630303134
sS:__ZN9AudioClip23VirtualRedirectTransferER18StreamedBinaryReadILb0EE
TG:__ZN26AnimatorOverrideController23VirtualRedirectTransferER24GenerateTypeTreeTransfer
JUi:_List_1_AddEnumerable_m2724989594_gshared
Nti:__Z82RuntimeInvoker_Vector2_t2156229523_Vector2_t2156229523_RuntimeObject_RuntimeObjectPFvvEPK10MethodInfoPvPS4_
PEc:__Z70Register_UnityEngine_Playables_PlayableHandle_GetPlayableType_Injectedv
zbg:_ARC4Managed_TransformBlock_m1687647868
Cj:_glCopyTexSubImage2D
eLf:_UnitySynchronizationContext_ExecuteTasks_m1310741010
K2i:_RIPEMD160Managed_CompressFinal_m497690796
rGb:__ZN18ScreenManagerWebGL13SetShowCursorEb
pUb:__ZN13DrawImmediateC2ER9GfxDevice
YDa:__ZN18VertexChannelsInfoC2ERA12_K11ChannelInfo
Ecd:__ZN2UI13CanvasManager14GetRenderOrderEPKNS_6CanvasE
Qob:__Z18Transfer_BlittableI14SafeBinaryReadLb0E5RectTIfEEvRK29SerializationCommandArgumentsR31RuntimeSerializationCommandInfo
hOe:_NumberFormatter_NumberToString_m2562899600
p2c:_otv_u_C_x_Ox
_Uc:__ZL44__ManagedRegistrationHelperFunction_ColliderPv
Rwk:_emscripten_glGenVertexArrays__wrapper
wTh:_Version_Clone_m1749041863
rPa:__ZN6prcoreL21CreateRemapAnyBlitterE13TextureFormatS0_
idg:_RSAManaged_ExportParameters_m1754454264
xBc:__ZN17AnimationCurveTplIfE16StripInvalidKeysEv
GDg:_Boolean_Equals_m535526264_AdjustorThunk
Ocd:__ZNK2UI6Canvas17GetSortingLayerIDEv
rCc:__ZL12HashLen0to16PKcj
EVj:_il2cpp_method_has_attribute
uVa:__ZN8Renderer24SetupNewRendererForSceneEv
ZOh:_Type_internal_from_name_m1721940673
XVj:_il2cpp_type_get_class_or_element_class
Bbh:_Environment_get_TickCount_m2088073110
Ujf:_RemotingServices_GetMethodBaseFromName_m3194612939
TPc:__Z35Transfer_Blittable_FixedBufferFieldI8JSONReadtEvRK29SerializationCommandArgumentsR31RuntimeSerializationCommandInfo
wzc:__ZN14PlayableOutput6HandleEv
GWa:__ZNK6Sprite22GetTypeVirtualInternalEv
Lpa:__ZN9Scripting11UnityEngine12Experimental9Playables22MaterialEffectPlayable9InitProxyEv
nn:FUNCTION_TABLE_iiiiiiiiiiiiii
wyj:_NativePropertyAttribute__ctor_m2033094153
g3c:_UNITY_tt_get_cmap_info
Ekg:_SslClientStream_RaiseServerCertificateValidation_m3477149273
Evb:__Z29Transfer_Blittable_ArrayFieldI24GenerateTypeTreeTransfer5RectTIiEEvRT_R9ArrayInfoRK23StaticTransferFieldInfo
vGa:__ZN16ReflectionProbes8ScheduleEN18ReflectionProbeJob7JobTypeEP15ReflectionProbei
zgg:_ClientSessionInfo_KeepAlive_m1020179566
Vaa:__ZN16MessageForwarder13HandleMessageEPviR11MessageData
Tcb:__Z18IsDirectoryCreatedRKN4core12basic_stringIcNS_20StringStorageDefaultIcEEEE
jog:_String_FormatHelper_m3913915042
Mad:__ZN2UI13CanvasManagerD2Ev
kQe:_ConstructorInfo__cctor_m1016079270
ZBj:__ZN15dense_hashtableINSt3__24pairIK10KeyWrapperIPKcEP11Il2CppClassEES5_N6il2cpp5utils11StringUtils12StringHasherIS4_EEN14dense_hash_mapIS5_S8_SE_NS5_14EqualsComparerINSB_13VmStringUtils21CaseSensitiveComparerEEENS0_9allocatorIS9_EEE9SelectKeyESJ_SL_E15set_deleted_keyERKS9_
azg:_AttrListImpl_get_Names_m977594476
DQe:_CustomAttributeData_GetHashCode_m3727773664
nZc:_UNITY_FT_GlyphLoader_Done
fga:__ZNSt3__23mapIiN11TypeManager18TypeCallbackStructENS_4lessIiEENS_9allocatorINS_4pairIKiS2_EEEEEixERS7_
UMd:_Pointer_Box_m389276611
nnb:__ZNK17InstancingBatcher15RenderInstancesERK19ShaderPropertySheetRKNS_22RenderInstancesConfigsERK11MeshBuffersRK16DrawBuffersRange16VertexInputMasks
z9g:_StackTrace_get_FrameCount_m344690939
B9:__ZN13dynamic_arrayIcLj0EE6insertEPcPKcS3_
cJe:_UnexceptionalStreamWriter_Write_m363195622
g4c:_tt_cmap14_char_var_index
$Of:_Selectable_OnPointerDown_m1086067264
l8c:_psh_globals_new
kCd:_Dropdown_SetupTemplate_m628218778
VKh:_Thread_GetCompressedStack_m2923422412
KAf:_Matrix4x4_MultiplyPoint3x4_m4145063176
f3f:_X509BasicConstraintsExtension_ToString_m1809935297
Zgb:__ZN9GfxDevice20SetMaxBufferedFramesEi
sbi:_TweenRunner_1_StartTween_m1055628540_gshared
nZh:_ReadOnlyCollection_1_System_Collections_IList_Remove_m4129318771_gshared
PJi:_GameObject_GetComponents_TisRuntimeObject_m1246177135_gshared
Zqk:dynCall_vdd
WJe:_MethodAccessException__ctor_m3542088436
rcc:__Z23ConvertIntegerToTypePtrIsEbPvR14SafeBinaryRead
ut:__ZN9Scripting11UnityEngine10Animations26AnimatorControllerPlayable9InitProxyEv
dmd:__ZN11UnityEngine7Connect13ConfigHandler13ConfigChangedERKN4core12basic_stringIcNS2_20StringStorageDefaultIcEEEEb
$wh:_EqualityComparer_1_System_Collections_IEqualityComparer_GetHashCode_m2230215241_gshared
WEe:__ZL60ContentSizeFitter_t3850442145_CustomAttributesCacheGeneratorP21CustomAttributesCache
hKg:_Hashtable_Contains_m2145146412
xja:__ZN6prcoreL29inner_stretch_rgb565_bilinearEPKNS_9InnerInfoE
iDa:__Z26TransformVerticesInnerLoopILb0ELb0ELb1EEvPhRK10Matrix4x4fRK10Matrix3x3fjPKhiS8_ii25GfxTransformVerticesFlagsj
jRg:_Int32_FindCurrency_m3541026887
W8f:_Interval_CompareTo_m3282557545
Pxk:_pthread_cond_wait__wrapper
C3b:__ZNK14RenderSettings19GetFlatAmbientColorEv
DCa:__ZN8DrawUtil24DrawMeshRawFromNodeQueueERK15RenderNodeQueuej16VertexInputMasksi
z3a:__ZN18StreamedBinaryReadILb0EE21TransferSTLStyleArrayI10vector_mapIPKN5Unity4TypeE7Hash128NSt3__24lessIS6_EENS8_9allocatorINS8_4pairIS6_S7_EEEEEEEvRT_17TransferMetaFlags
dB:__ZNK27StateMachineBehaviourPlayer15IsSenderEnabledEv
zOj:__ZN6il2cpp2gc19AppendOnlyGCHashMapINSt3__24pairIPK11Il2CppImageP11Il2CppClassEEP22Il2CppReflectionModule17ReflectionMapHashIS9_ENS2_8equal_toIS9_EEE11TryGetValueERKS9_PSB_
t2i:_RijndaelManagedTransform_TransformBlock_m1610137419
xqc:__Z40Register_UnityEngine_Transform_SetParentv
IOa:__ZN14Texture2DArray17UploadToGfxDeviceEv
aO:__Z14FMODMemoryFreePvjPKc
Epa:__ZN9Scripting11UnityEngine12Experimental10PlayerLoop11FixedUpdate12CleanupProxyEv
Wwf:_NetFxCoreExtensions_GetMethodInfo_m444570327
QOh:_Type_get_IsSystemType_m624798880
lBf:_Mesh_SetNormals_m2521889643
y$c:_cf2_glyphpath_moveTo
YDc:__Z51Register_UnityEngine_Texture_get_texelSize_Injectedv
aJf:_StackTraceUtility_SetProjectFolder_m830524047
Dx:__ZN7mecanim23TransformValueArrayLoopEiiiRKN4math4trsXES3_RNS_10ValueArrayEf
Ogg:_ClientSessionInfo_Finalize_m2165787049
qKc:__ZN5IMGUI14GUIWindowStateD2Ev
Lfg:_ClientContext_Clear_m1774063253
QAc:__ZN4Mesh17SetIndicesComplexEPKvjj16GfxPrimitiveTypeij
T5g:_DateTime_AddSeconds_m332574389_AdjustorThunk
NKf:_RequestAtlasCallback_Invoke_m378128467
hEg:_Byte_System_IConvertible_ToSByte_m1869482168
Jji:__Z99RuntimeInvoker_RuntimeObject_RuntimeObject_RuntimeObject_StreamingContext_t3711869237_RuntimeObjectPFvvEPK10MethodInfoPvPS4_
Ojj:_AnalyticsEventTracker_Awake_m2780522130
DE:__ZN7mecanim5human10RetargetToEPKNS0_5HumanEPKNS0_9HumanPoseES6_RKN4math4trsXEPS4_PNS_8skeleton13SkeletonPoseTIS8_EESF_
wx:__ZN7mecanim9animation8SeekClipERKNS0_12StreamedClipERNS0_18StreamedClipMemoryEf
Hyf:_GameObject_Internal_AddComponentWithType_m3797731663
lm:_emscripten_glIsTexture
Sk:_emscripten_glHint
Sij:_Check_SourceAndPredicate_m2332465641
W6c:_ft_var_readpackeddeltas
Myb:__Z35Transfer_Blittable_FixedBufferFieldI18StreamedBinaryReadILb1EEtEvRK29SerializationCommandArgumentsR31RuntimeSerializationCommandInfo
iRh:_UInt32_System_IConvertible_ToInt64_m2261037378
om:_SDL_UpperBlit
qGa:__Z35GetTextureDecodeValuesWithIntensity16TextureUsageMode17TextureColorSpace10ColorSpacef
Abj:_Parser_ParseRepetitionBounds_m1246581246
gdh:_Array_InternalArray__ICollection_Remove_TisChar_t3634460470_m4143749387_gshared
DUb:__ZN15dense_hashtableINSt3__24pairIK9TextureIDiEES2_14GfxGenericHashIS2_EN14GfxDoubleCacheIS2_iS6_NS0_8equal_toIS2_EEN31GfxDoubleCacheConcurrencyPolicy11LocklessGetE42GfxDoubleCacheDefaultEmptyDeletedGeneratorIS2_EE9SelectKeyES9_13stl_allocatorIS4_L18MemLabelIdentifier24ELi16EEE14squash_deletedEv
Zrc:__Z13RegisterClassI14Texture2DArrayEvPKc
Uvg:_Encoding_GetBytes_m3823106599
_Lg:_GregorianCalendar__ctor_m979779718
dkg:_SslClientStream__ctor_m2402546929
fFb:__ZN14SafeBinaryRead20OverrideRootTypeNameEPKc
n$f:_DictionaryNodeEnumerator_get_Entry_m2309234501
R9:__ZN14FileCacherRead16UnlockCacheBlockEj
sH:__ZN26AnimatorOverrideController8TransferI24GenerateTypeTreeTransferEEvRT_
$3:__ZN10InstancingL21OnGraphicsCapsChangedEv
Lme:__ZL101SystemInfo_t3561985952_CustomAttributesCacheGenerator_SystemInfo_GetOperatingSystemFamily_m1440411909P21CustomAttributesCache
YMh:_WaitHandle_get_Handle_m3260446580
CEh:_Enumerator_VerifyState_m1745883925_AdjustorThunk
Gc:_emscripten_glUniform1f
GZg:_SortedList__ctor_m1261191695
SWj:__ZN6il2cpp2vm6Thread28GetThreadStaticDataForThreadEiP12Il2CppThread
_Zc:__Z20ParseImageParametersR11UTF16StringRiRN20TextRenderingPrivate16TextFormatChangeE
LEe:__ZL55CanvasScaler_t2767979955_CustomAttributesCacheGeneratorP21CustomAttributesCache
Lc:_emscripten_glUniform1i
$tb:__Z18Transfer_BlittableI24GenerateTypeTreeTransferLb1EN4math12int3_storageEEvRK29SerializationCommandArgumentsR31RuntimeSerializationCommandInfo
kVf:__Z14bankers_roundff
rY:__ZN11UnityEngine15CloudWebService16SessionContainer20RestoreSessionHeaderERKN4core12basic_stringIcNS2_20StringStorageDefaultIcEEEES8_RNS0_13SessionHeaderE
Ihk:__ZN6il2cpp2os12Cryptography23GetCryptographyProviderEv
pu:__ZN11UnityEngine9Animation27CreateAvatarBindingConstantER9TransformPKN7mecanim9animation14AvatarConstantERNS3_6memory9AllocatorE
Zii:__Z151RuntimeInvoker_RuntimeObject_Int32_t2950945753_RuntimeObject_ObjectU5BU5DU26_t712384779_RuntimeObject_RuntimeObject_RuntimeObject_ObjectU26_t2146539884PFvvEPK10MethodInfoPvPS4_
Qgd:__ZN8JSONRead19TransferSTLStyleMapINSt3__23mapIN4core12basic_stringIcNS3_20StringStorageDefaultIcEEEEN11UnityEngine9Analytics16LimitEventConfigENS1_4lessIS7_EE13stl_allocatorINS1_4pairIKS7_SA_EEL18MemLabelIdentifier6ELi16EEEEEEvRT_17TransferMetaFlags
nDc:__ZN9BlobWriteC2ER13dynamic_arrayIhLj16EE24TransferInstructionFlags19BuildTargetPlatform
Vyd:_CanvasUpdateRegistry__ctor_m2005397069
Z7:__ZN14MessageHandler3GetEv
jKd:_MonoMethodInfo_GetCallingConvention_m3156036493
qyf:_SupportedRenderingFeatures_FallbackMixedLightingModeByRef_m3859171964
_c:_emscripten_glAttachShader
$1:__Z40DebugStringToFilePostprocessedStacktraceRK21DebugStringToFileData
MGd:_Image__cctor_m1927508576
Wgc:__ZNSt3__26vectorIN4core12basic_stringIcNS1_20StringStorageDefaultIcEEEENS_9allocatorIS5_EEE6assignIPS5_EENS_9enable_ifIXaasr21__is_forward_iteratorIT_EE5valuesr16is_constructibleIS5_NS_15iterator_traitsISC_E9referenceEEE5valueEvE4typeESC_SC_
IUa:__ZThn32_N8Renderer15AddAsRenderNodeER15RenderNodeQueueRK20DeprecatedSourceData
_Qb:__ZN13dynamic_arrayIN18GlslGpuProgramGLES9GLProgramELj0EE6insertEPS1_jRKS1_
F5e:_InternalEnumerator_1_get_Current_m3331252162_AdjustorThunk
xob:__Z18Transfer_BlittableI14SafeBinaryReadLb0E11QuaternionfEvRK29SerializationCommandArgumentsR31RuntimeSerializationCommandInfo
VBb:__Z18Transfer_BlittableI18StreamedBinaryReadILb0EELb1E12PropertyNameEvRK29SerializationCommandArgumentsR31RuntimeSerializationCommandInfo
J1:_tlsf_walk_heap
Oii:__Z49RuntimeInvoker_Void_t1185182177_OpCode_t123070264PFvvEPK10MethodInfoPvPS4_
DYj:__ZNK15dense_hashtableINSt3__24pairIK10KeyWrapperIP11Il2CppClassES4_EES5_N6il2cpp8metadata16SZArrayClassHashEN14dense_hash_mapIS5_S4_SA_NS5_14EqualsComparerINS9_19SZArrayClassCompareEEENS0_9allocatorIS7_EEE9SelectKeyESE_SG_E10test_emptyERK24dense_hashtable_iteratorIS7_S5_SA_SI_SE_SG_E
Yse:__ZL59AnimatorClipInfo_t3156717155_CustomAttributesCacheGeneratorP21CustomAttributesCache
$3g:_Convert_ToUInt32_m3592050311
gb:invoke_vif
EJi:_Component_GetComponents_TisRuntimeObject_m2416546752_gshared
hb:invoke_vid
Zok:__ZNSt3__212basic_stringIcNS_11char_traitsIcEENS_9allocatorIcEEE6insertEjPKc
jb:invoke_vii
POe:_Random_Sample_m2289397474
Jua:__ZN12TLSAllocatorI14StackAllocatorE16ThreadInitializeEP13BaseAllocator
mki:__Z82RuntimeInvoker_Boolean_t97287965_SByte_t1669577662_RuntimeObject_SByte_t1669577662PFvvEPK10MethodInfoPvPS4_
ihb:__ZN9GfxDevice32UpdateStereoViewProjectionMatrixE21MonoOrStereoscopicEye
J_:__Z29GetCloudWebServicesModuleSpecv
Jdd:__Z41CanvasRenderer_CUSTOM_DisableRectClippingP12Il2CppObject
gLe:_MonoType_GetConstructorImpl_m441167626
wka:__ZL45__ManagedRegistrationHelperFunction_CoroutinePv
_Zi:_Collection_1_IsFixedSize_m3709118201_gshared
vfb:__ZN25SingleBlockMemoryFileDataD0Ev
jK:__ZNSt3__26vectorI14ConstantStringNS_9allocatorIS1_EEE6assignINS_11__wrap_iterIPS1_EEEENS_9enable_ifIXaasr21__is_forward_iteratorIT_EE5valuesr16is_constructibleIS1_NS_15iterator_traitsISA_E9referenceEEE5valueEvE4typeESA_SA_
mY:__ZN11UnityEngine15CloudWebService16SessionContainer21ConvertFromFolderTimeERKN4core12basic_stringIcNS2_20StringStorageDefaultIcEEEEPjPt
Bof:_CodeAccessPermission_Equals_m1555575992
hqb:__ZNSt3__26vectorI8GUIStyle13stl_allocatorIS1_L18MemLabelIdentifier1ELi16EEE7reserveEj
BZj:__ZN6il2cpp6icalls8mscorlib6System9Threading6Thread27GetSerializedCurrentCultureEP12Il2CppThread
jhg:_Context_set_ReadSequenceNumber_m2154909392
o2i:_RijndaelTransform_SubByte_m3037693507
xtc:__Z31CalculateHierarchyTransformType23TransformAccessReadOnly
CN:__ZN4FMOD8ChannelI11setPositionEjj
lzf:_Input_INTERNAL_CALL_GetTouch_m3481893561
wdk:_GC_set_fl_marks
c4a:__ZNSt3__26vectorIN30RuntimeInitializeOnLoadManager15ClassMethodInfoE13stl_allocatorIS2_L18MemLabelIdentifier13ELi16EEE7reserveEj
lhb:__ZN9GfxDevice17SetStereoViewportE15StereoscopicEyeRK5RectTIiE
Xfa:__ZN17BaseObjectManager13StaticDestroyEPv
C0:__GLOBAL__sub_I_Runtime_Graphics_Mesh_1_cpp
kvj:_CanvasRenderer_INTERNAL_CALL_GetColor_m597074473
s7e:_Comparer_1__cctor_m3891417387_gshared
lKh:_UTF7Decoder_GetChars_m3413809261
kT:__ZN12AudioManager14UpdateListenerERK8Vector3fS2_S2_S2_
GSe:_EnumBuilder_GetEvent_m4074915332
lKf:_Vector3_get_forward_m3100859705
FL:__ZN4FMOD6Reverb13setPropertiesEPK22FMOD_REVERB_PROPERTIES
n_b:__ZN9DepthPass13PrepareSubsetEjRK10RenderNodeifRK17ShaderReplaceData
ksg:_String_IndexOf_m3406607758
Mfc:__ZN9ShaderLab20SerializedSubProgram16TextureParameter8TransferI14SafeBinaryReadEEvRT_
W2c:_otv_BaseCoord_validate
YAc:__Z35SetMeshComponentFromArrayFromScriptR4Mesh30InternalScriptingShaderChannel34InternalScriptingVertexChannelTypei17ScriptingArrayPtri
Kih:_Array_InternalArray__ICollection_Add_TisCustomAttributeNamedArgument_t287865710_m4157175270_gshared
Gq:__ZN4core20StringStorageDefaultIcE6assignEPKcj
nSh:_UInt64_System_IConvertible_ToUInt64_m2135047981_AdjustorThunk
bag:_BigInteger_ModPow_m3776562770
S4j:__ZN15dense_hashtableINSt3__24pairIK10KeyWrapperIP12Il2CppObjectEN6il2cpp2gc9CachedCCWEEES5_NS7_5utils11PointerHashIS3_EEN14dense_hash_mapIS5_S9_SD_NS5_14EqualsComparerINS0_8equal_toIS4_EEEENS0_9allocatorISA_EEE9SelectKeyESI_SK_E3endEv
$kd:__ZNSt3__26__treeINS_12__value_typeIN4core12basic_stringIcNS2_20StringStorageDefaultIcEEEE14CallbackArray3IRKS6_R8JSONReadbEEENS_19__map_value_compareIS6_SD_NS_4lessIS6_EELb1EEE13stl_allocatorISD_L18MemLabelIdentifier6ELi16EEE25__emplace_unique_key_argsIS6_JNS_4pairIS6_SC_EEEEENSN_INS_15__tree_iteratorISD_PNS_11__tree_nodeISD_PvEEiEEbEERKT_DpOT0_
kjg:_RecordProtocol_ProcessChangeCipherSpec_m15839975
rGg:_ArrayList_IndexOf_m305368842
n8b:__ZN6Camera6SetFarEf
Qkf:_FormatterConverter_ToBoolean_m1680758923
hja:__ZN6prcoreL12RemapGenericI17TexFormatABGR888817TexFormatARGB8888EEvPKNS_9InnerInfoE
gva:__ZN11GameManager17MainThreadCleanupEv
mXh:_ReadOnlyCollection_1__ctor_m1345363288_gshared
qdd:__Z50Register_UnityEngine_UISystemProfilerApi_EndSamplev
Rlf:_SerializationCallbacks_GetSerializationCallbacks_m2939476649
I5c:_UNITY_tt_slot_init
XVb:__ZZ23InitPlayerLoopCallbacksvEN41PostLateUpdateUpdateResolutionRegistrator7ForwardEv
KDb:__Z25scripting_array_class_get17ScriptingClassPtrj
UNc:__ZL22Transfer_ManagedObjectI9JSONWriteLb1EEvRK29SerializationCommandArgumentsR31RuntimeSerializationCommandInfo
dS:__ZNK10SampleClip22GetTypeVirtualInternalEv
dib:__ZN9GfxDevice20DestroyRenderSurfaceER12ObjectHandleI17RenderSurface_TagP17RenderSurfaceBaseE
v_g:_Stack__ctor_m2602729586
YBg:_Array_slow_swapper_m4116724811
f7b:__ZN12_GLOBAL__N_15qAsinEff
DZe:_InternalEnumerator_1_System_Collections_IEnumerator_get_Current_m2629988057_AdjustorThunk
Kua:__ZN12TLSAllocatorI14StackAllocatorE13ThreadCleanupEv
DZa:__ZN14SafeBinaryRead21TransferSTLStyleArrayI13dynamic_arrayI8Vector4fLj0EEEEvRT_17TransferMetaFlags
gTh:_ValueType_InternalEquals_m1384040357
abk:__ZThn4_N6il2cpp2vm13ComObjectBase16MarshalInterfaceEP13Il2CppIStreamRK10Il2CppGuidPvjS7_j
M1g:_Convert_ToDouble_m996590115
Ddc:__Z27FindActiveTransformWithPathPKc
K$h:_ReadOnlyCollection_1_System_Collections_IList_Remove_m4169110229_gshared
OQh:_UInt16_ToString_m3020002356
SRf:_LayoutRebuilder_LayoutComplete_m68578143
ahj:_GUIStyle_get_fixedWidth_m2576616348
WZg:_SortedList_Find_m3363512987
u0b:__ZNK6Camera7GetNearEv
oTe:_GenericTypeParameterBuilder_GetConstructorImpl_m863833310
cbf:_Enumerator_get_Current_m3687673883_AdjustorThunk
fcd:__ZN2UI13CanvasManager8SortListEv
HQb:__ZN7ApiGLES11UnmapBufferEjN2gl12BufferTargetE
rbk:__ZN6il2cpp5utilsL24Utf32CharToSurrogatePairEjRA2_Ds
wRa:__Z25GetNextAllowedTextureSizeib13TextureFormat
BGb:__ZN20LocalFileSystemWebGL4CopyER13FileEntryDataS1_
s$:__ZN19CloudServiceHandler6RetainEv
cYh:_ReadOnlyCollection_1_System_Collections_IList_IndexOf_m198887188_gshared
Wui:__Z71RuntimeInvoker_Vector2_t2156229523_Vector2_t2156229523_Rect_t2360479859PFvvEPK10MethodInfoPvPS4_
pIc:__Z36Event_CUSTOM_Internal_SetNativeEventPv
BJh:_UTF32Encoding_GetBytes_m3180303867
OZh:_ReadOnlyCollection_1_System_Collections_IList_Clear_m2007013334_gshared
D8a:__Z34scripting_liveness_calculation_endPv
LEg:_Char_GetDataTablePointers_m754571594
u7j:__ZN6il2cpp2os6ThreadC2Ev
Hvc:__ZN28ReflectionProbeAnchorManager7CleanupEv
V6g:_DateTimeOffset_get_UtcDateTime_m1021718282_AdjustorThunk
Rw:__ZN21AnimationClipPlayable22ProcessAnimationNoClipEPK35AnimationPlayableEvaluationConstantPK32AnimationPlayableEvaluationInputP33AnimationPlayableEvaluationOutput
K_f:_HybridDictionary_get_Count_m1166314536
v5i:_TlsStream_Write_m1412844442
vPc:__Z18Transfer_BlittableI8JSONReadLb0E8Vector3fEvRK29SerializationCommandArgumentsR31RuntimeSerializationCommandInfo
CAf:_Matrix4x4__ctor_m53065545_AdjustorThunk
tWj:__ZN6il2cpp2vm6Thread6DetachEP12Il2CppThread
Y5i:_GeneralNames_get_DNSNames_m3788548987
A8c:_Render_Single_Pass
Rkk:_Hacker_OnUserInput_m1095014035
_mg:_SymmetricAlgorithm_get_IV_m1875559108
Pka:__ZL56__ManagedRegistrationHelperFunction_TextureMixerPlayablePv
Du:__ZN7mecanim8skeleton30SkeletonBuildReverseIndexArrayEPiPKiPKNS0_8SkeletonES6_
MIc:__Z19GetGUIBlendMaterialv
LJe:_Math_Round_m3018379666
j8j:__ZN6il2cpp2os10ThreadImpl5SleepEjb
eYh:_ReadOnlyCollection_1_System_Collections_IList_Remove_m1965826685_gshared
Qld:__ZN22BaseUnityConnectClient12IsNewSessionEv
mve:__ZL82LayoutCache_t78309876_CustomAttributesCacheGenerator_LayoutCache__ctor_m3885940174P21CustomAttributesCache
U8g:_Delegate_CreateDelegate_m1051651521
oeh:_PlayableHandle_IsPlayableOfType_TisRuntimeObject_m503495943_AdjustorThunk
rwk:_glBindSampler__wrapper
dVb:__ZNSt3__26vectorIN20ArchiveStorageHeader12StorageBlockE13stl_allocatorIS2_L18MemLabelIdentifier55ELi16EEE8__appendEj
Gf:_emscripten_set_mouseup_callback
uAf:_Mathf_Clamp_m3350697880
zki:__Z165RuntimeInvoker_Void_t1185182177_UInt32U26_t3735378166_Int32_t2950945753_UInt32U26_t3735378166_Int32_t2950945753_Int32_t2950945753_Int32_t2950945753_Int32_t2950945753PFvvEPK10MethodInfoPvPS4_
qHh:_List_1_System_Collections_IList_Remove_m3140917266_gshared
h6f:_X509ChainElementCollection_System_Collections_IEnumerable_GetEnumerator_m3829089536
uGb:__ZNK18ScreenManagerWebGL8GetWidthEv
yNh:_TimeSpan_get_TotalHours_m306507525_AdjustorThunk
aS:__ZN10SampleClipD2Ev
z6h:_Predicate_1_Invoke_m2389850270_gshared
X7a:__Z13GetGISettingsv
c$:__ZN11UnityEngine15CloudWebService20WebRequestRestClientC2Ev
h1c:_cff_cmap_unicode_init
sch:_Array_InternalArray__ICollection_Contains_TisRuntimeObject_m4067783231_gshared
cka:__ZL60__ManagedRegistrationHelperFunction_AssemblyIsEditorAssemblyPv
DYi:_Collection_1_IsValidItem_m3080586124_gshared
vzd:_ClipperRegistry_Register_m2407166513
znk:_readlink
TPj:__ZN15dense_hashtableINSt3__24pairIK10KeyWrapperINS1_IPK9EventInfoP11Il2CppClassEEEjEES9_17ReflectionMapHashIS8_EN14dense_hash_mapIS9_jSD_NS9_14EqualsComparerINS0_8equal_toIS8_EEEENS0_9allocatorISB_EEE9SelectKeyESI_SK_E12resize_deltaEjj
eKd:_MonoCMethod_Invoke_m2700167622
JKg:_KeyMarker__cctor_m2590194914
Jik:__ZN6il2cpp2os13SemaphoreImplC2Eii
P_a:__ZNK6Sprite9GetBoundsE8Vector2fbb
Lza:__ZNK19RenderEventsContext21CleanupCommandBuffersEv
ruj:_TextGenerator_PopulateWithErrors_m1222498386
Q_h:_ReadOnlyCollection_1_System_Collections_Generic_ICollectionU3CTU3E_Clear_m2102011098_gshared
gOb:__ZN11ContextGLES6CreateEi
IOi:_List_1_set_Capacity_m3382070520_gshared
qQf:_U3CMouseDragOutsideRectU3Ec__Iterator1_Dispose_m267465418
v8g:_Decimal_CompareTo_m3502307243_AdjustorThunk
KCb:__Z19TransferField_ArrayI18StreamedBinaryReadILb0EE27Converter_SimpleNativeClassI17AnimationCurveTplIfEEEvRK23StaticTransferFieldInfoR31RuntimeSerializationCommandInfoRT0_
cva:__ZN14StackAllocator16FrameMaintenanceEb
$Ta:__Z18ReadStringFromFilePN4core17string_with_labelILi1EEERKNS_12basic_stringIcNS_20StringStorageDefaultIcEEEE
oOc:__ZN9JSONWrite8TransferI13dynamic_arrayIjLj0EEEEvRT_PKc17TransferMetaFlags
Caa:__ZNK10GameObject20QueryComponentByTypeEPKN5Unity4TypeE
O7g:_Decimal_System_IConvertible_ToInt32_m1488426794_AdjustorThunk
mKe:_MonoCustomAttrs_IsUserCattrProvider_m2878058089
vCe:__ZL71InputField_t3762917431_CustomAttributesCacheGenerator_m_HideMobileInputP21CustomAttributesCache
fQa:__ZN11TextureData5ResetEv
Jnc:__Z53Register_UnityEngine_GameObject_get_activeInHierarchyv
vng:_ToBase64Transform_InternalTransformFinalBlock_m360524956
hzg:_ActivationContext_Dispose_m2038725770
I5:__ZL30InitializeCoreScriptingClassesv
XFa:__ZN15SerializeTraitsI12fixed_bitsetILi28EjEE8TransferI18StreamedBinaryReadILb0EEEEvRS1_RT_
Dg:_glBlitFramebuffer
Yrb:__Z35Transfer_Blittable_SingleValueFieldI14SafeBinaryReadhEvRT_R17GeneralMonoObjectRK23StaticTransferFieldInfo
MNh:_TimeSpan_Duration_m2963553230
zkc:__ZN12CachedWriter15CompleteWritingEv
nQa:__ZNK12CubemapArray22GetTypeVirtualInternalEv
Kn:FUNCTION_TABLE_vif
Ln:FUNCTION_TABLE_vid
Nn:FUNCTION_TABLE_vii
O8a:__Z40scripting_liveness_calculation_from_root18ScriptingObjectPtrPv
HKa:__ZN7Texture23VirtualRedirectTransferER24GenerateTypeTreeTransfer
sYc:_UNITY_FT_Set_Transform
E3j:__ZN6il2cpp8metadata15GenericMetadata20RegisterGenericClassEP18Il2CppGenericClass
Wvk:_glDeleteFramebuffers__wrapper
Xgi:__Z220RuntimeInvoker_Boolean_t97287965_RuntimeObject_Int32U26_t1369213839_Int32_t2950945753_Int32_t2950945753_Int32_t2950945753_RuntimeObject_SByte_t1669577662_Int32_t2950945753_ContractionU26_t961830454_ContextU26_t3937453398PFvvEPK10MethodInfoPvPS4_
cph:_BitConverterLE_GetUIntBytes_m949779219
r$c:_cff_blend_build_vector
j2f:_WebHeaderCollection_ToString_m1263025316
Zqc:__Z26Input_CUSTOM_GetButtonDownP12Il2CppString
mMd:_GetterAdapter_Invoke_m3767885970
JPi:_List_1__ctor_m747758800_gshared
aug:_String_CreateString_m2818852475
Ivj:_CanvasRenderer_get_hasMoved_m2236392341
zCf:_MessageEvent__ctor_m1231650089
Oab:__ZNK15Lz4Decompressor16DecompressMemoryEPKvPjPvS2_
iza:__Z11IsCoroutine18ScriptingMethodPtrRK22CommonScriptingClasses
kkc:__ZN4core8hash_mapINS_12basic_stringIcNS_20StringStorageDefaultIcEEEE10vector_setI4PPtrI11SpriteAtlasENSt3__24lessIS8_EE13stl_allocatorIS8_L18MemLabelIdentifier81ELi16EEENS_4hashIS4_EENS9_8equal_toIS4_EEEixERKS4_
sNa:__Z35UnityPropertySheet_MakeSortedColorsRKNSt3__23mapIN9ShaderLab16FastPropertyNameE10ColorRGBAfNS_4lessIS2_EENS_9allocatorINS_4pairIKS2_S3_EEEEEER10vector_mapIS2_S3_S5_NS6_INS7_IS2_S3_EEEEE
An:FUNCTION_TABLE_iiiiiiffiiiiiiiiiffffiii
y3c:_UNITY_tt_face_load_os2
rkh:_Array_InternalArray__ICollection_CopyTo_TisUICharInfo_t75501106_m4268526610_gshared
rrb:__Z29Transfer_Blittable_ArrayFieldI14SafeBinaryRead8Vector4fEvRT_R9ArrayInfoRK23StaticTransferFieldInfo
d6j:__GLOBAL__sub_I_BoehmGC_cpp
PG:__ZNK26AnimatorOverrideController22GetTypeVirtualInternalEv
_Pe:_Default_check_arguments_m3882727959
HKh:_UTF8Encoding_GetMaxCharCount_m3762459613
fRe:_ModuleBuilder_RegisterToken_m4166846047
OVb:__ZZ23InitPlayerLoopCallbacksvEN51PostLateUpdateUpdateCustomRenderTexturesRegistrator7ForwardEv
$Tf:_RawImage_OnPopulateMesh_m1115858855
JHj:__ZN6il2cpp2vm13MetadataCache25GetStringLiteralFromIndexEi
Izg:_Hashtable_ToPrime_m33531354
ox:__ZN7mecanim9animation12EvaluateClipEPKNS0_4ClipEPKNS0_9ClipInputEPNS0_10ClipMemoryEPNS0_10ClipOutputE
wUh:_Collection_1_IsSynchronized_m1117613618_gshared
rV:__ZN11AudioModule6UpdateEv
Jbf:_KeyCollection_System_Collections_Generic_ICollectionU3CTKeyU3E_Remove_m2555909644_gshared
nlk:_Keyboard_WarnIfTerminalNotConneced_m1063217717
TPh:_TypeInitializationException__ctor_m3546444694
Rpc:__ZNK9Transform16GetLocalRotationEv
e_:__ZN11UnityEngine15CloudWebService23WebRequestUploadHandler17ConsumeUploadDataEj
ovi:__Z68RuntimeInvoker_Void_t1185182177_Single_t1397266774_SByte_t1669577662PFvvEPK10MethodInfoPvPS4_
xXg:_MemoryStream_set_Position_m3169779190
h7b:__ZN13RenderManager29SetCurrentCameraAndStackStateEP6CameraP25CameraStackRenderingState
pud:_ExecuteEvents_get_scrollHandler_m2659345019
Dva:__ZNSt3__26__treeINS_12__value_typeIjN4core12basic_stringIcNS2_20StringStorageDefaultIcEEEEEENS_19__map_value_compareIjS7_NS_4lessIjEELb1EEE13stl_allocatorIS7_L18MemLabelIdentifier7ELi16EEE7destroyEPNS_11__tree_nodeIS7_PvEE
wYj:__ZN15dense_hashtableINSt3__24pairIK10KeyWrapperINS1_IP11Il2CppClassjEEES4_EES6_N6il2cpp8metadata14ArrayClassHashEN14dense_hash_mapIS6_S4_SB_NS6_14EqualsComparerINSA_17ArrayClassCompareEEENS0_9allocatorIS8_EEE9SelectKeyESF_SH_E12resize_deltaEjj
Sh:_JS_WebRequest_Release
Vme:__ZL85Time_t2420636075_CustomAttributesCacheGenerator_Time_t2420636075____time_PropertyInfoP21CustomAttributesCache
OY:__ZN11UnityEngine15CloudWebService14DataErrorEventD0Ev
I$j:__ZN6il2cpp6icalls8mscorlib6System4Type20internal_from_handleEi
FRd:_Context__ctor_m254302079
Jpa:__ZN9Scripting11UnityEngine12Experimental9Playables20TextureMixerPlayable9InitProxyEv
hTa:__ZN19ShaderPropertySheet16SetArrayPropertyEN9ShaderLab16FastPropertyNameENS_12PropertyTypeEPKvj
TVf:_Selectable_FindSelectable_m2348614027
hvg:_DecoderReplacementFallbackBuffer_GetNextChar_m2858228391
UCd:_DropdownItem_OnPointerEnter_m1492957598
Vad:__ZN2UI11CanvasGroup23VirtualRedirectTransferER19StreamedBinaryWriteILb0EE
Nqa:__ZN9Scripting11UnityEngine9BoundsInt9InitProxyEv
fkd:__ZN11UnityEngine15PlatformWrapper16GetApplicationIdEv
P5c:_UNITY_TT_Get_VMetrics
S5f:_X509Chain__cctor_m993507223
GHg:_SimpleEnumerator__cctor_m2844299657
tJe:_LocalDataStoreSlot__ctor_m4104083971
c0h:_ReadOnlyCollection_1_System_Collections_Generic_IListU3CTU3E_RemoveAt_m3849058645_gshared
Vmj:_AudioSource_ReadExtensionName_m725112169
Y7i:_X509CertificateEnumerator_System_Collections_IEnumerator_Reset_m2039524926
Jni:__Z128RuntimeInvoker_Void_t1185182177_RuntimeObject_BooleanU26_t4125257963_SByte_t1669577662_Int32U26_t1369213839_Int32U26_t1369213839PFvvEPK10MethodInfoPvPS4_
eLa:__ZN7Texture21GetMasterTextureLimitEv
N1a:__ZN13dynamic_arrayI9InputAxisLj0EE18resize_initializedEj12ResizePolicy
$8b:__Z12CanAddScriptR10GameObject17ScriptingClassPtrPS1_S2_
SSj:__ZN6il2cpp2vm10Reflection12HasAttributeEP12Il2CppObjectP11Il2CppClass
i3h:_Comparison_1_BeginInvoke_m3263247262_gshared
C4:__ZN9ShaderLabL25StaticInitializeShaderLabEPv
U:Math_max
eFe:__ZL64HorizontalLayoutGroup_t2586782146_CustomAttributesCacheGeneratorP21CustomAttributesCache
KUj:_il2cpp_class_get_methods
CIf:_HitInfo_SendMessage_m1343099429_AdjustorThunk
cub:__Z18Transfer_BlittableI24GenerateTypeTreeTransferLb0EN4math12int2_storageEEvRK29SerializationCommandArgumentsR31RuntimeSerializationCommandInfo
y9g:_StackTrace_get_trace_m1194606084
jrg:_Single_CompareTo_m2785801815_AdjustorThunk
C7j:__ZN6il2cpp2os6Thread16GetCurrentThreadEv
xld:__ZN11UnityEngine7Connect20RemoteConfigSettings10UnregisterEv
lFi:_Array_InternalArray__Insert_TisUILineInfo_t4195266810_m3191124053_gshared
$kc:__ZN10GameObject13ComponentPair15SetComponentPtrEPN5Unity9ComponentE
nuk:_glBlitFramebuffer__wrapper
Jva:__ZN10TagManager8TransferI19StreamedBinaryWriteILb0EEEEvRT_
i8a:__ZN11PreloadData23VirtualRedirectTransferER18StreamedBinaryReadILb0EE
ira:__ZN9Scripting11UnityEngine24AssemblyIsEditorAssembly12CleanupProxyEv
TEg:_Char_System_IConvertible_ToDateTime_m3564102661
KK:__ZN13RuntimeStaticINSt3__26vectorI12WebCamDeviceNS0_9allocatorIS2_EEEELb0EE13StaticDestroyEPv
EWa:__ZN6Sprite17MainThreadCleanupEv
wuk:_glBlendFuncSeparate__wrapper
CP:__ZN10AudioMixer14UpdateMuteSoloEv
MAa:__ZN12BaseRenderer25FlattenSharedMaterialDataILb0EEEbRKS_R22PerThreadPageAllocatorR10RenderNode
$wa:__ZN9Transform35SetLocalPositionWithoutNotificationERKN4math7_float3Ey
kje:__ZL101MonoBehaviour_t3962482529_CustomAttributesCacheGenerator_MonoBehaviour_StartCoroutine_Auto_m594129169P21CustomAttributesCache
Ti:_JS_Eval_ClearTimeout
Fmb:__ZN7ApiGLES16SetPatchVerticesEi
jdj:_CharacterClass_Compile_m3296067317
e7j:__ZN6il2cpp2gc16GarbageCollector16InvokeFinalizersEv
gEg:_Byte_System_IConvertible_ToInt64_m285584218_AdjustorThunk
cGf:_Rect_get_size_m477575021_AdjustorThunk
yzj:__ZN6il2cpp2vm5Class20FromGenericParameterEPK22Il2CppGenericParameter
P$:__ZN19CloudServiceHandler11FlushEventsEv
qfa:__ZN15GlobalCallbacksC2Ev
Mih:_Array_InternalArray__ICollection_Add_TisLabelData_t360167391_m1648183135_gshared
n8e:_Comparer_1_System_Collections_IComparer_Compare_m2016223770_gshared
DZh:_ReadOnlyCollection_1_System_Collections_Generic_ICollectionU3CTU3E_Add_m1738170497_gshared
Gmi:__Z74RuntimeInvoker_DateTime_t3738529785_DateTime_t3738529785_Int32_t2950945753PFvvEPK10MethodInfoPvPS4_
e_c:_UNITY_FT_New_Memory_Face
z$i:_Collection_1_System_Collections_IList_IndexOf_m3271188411_gshared
iXg:_MonoIO_GetFileStat_m678141354
P1c:_UNITY_FT_Load_Sfnt_Table
xBd:__Z15CastclassSealedP12Il2CppObjectP11Il2CppClass
k8g:_Decimal_IsZero_m4250358244_AdjustorThunk
dJe:_UnmanagedMemoryStream_get_CanRead_m3770815400
P7b:__ZN16ReflectionProbes40UpdateRealtimeReflectionProbesTimeslicedEv
UWa:__ZN14SafeBinaryRead21TransferSTLStyleArrayI13dynamic_arrayI8Vector2fLj0EEEEvRT_17TransferMetaFlags
x$g:_Decimal_u64_m3374804932
kQh:_UInt16_System_IConvertible_ToInt32_m1950778303_AdjustorThunk
N3a:__ZNK30RuntimeInitializeOnLoadManager22GetTypeVirtualInternalEv
FEj:__ZN15dense_hashtableINSt3__24pairIK10KeyWrapperIN6il2cpp5utils13dynamic_arrayIPK10Il2CppTypeLj4EEEEPFvvEEESA_NS3_8metadata19Il2CppSignatureHashEN14dense_hash_mapISA_SD_SG_NSA_14EqualsComparerINSF_22Il2CppSignatureCompareEEENS0_9allocatorISE_EEE9SelectKeyESK_SM_E12resize_deltaEjj
owc:__ZN16ReflectionProbes15InitializeClassEv
YY:__ZN13dynamic_arrayIN11UnityEngine15CloudWebService14DataErrorEvent15FileErrorDetailELj0EE18resize_initializedEj12ResizePolicy
LZh:_ReadOnlyCollection_1_System_Collections_ICollection_CopyTo_m2527663815_gshared
h1j:__ZN6il2cpp2vm5Image9GetCorlibEv
XLf:_Vector3_get_left_m2428419009
s5j:__ZN6il2cpp2vm11MethodStack17GetStackFramesRawEv
lek:_GC_reclaim_uninit
cud:_ExecuteEvents_Execute_m113814934
Lba:__ZN13RuntimeStaticINSt3__23mapIN4core12basic_stringIcNS2_20StringStorageDefaultIcEEEES6_NS0_4lessIS6_EE13stl_allocatorINS0_4pairIKS6_S6_EEL18MemLabelIdentifier13ELi16EEEELb0EE13StaticDestroyEPv
mvf:_Coroutine_ReleaseCoroutine_m947702340
t8e:_Enumerator_System_Collections_IEnumerator_get_Current_m2979767597_AdjustorThunk
H8h:__ZN30GenericInterfaceActionInvoker1I17Color_t2555686324E6InvokeEPK10MethodInfoP12Il2CppObjectS0_
Arf:_MD5CryptoServiceProvider_ProcessFinalBlock_m2241588515
bXf:_ScrollRect_GetBounds_m449872505
Rj:_glIsVertexArray
uyg:_SmallXmlParser_Read_m3485223434
$Qg:_Int16_Parse_m2276856944
Iad:__ZL42__ManagedRegistrationHelperFunction_CanvasPv
ea:invoke_fff
onk:_mbsinit
ftk:b14
TDc:__Z34RenderTexture_Get_Custom_PropWidthP12Il2CppObject
zbd:__ZN2UI6Canvas17MainThreadCleanupEv
aja:__ZN6prcoreL12RemapGenericI17TexFormatARGB155517TexFormatRGBA8888EEvPKNS_9InnerInfoE
rBj:__ZN13Il2CppHashMapIPK19Il2CppGenericMethodPK26Il2CppGenericMethodIndicesN6il2cpp8metadata23Il2CppGenericMethodHashENS7_26Il2CppGenericMethodCompareENSt3__29allocatorINSA_4pairIK10KeyWrapperIS2_ES5_EEEEEC2EjRKS8_RKS9_
gId:_TypeBuilder_HasElementTypeImpl_m1871001960
oqg:_SecurityFrame__ctor_m2140076703_AdjustorThunk
uHi:_Array_Resize_TisVector2_t2156229523_m3382835435_gshared
xwh:_DefaultComparer_Equals_m2458578172_gshared
Zmb:__ZN7ApiGLES13CreateProgramEv
XHa:__ZN11HaloManager7AddHaloEv
U8e:_Enumerator_VerifyState_m4003066746_gshared
IRa:__ZN4crnd12crn_unpackerD2Ev
_K:__ZN9Scripting11UnityEngine12Experimental5Audio19AudioSampleProvider9InitProxyEv
fk:_emscripten_glTexImage2D
h7e:_Comparer_1_System_Collections_IComparer_Compare_m2537217645_gshared
LCa:__ZN16MeshVertexFormat20GetVertexDeclarationER9GfxDevice16VertexInputMasksPKS_
x5:__ZN18ScriptingArguments9AddStringEPKc
Fek:_setup_header
LFg:_Char_ToString_m3588025615
Bph:_CryptoConvert_ToCapiKeyBlob_m3371450375
$Oa:__ZL23stbir__resize_arbitraryPvPKviiiS_iiiffffPfiij14stbir_datatype12stbir_filterS4_10stbir_edgeS5_16stbir_colorspace
wub:__Z18Transfer_BlittableI24GenerateTypeTreeTransferLb1E8Vector4fEvRK29SerializationCommandArgumentsR31RuntimeSerializationCommandInfo
jtk:b18
qk:_pthread_detach
LIj:__ZN6il2cpp2vm19SocketPollingThread7RunLoopEv
ADd:_FontUpdateTracker_UntrackText_m1981515690
xGe:__ZL64AnalyticsEventTracker_t2285229262_CustomAttributesCacheGeneratorP21CustomAttributesCache
Bzc:__ZN15DirectorManager20ScheduleGraphDestroyERK14HPlayableGraph
zDb:__ZNSt3__213__stable_sortIRN10vector_mapI17ScriptingClassPtrPKN5Unity4TypeENS_4lessIS2_EENS_9allocatorINS_4pairIS2_S6_EEEEE13value_compareENS_11__wrap_iterIPSB_EEEEvT0_SJ_T_NS_15iterator_traitsISJ_E15difference_typeEPNSM_10value_typeEi
imh:_SimpleCollator_FillSurrogateSortKeyRaw_m725998232
VRi:_List_1_AddEnumerable_m1284696147_gshared
w1f:_IPAddress_Equals_m1823478787
sSd:_Context_CreateNewContext_m3053563976
vhc:__ZN9ShaderLab25SerializedTextureProperty8TransferI24GenerateTypeTreeTransferEEvRT_
KQj:__ZN6il2cpp2gc19AppendOnlyGCHashMapINSt3__24pairIPK14Il2CppAssemblyP11Il2CppClassEEP24Il2CppReflectionAssembly17ReflectionMapHashIS9_ENS2_8equal_toIS9_EEEC2Ev
ixb:__Z18Transfer_BlittableI19StreamedBinaryWriteILb0EELb0EdEvRK29SerializationCommandArgumentsR31RuntimeSerializationCommandInfo
s0:__GLOBAL__sub_I_Runtime_Camera_RenderLoops_2_cpp
fua:__ZN11NamedObject8TransferI18StreamedBinaryReadILb0EEEEvRT_
Swf:_InvokableCall_remove_Delegate_m1376110510
gKg:_Hashtable_Clear_m3112193608
pKh:_UTF8Encoding_InternalGetByteCount_m771565606
tQc:__Z18Transfer_BlittableI8JSONReadLb1EyEvRK29SerializationCommandArgumentsR31RuntimeSerializationCommandInfo
cNi:_List_1_System_Collections_IList_Remove_m3654336679_gshared
Oqe:__ZL51GUILayer_t2783472903_CustomAttributesCacheGeneratorP21CustomAttributesCache
NCa:__ZN9GfxDevice20GetVertexDeclarationERK18VertexChannelsInfoNS_30VertexDeclarationMRUCacheIndexE
Nk:_emscripten_glMatrixMode
mTf:_MaskableGraphic_UnityEngine_UI_IClippable_get_gameObject_m1739855597
Yu:__ZN8Animator23VirtualRedirectTransferER18StreamedBinaryReadILb0EE
OPg:_Guid__ctor_m3562600567_AdjustorThunk
d5g:_DateTime_System_IConvertible_ToInt16_m3239820399
gY:__ZN11UnityEngine15CloudWebService14DataDispatcher16PrepareDataBlockERNS0_16SessionContainerE
QTb:__ZN18GfxFramebufferGLES5ClearE13GfxClearFlagsRK10ColorRGBAffib
mih:_MonoProperty_StaticGetterAdapterFrame_TisRuntimeObject_m4131530968_gshared
_Bb:__ZL26Transfer_SimpleNativeClassI18StreamedBinaryReadILb0EE10RectOffsetLb0EEvRK29SerializationCommandArgumentsR31RuntimeSerializationCommandInfo
q0e:_InternalEnumerator_1_get_Current_m2316281569_gshared
ZZb:__ZL12DepthPassJobPN21GfxDeviceAsyncCommand10ArgScratchEPKNS_3ArgE
Ofc:__ZNSt3__26vectorIN9ShaderLab20SerializedSubProgram16TextureParameterENS_9allocatorIS3_EEE6assignINS_11__wrap_iterIPS3_EEEENS_9enable_ifIXaasr21__is_forward_iteratorIT_EE5valuesr16is_constructibleIS3_NS_15iterator_traitsISC_E9referenceEEE5valueEvE4typeESC_SC_
PBf:_MonoBehaviour_IsInvoking_m3285132449
KLc:__ZN5Unity9rapidjson6WriterI16TempBufferWriterNS0_4UTF8IcEES4_13JSONAllocatorE11WriteDoubleEd
ZLh:_Thread_SetCachedCurrentUICulture_m1729523031
jlb:__ZN14GfxDeviceStats16CopyAllDrawStatsERKS_
Kfg:_ClientContext_set_ClientHelloProtocol_m4189379912
Om:FUNCTION_TABLE_iiiiiiiiiiii
yRi:_List_1_get_Item_m1686506901_gshared
SEa:__ZN16GraphicsSettingsD0Ev
s2:__Z12FormatBufferPciPKcz
nld:__ZNSt3__26__treeINS_12__value_typeIN4core12basic_stringIcNS2_20StringStorageDefaultIcEEEE14CallbackArray3IRKS6_R8JSONReadbEEENS_19__map_value_compareIS6_SD_NS_4lessIS6_EELb1EEE13stl_allocatorISD_L18MemLabelIdentifier6ELi16EEE7destroyEPNS_11__tree_nodeISD_PvEE
n:cttz_i8
f$c:_UNITY_FT_GlyphLoader_Add
vod:__ZN9Scripting11UnityEngine10Networking29UnityWebRequestAsyncOperation9InitProxyEv
pnj:_AudioListener_INTERNAL_CALL_ReadExtensionPropertyName_m330480156
F3g:_Convert_ToUInt16_m867476252
Kl:_emscripten_glViewport
hbk:__ZN6il2cpp6icalls8mscorlib6System15MonoCustomAttrs17IsDefinedInternalEP12Il2CppObjectP20Il2CppReflectionType
Wwj:_SkeletonBone_t4134054672_marshal_pinvoke_back
Jqa:__ZN9Scripting11UnityEngine10CacheIndex9InitProxyEv
C0c:_cff_parse_font_bbox
rlh:_MSCompatUnicodeTable_Category_m1834196420
b2a:__ZN14PlayerSettings23VirtualRedirectTransferER18StreamedBinaryReadILb0EE
sgi:__Z85RuntimeInvoker_Void_t1185182177_Int32_t2950945753_Int32_t2950945753_Int32_t2950945753PFvvEPK10MethodInfoPvPS4_
mah:_Double_CompareTo_m3151899116
Pjk:__ZN6il2cpp2os5Event5ResetEv
R3c:_tt_name_ascii_from_other
Qlj:_ToggleGroup__ctor_m3308114662
m3j:__ZN6il2cpp8metadata15GenericMetadata17InflateParametersEPK13ParameterInfohPK20Il2CppGenericContextb
klg:_RSAParameters_t1728406613_marshal_pinvoke_back
iIi:_Array_Sort_TisUILineInfo_t4195266810_m3737783007_gshared
PDf:_PlayableAsset_Internal_CreatePlayable_m2550417712
WHf:_RenderTexture_get_width_m2160921386
ly:__ZNK17AnimationPlayable27GetNextCompatibleDescendantEj
f_c:__ZN13dynamic_arrayIN4core17string_with_labelILi35EEELj0EE6insertEPS2_jRKS2_
ewe:__ZL64GUIUtility_t1868551600_CustomAttributesCacheGenerator_s_SkinModeP21CustomAttributesCache
E5i:_TlsStream_Write_m188217214
N2c:_otv_LigatureSubst_validate
hHb:__Z25SetNeedToPerformRenderingb
Sgd:__ZN8JSONRead12TransferPairINSt3__24pairIN4core12basic_stringIcNS3_20StringStorageDefaultIcEEEEN11UnityEngine9Analytics16LimitEventConfigEEEEEvRT_17TransferMetaFlagsPKN5Unity9rapidjson12GenericValueINSG_4UTF8IcEE13JSONAllocatorEE
jwa:__ZN10GameObjectD2Ev
l_b:__ZN14qsort_internal30FindAndMovePivotToLastPositionIP15RODataDepthPassi17ROSorterDepthPassEEvT_S4_T0_T1_
N6b:__ZN12CullingGroup10SendEventsEPK17CullingGroupEventj
Evd:_PointerInputModule__ctor_m3728889932
JUa:__ZThn32_NK8Renderer8GetLayerEv
_Dh:_Enumerator_System_Collections_IEnumerator_Reset_m2915500989_gshared
H0c:_cff_parse_vsindex
kRg:_Int32_ValidDigit_m1059003769
Gyk:_emscripten_glTexParameterfv__wrapper
iHf:_RectTransform_INTERNAL_get_sizeDelta_m2173368204
aRf:_LayoutGroup_get_rectTransform_m442863741
Eob:__Z18Transfer_BlittableI14SafeBinaryReadLb1E9BoundsIntEvRK29SerializationCommandArgumentsR31RuntimeSerializationCommandInfo
Zsc:__ZN2UI13RectTransform17GetLocalPositionZEv
Ovk:b63
BVj:_il2cpp_method_get_param_count
nba:__ZNK5Unity4Type21FindAllDerivedClassesER13dynamic_arrayIPKS0_Lj0EENS0_17TypeFilterOptionsE
wpc:__ZN10systeminfo19ISOToSystemLanguageERN4core12basic_stringIcNS0_20StringStorageDefaultIcEEEE
DPj:__ZNK15dense_hashtableINSt3__24pairIK10KeyWrapperINS1_IPK12PropertyInfoP11Il2CppClassEEEjEES9_17ReflectionMapHashIS8_EN14dense_hash_mapIS9_jSD_NS9_14EqualsComparerINS0_8equal_toIS8_EEEENS0_9allocatorISB_EEE9SelectKeyESI_SK_E3endEv
PSh:_UnauthorizedAccessException__ctor_m40101894
Jnd:__ZN22BaseUnityConnectClient14AppRunningTickEj
N7c:_ps_dimension_done
p9c:__Z46Register_UnityEngine_TextGenerator_Dispose_cppv
qah:_Double_Parse_m4153729520
Kai:_IndexedSet_1_AddUnique_m861843892_gshared
IVa:__ZN16LightmapSettings8TransferI14SafeBinaryReadEEvRT_
bOb:__ZN17BufferManagerGLES13ReleaseBufferEP14DataBufferGLES
Jeg:_CipherSuite_Write_m1172814058
nIe:_SynchronizedWriter_Write_m301917713
g3:__ZN9profiling6MarkerC2EPKc13ProfilerGroupNS0_5FlagsE
qQc:__Z18Transfer_BlittableI8JSONReadLb1EjEvRK29SerializationCommandArgumentsR31RuntimeSerializationCommandInfo
jRe:_ConstructorBuilder_get_IsCompilerContext_m3364441562
Svf:_Debug_LogWarning_m3752629331
hsc:__Z13RegisterClassIN2UI13RectTransformEEvPKc
pqa:__ZN9Scripting11UnityEngine7Texture9InitProxyEv
q2h:_ReadOnlyCollection_1_System_Collections_Generic_IListU3CTU3E_RemoveAt_m4037795630_gshared
Rki:__Z117RuntimeInvoker_Void_t1185182177_RuntimeObject_Int32_t2950945753_Int32_t2950945753_Int32_t2950945753_Int32_t2950945753PFvvEPK10MethodInfoPvPS4_
UYa:__ZNK13ScreenManager17GetFullscreenModeEv
cR:__Z30GetAudioSpatializerDefinitionsR13dynamic_arrayIP29AudioEffectInternalDefinitionLj0EE31UnityAudioEffectDefinitionFlags
pyd:_U3COnFinishSubmitU3Ec__Iterator0_Reset_m3632769946
Zo:stackSave
G_:__ZN5Unity9rapidjson15GenericDocumentINS0_4UTF8IcEE13JSONAllocatorNS0_12CrtAllocatorEE6StringEPKcjb
sAd:_ColorTween_get_targetColor_m1724075482_AdjustorThunk
g8c:_ps_dimension_end
BFc:__Z41Register_UnityEngine_Mesh_Internal_Createv
k3j:__ZNK15dense_hashtableI10KeyWrapperIP18Il2CppGenericClassES3_N6il2cpp8metadata22Il2CppGenericClassHashEN14dense_hash_setIS3_S6_NS3_14EqualsComparerINS5_25Il2CppGenericClassCompareEEENSt3__29allocatorIS3_EEE8IdentityESA_SD_E12test_deletedERK30dense_hashtable_const_iteratorIS3_S3_S6_SF_SA_SD_E
S_g:_Console_Open_m3077673205
d8i:_X509StoreManager_get_CurrentUser_m4040993045
u8b:__ZN6Camera9SetAspectEf
lhh:_Array_InternalArray__IndexOf_TisDateTime_t3738529785_m2463359116_gshared
va:invoke_viiffiii
wkk:_Display_Start_m3623905221
Xzk:_emscripten_glBindVertexArray__wrapper
N5j:__ZN6il2cpp6icalls8mscorlib6System4Enum19get_underlying_typeEP20Il2CppReflectionType
Tdj:_Parser_IsECMAScript_m674158805
ixa:__ZN9Transform37InitializeTransformHierarchyRecursiveER18TransformHierarchyRii
inb:__ZN26SinglePassStereoSupportExt23SetupStereoMatrixParamsE21MonoOrStereoscopicEye24BuiltinShaderMatrixParamRK10Matrix4x4f
Sjb:__ZN9GfxDevice23CreateAsyncReadbackDataEv
Jod:__ZNK25UnityWebRequestJavaScript16GetUploadedBytesEv
$T:__Z46AudioListener_CUSTOM_GetNumExtensionPropertiesP12Il2CppObject
WJj:__ZN6il2cpp6icalls8mscorlib6SystemL16CheckMemberMatchI9FieldInfoNS_5utils10functional6FilterINSt3__212basic_stringIcNS8_11char_traitsIcEENS8_9allocatorIcEEEENS5_13VmStringUtils23CaseInsensitiveComparerEEEEEbPKT_PK11Il2CppClassSN_iRKT0_
yhh:_Array_InternalArray__IndexOf_TisMonoResource_t4103430009_m1351751258_gshared
dw:__ZN17AnimationPlayable34CollectAnimatorControllerPlayablesER13dynamic_arrayIP26AnimatorControllerPlayableLj0EE
dLg:_FieldAccessException__ctor_m3583219052
J7g:_Decimal_System_IConvertible_ToDouble_m3125524987
pqc:__Z57Register_UnityEngine_Transform_INTERNAL_set_localPositionv
SMb:__ZN13GfxDeviceGLES26SetRandomWriteTargetBufferEi15ComputeBufferID
Eek:_GC_split_block
oHi:_Array_Resize_TisUICharInfo_t75501106_m3903846016_gshared
CVb:__ZZ23InitPlayerLoopCallbacksvEN49EarlyUpdateResetFrameStatsAfterPresentRegistrator7ForwardEv
Lnk:_poll
Y_h:_ReadOnlyCollection_1_System_Collections_IEnumerable_GetEnumerator_m1671097018_gshared
ASh:_UInt64_ToString_m1529093114_AdjustorThunk
EPd:_TypeLibImportClassAttribute__ctor_m2302178978
Smh:_Escape_t3294788190_marshal_pinvoke
wPf:_InputField_OnUpdateSelected_m1118869681
l1j:__ZN6il2cpp2vmL36AddNestedTypesToNametoClassHashTableEP40Il2CppNameToTypeDefinitionIndexHashTablePKcRKNSt3__212basic_stringIcNS5_11char_traitsIcEENS5_9allocatorIcEEEEP11Il2CppClass
RRa:__ZN4crnd12crn_unpacker11unpack_dxt1EPPhjjj
URj:__ZN15dense_hashtableINSt3__24pairIK10KeyWrapperIPK10Il2CppTypeEjEES6_N6il2cpp8metadata14Il2CppTypeHashEN14dense_hash_mapIS6_jSB_NS6_14EqualsComparerINSA_26Il2CppTypeEqualityComparerEEENS0_9allocatorIS8_EEE9SelectKeyESF_SH_E14squash_deletedEv
FJ:__ZL55__ManagedRegistrationHelperFunction_CoordinateFramePairPv
akc:__ZNK11ICallString6ToUTF8Ev
Ezj:__ZN15dense_hashtableINSt3__24pairIK10KeyWrapperIPK22Il2CppGenericParameterEP11Il2CppClassEES6_N6il2cpp5utils11PointerHashIS4_EEN14dense_hash_mapIS6_S9_SE_NS6_14EqualsComparerINS0_8equal_toIS5_EEEENS0_9allocatorISA_EEE9SelectKeyESJ_SL_E15insert_noresizeERKSA_
Cdf:_Transform_1_Invoke_m2468053724_gshared
nX:__ZL60__ManagedRegistrationHelperFunction_ClothSkinningCoefficientPv
m_b:__ZNSt3__211__sift_downIR17ROSorterDepthPassP15RODataDepthPassEEvT0_S5_T_NS_15iterator_traitsIS5_E15difference_typeES5_
GMa:__ZN18UnityPropertySheet11UnityTexEnvC2Ev
dAg:_ArgumentException__ctor_m3200406061
sD:__ZN8Animator17ApplyOnAnimatorIKEiRNS_11AnimatorJobE
aaa:__ZN12FileAccessor4ReadEyyPvPy
oTi:_List_1_set_Capacity_m2777925136_gshared
Y7b:__ZN13RenderTexture9SetHeightEi
G8:__ZN17PersistentManager25PreallocateObjectThreadedEiNS_9LockFlagsE
yw:__ZN7mecanim9animation17ClearMotionOutputEPNS0_18AnimationNodeStateE
vfg:_CipherSuiteCollection_get_IsFixedSize_m3127823890
J5e:_InternalEnumerator_1_System_Collections_IEnumerator_get_Current_m3537550566_gshared
iVf:_Scrollbar_UpdateVisuals_m2492252165
V6i:_PKCS12_get_Keys_m2165478388
OZj:__ZN6il2cpp6icalls8mscorlib6System2IO6MonoIO17GetFileAttributesEP12Il2CppStringPi
Rqf:_HMACMD5__ctor_m3008609295
q6g:_DateTime_ToString_m2992030064_AdjustorThunk
J4c:_tt_cmap8_char_index
W5:__Z24scripting_class_get_name17ScriptingClassPtr
H2f:_Oid__ctor_m911618594
nmj:_VerticalLayoutGroup_CalculateLayoutInputHorizontal_m1404590745
hca:__ZN13RuntimeStaticI15GUIEventManagerLb0EE13StaticDestroyEPv
$Ke:_ShortComparer_Compare_m1881262465
uqb:__Z29Transfer_Blittable_ArrayFieldI14SafeBinaryReadjEvRT_R9ArrayInfoRK23StaticTransferFieldInfo
de:_emscripten_set_keydown_callback
yvg:_EncoderReplacementFallback__ctor_m1483565116
i8f:_Interpreter_IsWordChar_m2858055765
eKg:_Hashtable_CopyTo_m2905447224
kqa:__ZN9Scripting11UnityEngine29CustomRenderTextureUpdateZone12CleanupProxyEv
iaa:__ZN12FileAccessorC2Ev
VUa:__ZNK8Renderer29FlattenPerMaterialCustomPropsER22PerThreadPageAllocatorR10RenderNode
GA:__ZThn152_NK26AnimatorControllerPlayable25GetStateMachineBehavioursEv
Aai:_EventFunction_1_Invoke_m2429482587_gshared
hIj:_CertificateHandler_Dispose_m2100863831
jWd:__ZL51Attribute_t861562559_CustomAttributesCacheGeneratorP21CustomAttributesCache
jLj:__ZN6il2cpp2vm7Runtime12GetConfigDirEv
yDh:_Enumerator_MoveNext_m1177880931_AdjustorThunk
rIf:_SendMouseEvents_SetMouseMoved_m2822596724
puj:_TextGenerator_Populate_m194003733
gSe:_DerivedType_get_FullName_m1025358827
Xof:_CryptoConfig_MapNameToOID_m2044758263
gma:__ZL50__ManagedRegistrationHelperFunction_SetupCoroutinePv
zr:__ZN13ConstraintJob23ConstraintComponentDataC2ERKS0_
zCe:__ZL70InputField_t3762917431_CustomAttributesCacheGenerator_m_OnValueChangedP21CustomAttributesCache
KFb:__Z39WriteQueueForTransferSignatureIntoCacheRK31TransferFunctionScriptingTraitsRK24TransferRequestSignature17ScriptingClassPtrR23CachedSerializationDataRb
P6a:__ZN13RenderManager18UpdateAllRenderersEv
dwg:_Encoding_get_UTF8UnmarkedUnsafe_m320312322
gMh:_Thread_Thread_free_internal_m333849022
dNc:__Z35Transfer_Blittable_FixedBufferFieldI9JSONWritexEvRK29SerializationCommandArgumentsR31RuntimeSerializationCommandInfo
e9i:_CostDelegate_BeginInvoke_m2828452701
Uid:__ZN22BaseUnityConnectClient30OnEnteringStatePausedOrStoppedEv
s1i:_Collection_1_ConvertItem_m1556170494_gshared
Mw:__ZN7mecanim5human12HumanPoseAddERNS0_9HumanPoseERKS1_S4_
z0g:_DateTime_ToUniversalTime_m1945318289
FGg:_ArrayList_ToArray_m3827492363
aZf:_Slider_get_stepSize_m1423227661
vSh:_UInt64_Parse_m819899889
$mg:_SymmetricAlgorithm_set_IV_m3196220308
bUe:_GenericTypeParameterBuilder_GetHashCode_m852224381
X3g:_Convert_ToUInt32_m1453583008
jMg:_CompareInfo_Compare_m894311506
Pwa:__Z24MergeTransformComponentsR9TransformS0_b
YDj:__ZNK15dense_hashtableI10KeyWrapperIPK19Il2CppGenericMethodES4_N6il2cpp8metadata23Il2CppGenericMethodHashEN14dense_hash_setIS4_S7_NS4_14EqualsComparerINS6_26Il2CppGenericMethodCompareEEENSt3__29allocatorIS4_EEE8IdentityESB_SE_E10test_emptyEj
nsd:_EventSystem_UpdateModules_m3643806022
vwj:_AnimationOffsetPlayable__cctor_m1029460816
Rak:__ZN6il2cpp2vm13ComObjectBase19GetRuntimeClassNameEPP15Il2CppHString__
NDa:__Z37GetBarycentricCoordinatesForOuterCellPPK8Vector3fRK13dynamic_arrayIS_Lj0EERS0_RK11TetrahedronR8Vector4f
Pj:_emscripten_glVertexAttribPointer
xIb:__ZN14PreloadManager26UpdatePreloadingSingleStepENS_21UpdatePreloadingFlagsEi
QXf:_ScrollRect_SetLayoutHorizontal_m3078869633
R_g:_Console_OpenStandardInput_m3262421490
Hlh:_SimpleCollator__ctor_m1587210019
_lc:__Z57Register_UnityEngine_RectTransform_INTERNAL_set_anchorMinv
O3g:_Convert_ToUInt16_m1480956416
wja:__ZN6prcoreL25inner_stretch_i8_bilinearEPKNS_9InnerInfoE
v8a:__ZL30RegisterFilteredObjectCallbackPP12Il2CppObjectiPv
O1h:_ReadOnlyCollection_1_System_Collections_Generic_IListU3CTU3E_RemoveAt_m3317217538_gshared
kue:__ZL54AudioSource_t3935305588_CustomAttributesCacheGeneratorP21CustomAttributesCache
TIb:__Z19InitializeGfxDevicev
DY:__ZN11UnityEngine15CloudWebService16SessionContainer24GetSessionHeaderJsonDataERKN4core12basic_stringIcNS2_20StringStorageDefaultIcEEEERNS2_13StringBuilderE
LRe:_DerivedType_GetEvent_m4157575360
zba:__ZN13RuntimeStaticI21AssetReferenceStorageLb0EE13StaticDestroyEPv
$nf:_SByte_System_IConvertible_ToType_m4075253447_AdjustorThunk
GWh:_Collection_1_ConvertItem_m618594517_gshared
wvi:__Z72RuntimeInvoker_Bounds_t2266837910_RuntimeObject_Matrix4x4U26_t3606180965PFvvEPK10MethodInfoPvPS4_
l7j:__ZN6il2cpp6icalls8mscorlib6System9AppDomain22InternalGetProcessGuidEP12Il2CppString
st:__ZN9Scripting11UnityEngine10Animations16ConstraintSource9InitProxyEv
cEc:__Z34Quaternion_CUSTOM_Inverse_InjectedRK11QuaternionfRS_
Tub:__Z18Transfer_BlittableI24GenerateTypeTreeTransferLb1EjEvRK29SerializationCommandArgumentsR31RuntimeSerializationCommandInfo
Czj:__ZN6il2cpp2os12FastAutoLockD2Ev
AGa:__ZN11ColorRGBA328TransferI14SafeBinaryReadEEvRT_
V0c:_cff_vstore_done
Lhb:__ZN9GfxDevice33ScheduleComputeBufferJobsInternalEPFvP20ComputeBufferJobDataEPFvRK8JobFenceEPK27ComputeBufferJobInstructionj
Upi:__Z68RuntimeInvoker_Void_t1185182177_UInt16_t2177724958_SByte_t1669577662PFvvEPK10MethodInfoPvPS4_
m5a:__ZN15ResourceManager10Dependency8TransferI24GenerateTypeTreeTransferEEvRT_
orf:_MACTripleDES_HashFinal_m3613553534
RRh:_UInt64_System_IConvertible_ToChar_m2074245892
tKh:_UTF8Encoding_InternalGetBytes_m1965760031
If:_emscripten_glClearDepth
Qtc:__ZNK8GUILayer22GetTypeVirtualInternalEv
xTa:__ZN14SafeBinaryRead21TransferSTLStyleArrayINSt3__26vectorIN15QualitySettings14QualitySettingENS1_9allocatorIS4_EEEEEEvRT_17TransferMetaFlags
rbf:_KeyCollection__ctor_m2388548663_gshared
u3a:__ZNSt3__26vectorINS_4pairIPKN5Unity4TypeE7Hash128EENS_9allocatorIS7_EEE8__appendEj
dRc:__ZN8JSONRead21TransferSTLStyleArrayI13dynamic_arrayIaLj0EEEEvRT_17TransferMetaFlags
Y0c:_cff_font_load
R7j:__GLOBAL__sub_I_LibraryLoader_cpp
iCc:__Z13IsPathCreatedRKN4core12basic_stringIcNS_20StringStorageDefaultIcEEEE
Uvf:_Debug_LogWarningFormat_m2535776735
fPa:__ZL22stbir__encode_scanlineP11stbir__infoiPvPfiii
QOd:_ExternalException__ctor_m2877839282
MVc:__ZN20QuadTreeNodeRenderer13StaticDestroyEPv
zZ:__ZN11UnityEngine15CloudWebService20WebRequestRestClient5AbortEv
dcj:_Regex_Matches_m2080913806
htc:__ZN9Transform12CleanupClassEv
ABe:__ZL57FontData_t746620069_CustomAttributesCacheGenerator_m_FontP21CustomAttributesCache
eAf:_Mathf_Sin_m3411839043
h_c:_UNITY_FT_Set_Pixel_Sizes
zOe:_OperatingSystem_Clone_m1122165140
uLi:_GameObject_AddComponent_TisRuntimeObject_m3469369570_gshared
TC:__ZN11UnityEngine9Animation33SetGenericTransformPropertyValuesERKNS0_30AnimatorGenericBindingConstantERKN7mecanim10ValueArrayEP9Transformy
sWj:__ZN6il2cpp2vmL24thread_cleanup_on_cancelEPv
wPi:_List_1_RemoveAll_m3165362277_gshared
ROh:_Type_type_is_subtype_of_m1406623598
kma:__ZL54__ManagedRegistrationHelperFunction_SpriteAtlasManagerPv
UKh:_Thread_get_CurrentThread_m4142136012
$Ca:__Z30ProcessDynamicBatchGeometryJobP25DynamicVBOGeometryJobDataj
P_b:__ZNSt3__27__sort4IRNS_6__lessI11CulledLightS2_EEPS2_EEjT0_S6_S6_S6_T_
bTj:__ZN6il2cpp2vm14TypeNameParser26ParseArrayModifierOptionalEv
o7:__Z26scripting_object_get_class18ScriptingObjectPtr
RYj:__ZN6il2cpp6icalls8mscorlib6System10Reflection8Assembly13get_code_baseEP24Il2CppReflectionAssemblyb
n4a:__ZNSt3__26vectorIN4core12basic_stringIcNS1_20StringStorageDefaultIcEEEE13stl_allocatorIS5_L18MemLabelIdentifier13ELi16EEE7reserveEj
dqf:_DSASignatureDeformatter__ctor_m2889130126
Nuc:__ZNK28MonoBehaviourPropertyBinding15GenerateBindingERKN4core12basic_stringIcNS0_20StringStorageDefaultIcEEEEbRN11UnityEngine9Animation14GenericBindingE
oHf:_RectTransform_INTERNAL_set_pivot_m1160676233
nUi:_List_1_set_Item_m35836043_gshared
P5f:_X509ChainElementCollection__ctor_m3424079155
lFc:__Z58Register_UnityEngine_Camera_ScreenToViewportPoint_Injectedv
m9i:_LinkStack_Push_m3081279930
daf:_Enumerator_MoveNext_m1107569389_gshared
W8j:__ZN6il2cpp6icalls8mscorlib6System11Environment15internalGetHomeEv
FAf:_Matrix4x4_GetHashCode_m4034747639_AdjustorThunk
TNd:_ResourceCacheItem_t51292791_marshal_pinvoke_cleanup
asa:__ZNK5Unity9Component7GetNameEv
V8b:__Z23FindMonoScriptFromClass17ScriptingClassPtr
FRf:_U3CDelayedSetDirtyU3Ec__Iterator0_Reset_m160466733
Glb:__ZN21ScalableBufferManager23UnregisterRenderSurfaceEP17RenderSurfaceBaseb
GSi:_List_1_System_Collections_IList_Remove_m1070694895_gshared
zgj:_LayoutCache__ctor_m3885940174
kE:__ZN7mecanim8skeleton26SkeletonPoseComputeGlobalQEPKNS0_8SkeletonEPKNS0_13SkeletonPoseTIN4math4trsXEEEPS7_ii
QRh:_UInt64_System_IConvertible_ToByte_m1501504925_AdjustorThunk
buj:_TextGenerator_Invalidate_m1072346986
fig:_TlsClientHello_ProcessAsTls1_m2549285167
HDi:__Z74RuntimeInvoker_Boolean_t97287965_UIVertex_t4057497605_UIVertex_t4057497605PFvvEPK10MethodInfoPvPS4_
F$h:_ReadOnlyCollection_1_System_Collections_IList_Clear_m3591436538_gshared
MD:__ZN9BlobWrite8TransferI22OffsetPtrArrayTransferIiEEEvRT_PKc17TransferMetaFlags
nvg:_EncoderExceptionFallback_Equals_m2760188920
D6b:__ZNK15LODGroupManager17CalculateLODMasksERK13LODParametersfPhPf
qO:__ZN4FMOD6System7releaseEv
zDg:_Boolean_CompareTo_m3665076258
hsg:_String_Split_m3580120853
Xqh:_PrivateKeyInfo__ctor_m2811023496
F9:__Z18PathToAbsolutePathRKN4core12basic_stringIcNS_20StringStorageDefaultIcEEEE
$Gd:_PropertyBuilder_GetCustomAttributes_m2917594003
vhj:_GUILayoutUtility_LayoutFromEditorWindow_m2914699782
xpa:__ZN9Scripting11UnityEngine12Experimental10PlayerLoop13PreLateUpdate9InitProxyEv
ahd:__ZN21UnityAnalyticsManager15ThreadedCleanupEv
LOa:__ZL13BlitImageImplR14ImageReferenceiiRKS_NS_10ColorSpaceENS_8BlitModeEb
xzc:__ZN15DirectorManager17AcquireOutputNodeEv
TWa:__Z14resize_trimmedINSt3__26vectorI13dynamic_arrayI8Vector2fLj0EENS0_9allocatorIS4_EEEEEvRT_j
gGi:_Array_InternalArray__set_Item_TisColor32_t2600501292_m1891325855_gshared
xLi:_GameObject_GetComponentInChildren_TisRuntimeObject_m1310240902_gshared
Ane:__ZL69PersistentCall_t3407714124_CustomAttributesCacheGenerator_m_ArgumentsP21CustomAttributesCache
gM:__ZN12AudioManager29ShutdownReinitializeAndReloadEv
bHa:__ZN16ReflectionProbes28GetMinBakedCubemapResolutionEv
Cak:__GLOBAL__sub_I_String_cpp
Bzj:__ZN15dense_hashtableINSt3__24pairIK10KeyWrapperIPK22Il2CppGenericParameterEP11Il2CppClassEES6_N6il2cpp5utils11PointerHashIS4_EEN14dense_hash_mapIS6_S9_SE_NS6_14EqualsComparerINS0_8equal_toIS5_EEEENS0_9allocatorISA_EEE9SelectKeyESJ_SL_E6insertERKSA_
FPf:_InputField_GenerateCaret_m1459647218
N6i:_X509CertificateEnumerator__ctor_m85694331
XNb:__ZN14DataBufferGLES16RecreateWithDataEjPKv
ysa:__Z29GetGlobalAllowNameConversionsv
ykh:_Array_InternalArray__Insert_TisTableRange_t3332867892_m558285859_gshared
L9b:__ZN8Material8SetColorEN9ShaderLab16FastPropertyNameERK10ColorRGBAf
eFh:_Enumerator_System_Collections_IEnumerator_Reset_m3754523291_gshared
Bld:__ZN11UnityEngine7Connect20RemoteConfigSettings19ConfigUpdatedStaticEPS1_bbi
lQ:__ZN11AudioSource23VirtualRedirectTransferER18StreamedBinaryReadILb0EE
nFf:_RangeInt_get_end_m4128831787
lnd:__Z25GetUnityConnectModuleSpecv
zRi:_List_1_set_Item_m2082115010_gshared
Wvg:_Encoding_GetBytes_m3735967069
nRb:__ZN14GfxContextGLES43AddRenderSurfaceToDeferredFBOInvalidateListEPK17RenderSurfaceGLES
rZj:__ZN6il2cpp6icalls8mscorlib6System9Threading6Thread15Thread_internalEP12Il2CppThreadP14Il2CppDelegate
yua:__ZN11NamedObject23VirtualRedirectTransferER14SafeBinaryRead
WZf:_Text_get_resizeTextMinSize_m1002355407
XZc:__ZNSt3__26vectorIN20TextRenderingPrivate8FontImpl13CharacterInfoE13stl_allocatorIS3_L18MemLabelIdentifier1ELi16EEE6insertENS_11__wrap_iterIPKS3_EERS9_
v5a:__ZN23PreloadManagerOperation6IsDoneEv
nBg:_Array_CreateInstance_m1027597705
uLj:__ZN6il2cpp2vm7Runtime15InvokeWithThrowEPK10MethodInfoPvPS5_
VVf:_Selectable_get_navigation_m3508916916
bak:__ZN6il2cpp5utils11StringUtils11Utf16ToUtf8ERKNSt3__212basic_stringIDsNS2_11char_traitsIDsEENS2_9allocatorIDsEEEE
$bg:_MD4Managed_Decode_m4273685594
B7a:__ZN21LightProbeProxyVolume18HasHardwareSupportEv
$1b:__ZN26LightProbeProxyVolumeCacheC2ER13BatchRendererR15RenderLoopStats
BTg:_IntPtr__ctor_m620280096
vja:__ZN6prcoreL31inner_stretch_argb8888_bilinearEPKNS_9InnerInfoE
Yyb:__Z18Transfer_BlittableI18StreamedBinaryReadILb1EELb1E8BitFieldEvRK29SerializationCommandArgumentsR31RuntimeSerializationCommandInfo
n5c:_UNITY_FT_Outline_Decompose
BSg:_Int64_System_IConvertible_ToChar_m1509243576_AdjustorThunk
tSb:__ZNK12GraphicsCaps24GetFallbackSampledFormatE14GraphicsFormat
Z5i:_GeneralNames_get_IPAddresses_m4242915644
w1g:_Decimal_op_Implicit_m3873897383
Wek:_GC_init_size_map
Cza:__Z20scripting_object_new17ScriptingClassPtr
wra:__ZN9Scripting5Unity11Collections39NativeMatchesParallelForLengthAttribute12CleanupProxyEv
irh:_KeyGeneratedEventHandler_Invoke_m2527485594
t7g:_Decimal__ctor_m1925875020_AdjustorThunk
Ylf:_SerializationCallbacks__ctor_m3863304525
QEa:__ZN18ShadowMapJobHeaderD0Ev
P:Math_exp
Htf:_Vector3_Min_m1803158933
Ao:FUNCTION_TABLE_iiifi
H5j:__ZN6il2cpp2os5posix13PosixAutoLockD2Ev
Bij:_SymmetricTransform_OFB_m3690147804
A_c:_cff_get_advances
eFb:__ZN13MonoBehaviour9SetScriptERK4PPtrI10MonoScriptE18ScriptingObjectPtr
oWj:_RaycastHit2D_get_collider_m1549426026
Xcb:__ZNK10FileSystem16LastErrorMessageEv
pFi:_Array_InternalArray__Insert_TisVector3_t3722313464_m3862657277_gshared
nXa:__ZN15SerializeTraitsI13dynamic_arrayI12SpriteVertexLj0EEE19ResizeSTLStyleArrayERS2_i
rpg:_SecurityException__ctor_m1631242336
CBj:__ZN15dense_hashtableINSt3__24pairIK10KeyWrapperIPK11Il2CppClassEPKcEES6_N6il2cpp5utils11PointerHashIS3_EEN14dense_hash_mapIS6_S9_SE_NS6_14EqualsComparerINS0_8equal_toIS5_EEEENS0_9allocatorISA_EEE9SelectKeyESJ_SL_E14squash_deletedEv
otd:_EventSystem_Update_m1662072334
Cga:__ZN13sorted_vectorIN4core12basic_stringIcNS0_20StringStorageDefaultIcEEEENSt3__24lessIS4_EE13stl_allocatorIS4_L18MemLabelIdentifier81ELi16EEE21sort_clear_duplicatesEv
Tpd:__ZN22UnityWebRequestManager10InitializeEv
j5a:__ZNSt3__26__treeINS_12__value_typeIN4core12basic_stringIcNS2_20StringStorageDefaultIcEEEE4PPtrI6ObjectEEENS_19__map_value_compareIS6_SA_NS_4lessIS6_EELb1EEE13stl_allocatorISA_L18MemLabelIdentifier52ELi16EEE15__emplace_multiIJRNS_4pairIS6_S9_EEEEENS_15__tree_iteratorISA_PNS_11__tree_nodeISA_PvEEiEEDpOT_
sZc:_raccess_guess_darwin_newvfs
_sb:__ZL26Transfer_SimpleNativeClassI17RemapPPtrTransfer8GradientLb1EEvRK29SerializationCommandArgumentsR31RuntimeSerializationCommandInfo
Ssd:_RaycasterManager_RemoveRaycasters_m3057093063
ykc:__ZN12CachedWriter9InitWriteER15CacheWriterBase
mzc:__Z21UnsignedInt64ToStringy
tUf:_GetRaycastNonAllocCallback_BeginInvoke_m3984885848
oaj:_PatternCompiler_BeginLink_m1295557963
SEe:__ZL70CanvasScaler_t2767979955_CustomAttributesCacheGenerator_m_PhysicalUnitP21CustomAttributesCache
GPg:_GuidParser_ThrowFormatException_m3223388534
Cdj:_Group_GetAnchorInfo_m3730312864
OBe:__ZL50Graphic_t1660335611_CustomAttributesCacheGeneratorP21CustomAttributesCache
Ubf:_KeyCollection_System_Collections_Generic_ICollectionU3CTKeyU3E_Add_m454648927_gshared
iOh:_TimeSpan_op_LessThanOrEqual_m300470010
nte:__ZL139AnimatorOverrideController_t3582062219_CustomAttributesCacheGenerator_AnimatorOverrideController_OnInvalidateOverrideController_m3380737075P21CustomAttributesCache
Aqc:__Z66Register_UnityEngine_Transform_INTERNAL_CALL_InverseTransformPointv
Vda:__ZZN15DirectorManager15InitializeClassEvEN41FixedUpdateDirectorFixedUpdateRegistrator7ForwardEv
wXg:_MemoryStream_get_Position_m3733941202
_cc:__ZL10KeyHandleriPK23EmscriptenKeyboardEventPv
Gzk:_glLinkProgram__wrapper
pbb:__ZN18ScriptingArguments8AddInt64Ex
Gia:__ZN6prcoreL12RemapGenericI17TexFormatARGB888815TexFormatBGR888EEvPKNS_9InnerInfoE
cnb:__ZN26SinglePassStereoSupportExt19SaveStereoConstantsEv
vfa:__ZNSt3__26vectorIP10MemoryPool13stl_allocatorIS2_L18MemLabelIdentifier76ELi16EEE21__push_back_slow_pathIRKS2_EEvOT_
nPg:_TextInfo_get_ListSeparator_m1628160079
pYf:_Selectable_OnCanvasGroupChanged_m472903475
bLh:_EventWaitHandle_Reset_m3348053200
jnd:__ZN28UnityConnectScriptingClasses23CallSessionStateChangedEixxbP21ScriptingExceptionPtr
_$j:__ZN6il2cpp6icalls8mscorlib6System13Globalization11CultureInfo35construct_internal_locale_from_nameEP17Il2CppCultureInfoP12Il2CppString
gvb:__ZL22Transfer_ManagedObjectI24GenerateTypeTreeTransferLb1EEvRK29SerializationCommandArgumentsR31RuntimeSerializationCommandInfo
mYb:__ZN15RenderNodeQueueC2E10MemLabelId
PNd:_ResourceEnumerator_FillCache_m1661715061
d8d:__ZL72SecuritySafeCriticalAttribute_t3505979402_CustomAttributesCacheGeneratorP21CustomAttributesCache
Zj:_emscripten_set_main_loop_timing
vtf:_Bounds_get_min_m3755135869
H3g:_Convert_ToUInt16_m3523269149
lPb:__ZN14DataBufferGLES12RecordRenderEv
nud:_ExecuteEvents_get_endDragHandler_m2879610446
p9b:__ZN14ImageReference10FlipImageYEv
hya:__ZN21ScalableBufferManager20GetHeightScaleFactorEv
kL:__ZN4FMOD3DSP9setBypassEb
Rcc:__Z19NormalizeWheelInputf
nEd:_Graphic_DoMeshGeneration_m3548487693
JH:__ZN11KeyframeTplIfE8TransferI14SafeBinaryReadEEvRT_
Bbj:_Repetition__ctor_m1672362629
rSc:__Z29Transfer_Blittable_ArrayFieldI8JSONReadhEvRT_R9ArrayInfoRK23StaticTransferFieldInfo
vqg:_SecurityFrame_ToString_m339310712_AdjustorThunk
OHd:_TypeBuilder_create_runtime_class_m2581270900
Ujc:__ZN11MonoManager25GetImageFromAssemblyIndexEi
sZe:_InternalEnumerator_1_get_Current_m3008260692_gshared
sjk:__ZN6il2cpp2os20ThreadLocalValueImpl8SetValueEPv
jAa:__ZN22RenderingCommandBuffer20CleanupCommandBufferEv
y1g:_Decimal_op_Implicit_m2299919277
fNc:__Z18Transfer_BlittableI9JSONWriteLb1EtEvRK29SerializationCommandArgumentsR31RuntimeSerializationCommandInfo
YIe:_UnexceptionalStreamReader_ReadToEnd_m920589220
n5g:_DateTime_System_IConvertible_ToType_m1242864300
Gsg:_String_IndexOf_m1298810678
sk:___syscall85
oed:__ZN2UI14CanvasRenderer18UpdateTRSHierarchyEb
rYb:__ZNSt3__26__sortIRPFbP10GUIElementS2_EPS2_EEvT0_S7_T_
Ctc:__ZN16GraphicsSettings12CleanupClassEv
zRe:_ConstructorBuilder_GetILGenerator_m1750792206
Vtg:_EncoderFallback_get_ReplacementFallback_m818398284
N7j:__ZN6il2cpp2os6Thread19DetachCurrentThreadEv
Jtd:_EventTrigger_OnBeginDrag_m4203438710
Xzj:__ZN6il2cpp2vmL21SetupInterfacesLockedEP11Il2CppClassRKNS_2os12FastAutoLockE
Inb:__ZN11MonoManager23VirtualRedirectTransferER24GenerateTypeTreeTransfer
KB:__ZN23AnimationPlayableOutput17SetSourcePlayableEP8Playable
svf:_CullingGroup_Dispose_m782801025
Yqa:__ZN9Scripting11UnityEngine9Component12CleanupProxyEv
zY:__ZN11UnityEngine15CloudWebService14DataDispatcher15SetupWebRequestEv
ukd:__ZN11UnityEngine15PlatformWrapper13GetShaderCapsEv
A4b:__ZNSt3__211__sift_downIR26RenderDeferredObjectSorterP16RenderObjectDataEEvT0_S5_T_NS_15iterator_traitsIS5_E15difference_typeES5_
LTe:_GenericTypeParameterBuilder_IsDefined_m98179866
fqh:_KeyPairPersistence_get_MachinePath_m3812267291
G_g:_Stack_Peek_m2216191248
a5g:_DateTime_System_IConvertible_ToDecimal_m1044850612_AdjustorThunk
fuc:__ZN21FixedBehaviourManager6UpdateEv
Ypc:__ZN9Transform9SetParentEPS_NS_15SetParentOptionE
kCa:__ZN19ShaderPropertySheet8SetFloatEN9ShaderLab16FastPropertyNameEfNS_8SetFlagsE
Z5a:__ZN19RuntimeSceneManager24BeginIntegrateMainThreadEP10UnityScene
L8j:__ZNSt3__2plIcNS_11char_traitsIcEENS_9allocatorIcEEEENS_12basic_stringIT_T0_T1_EERKS9_S6_
WHe:_StringReader_CheckObjectDisposedException_m3796163530
eRh:_UInt32_System_IConvertible_ToInt16_m1659441601
igc:__ZN9ShaderLab20SerializedSubProgramaSERKS0_
rqk:_roundf
kEg:_Byte_System_IConvertible_ToSingle_m324484566_AdjustorThunk
w$g:_Decimal_op_Explicit_m2848387298
MBh:_KeyValuePair_2_ToString_m1238786018_gshared
ev:__ZN8Animator15SetPrepareStageEv
dJ:__ZN8AnimatorC2E10MemLabelId18ObjectCreationMode
Yzj:__ZN6il2cpp2vmL24SetupTypeHierarchyLockedEP11Il2CppClassRKNS_2os12FastAutoLockE
$cc:__ZL11TextHandleriPK23EmscriptenKeyboardEventPv
jZc:_destroy_face
Uvk:_glBlendEquationSeparate__wrapper
tgk:__ZN6il2cpp6icalls8mscorlib6System8Security12Cryptography24RNGCryptoServiceProvider13RngInitializeEP11Il2CppArray
uQ:__ZN20SoundChannelInstance7setMuteEb
p5g:_DateTimeUtils_ToString_m1782212840
gOe:_NumberFormatter_NumberToString_m3906556024
Zzb:__Z19TransferField_ArrayI18StreamedBinaryReadILb1EE27Converter_SimpleNativeClassI17AnimationCurveTplIfEEEvRK23StaticTransferFieldInfoR31RuntimeSerializationCommandInfoRT0_
DPb:__ZN18GfxFramebufferGLES22MakeCurrentFramebufferENS_7BuiltinE
ZFa:__ZN12CachedReader4ReadEPvj
Wwd:_StandaloneInputModule_ProcessMouseEvent_m2923582521
yLd:_MonoMethod_ShouldPrintFullName_m1607666412
X0b:__Z24CalculateLightShadowFadeRK6CamerafffR8Vector4f
e6:__ZN19RuntimeSceneManagerD2Ev
ELg:_CCGregorianCalendar_GetMonth_m1547203696
PZ:__ZN11UnityEngine15CloudWebService25WebRequestDownloadHandler17OnCompleteContentEv
sPa:__ZN6prcore17GetIntegerBlitterE13TextureFormatS0_N14ImageReference8BlitModeE
vek:_GC_print_block_descr
ama:__ZL51__ManagedRegistrationHelperFunction_ResourceRequestPv
wDc:__ZN9BlobWrite14ReduceCopyImplERK14ReduceCopyDataj
dih:_Array_LastIndexOf_TisRuntimeObject_m1677937501_gshared
oU:__ZN11AudioSource18IsPlayingScriptingEv
Zph:_KeyBuilder_IV_m2230195376
Juk:_glShaderSource__wrapper
Leb:__ZN25MultiBlocksMemoryFileData17AdjustBlocksCountEj
bZj:__ZNSt3__214__split_bufferIN6il2cpp2vm22EmbeddedResourceRecordERNS_9allocatorIS3_EEED2Ev
qXc:__ZN13TextRendering4Font8TransferI24GenerateTypeTreeTransferEEvRT_
Bmc:__Z27CullingGroup_CUSTOM_DisposeP12Il2CppObject
Am:_glStencilMask
l8j:__ZN6il2cpp2os10ThreadImpl16GetCurrentThreadEv
Tcc:__ZN15GUIEventManager10QueueEventERK10InputEvent
QHj:_AnalyticsEvent_OnValidationFailed_m2609604624
Pue:__ZL62EventType_t3528516131_CustomAttributesCacheGenerator_mouseMoveP21CustomAttributesCache
yOd:_DecimalConstantAttribute__ctor_m3583301917
Xdk:_GC_push_conditional_with_exclusions
NUd:_MethodCallDictionary__ctor_m2167303393
z6c:_Compute_Point_Displacement
Bdk:_GC_make_disappearing_links_disappear
wnk:_strrchr
cvf:_Component_GetComponentInParent_m779177818
wxd:_UIBehaviour_IsDestroyed_m3033055982
Eoi:__Z109RuntimeInvoker_Void_t1185182177_RuntimeObject_RuntimeObject_SByte_t1669577662_Int32_t2950945753_RuntimeObjectPFvvEPK10MethodInfoPvPS4_
eOf:_InputField_get_readOnly_m3111985574
oHa:__ZN14RenderSettings27UpdateIndirectSpecularColorEv
Zle:__ZL59RectOffset_t1369453676_CustomAttributesCacheGenerator_m_PtrP21CustomAttributesCache
D2a:__ZN14PlayerSettings8TransferI18StreamedBinaryReadILb0EEEEvRT_
mKj:__ZN6il2cpp6icalls8mscorlib6System8MonoType16GetMethodsByNameEP20Il2CppReflectionTypeP12Il2CppStringibS5_
v2i:_RijndaelTransform__cctor_m2439033240
KJb:__ZNSt3__27__sort3IRNS_4lessIN22BuiltinResourceManager8ResourceEEEPS3_EEjT0_S7_S7_T_
V7c:_ps_hints_t2mask
Ddh:_Array_InternalArray__ICollection_Remove_TisMonoResource_t4103430009_m238733686_gshared
kZf:_Slider_Set_m1476104429
$Fd:_Image_set_fillClockwise_m2210525152
s0a:__ZN10BlendShape8TransferI19StreamedBinaryWriteILb0EEEEvRT_
imb:__ZNSt3__26vectorIN20GpuProgramParameters14ConstantBufferENS_9allocatorIS2_EEE21__push_back_slow_pathIRKS2_EEvOT_
PCf:_PlayerConnection_DisconnectedCallback_m1697017309
s1a:__Z19GetTimeSinceStartupv
zGd:_Image_AddQuad_m2161647989
UEh:_Enumerator_System_Collections_IEnumerator_Reset_m2953002685_gshared
p7c:_TT_Load_Composite_Glyph
vs:__ZL51__ManagedRegistrationHelperFunction_ScaleConstraintPv
DLa:__ZN9ShaderLab11shaderprops9GetTexEnvEPK19ShaderPropertySheetS3_NS_16FastPropertyNameE16TextureDimensionb
h$b:__ZN29RenderNodeQueuePrepareContextC2Ev
nVj:_il2cpp_gc_disable
k8f:_IntStack_t2189327687_marshal_pinvoke_back
rhc:__ZN9ShaderLab20SerializedSubProgram16TextureParameter8TransferI24GenerateTypeTreeTransferEEvRT_
Cra:__ZN9Scripting5Unity11Collections8LowLevel6Unsafe29NativeSetThreadIndexAttribute12CleanupProxyEv
Tgk:__ZN6il2cpp2os11MutexHandle4WaitEb
phb:__ZN9GfxDevice19SaveStereoConstantsEv
Sgk:__ZN6il2cpp2os11MutexHandle4WaitEj
Mmc:__ZL34GetComponentsImplementationRecurseILb1ELi1ELi1EEbR10GameObjectbRK17CompareParametersRK39GetComponentsImplementation_ReturnValue
Mgi:__Z114RuntimeInvoker_Boolean_t97287965_RuntimeObject_RuntimeObject_Int32_t2950945753_Int32_t2950945753_Int32_t2950945753PFvvEPK10MethodInfoPvPS4_
VQe:_AssemblyBuilder_GetTypes_m3415680380
Uha:__ZN6prcoreL17RemapGenericFloatI15TexFormatRGHalf18TexFormatARGBFloatEEvPKNS_9InnerInfoE
FHb:__Z18SimulateMouseInputi
dXb:__ZN13RenderManager23AddRemoveCamerasDelayedEv
ehd:__ZN11UnityEngine9Analytics15AnalyticsConfigC2Ev
JLc:__ZN5Unity9rapidjson6WriterI16TempBufferWriterNS0_4UTF8IcEES4_13JSONAllocatorE11WriteUint64Ey
NCg:_BitConverter__cctor_m3841343255
d$g:_Decimal_Compare_m3062820418
a9f:_IntervalCollection_GetMetaCollection_m4029522214
Etd:_EventTrigger_OnDeselect_m1919608102
wuj:_TextGenerator_get_characterCount_m864136654
kNh:_TimeSpan__ctor_m2047388489_AdjustorThunk
X7b:__ZN13RenderTexture8SetWidthEi
Cba:__ZN22BuiltinResourceManager16StaticInitializeEPv
b_i:_Collection_1_System_Collections_ICollection_CopyTo_m1516601228_gshared
mca:__ZN23DefaultMeshVertexFormatC2E18VertexChannelsInfo
AQg:_Int16_System_IConvertible_ToDouble_m1661805412
U3:__ZN9ShaderLab16FastPropertyName4InitEPKc
LKa:__ZN6ObjectC2E10MemLabelId18ObjectCreationMode
h1e:_InternalEnumerator_1_get_Current_m3911557813_AdjustorThunk
Zjd:__ZN11UnityEngine15PlatformWrapper19GetPhysicalMemoryMBEv
Vx:__ZN17AnimationPlayable17GetAnimationClipsER13dynamic_arrayIP13AnimationClipLj0EE
REg:_Char_System_IConvertible_ToByte_m2347554595_AdjustorThunk
iJa:__ZN13RenderTexture9SetMipMapEb
kUc:__ZN9Scripting11UnityEngine14ContactPoint2D9InitProxyEv
$tg:_String_CreateString_m860434552
uea:__Z18GetDirectorManagerv
Ppc:__Z38Transform_CUSTOM_INTERNAL_get_rotationP12Il2CppObjectP11Quaternionf
oOj:__ZNK15dense_hashtableINSt3__24pairIK10KeyWrapperINS1_IPK10MethodInfoP11Il2CppClassEEEjEES9_17ReflectionMapHashIS8_EN14dense_hash_mapIS9_jSD_NS9_14EqualsComparerINS0_8equal_toIS8_EEEENS0_9allocatorISB_EEE9SelectKeyESI_SK_E5beginEv
YNb:__ZN7ApiGLES19UploadBufferSubDataEjN2gl12BufferTargetEllPKv
je:_glFramebufferTextureLayer
Oga:__ZNSt3__216__rotate_forwardINS_11__wrap_iterIPN4core12basic_stringIcNS2_20StringStorageDefaultIcEEEEEEEET_S9_S9_S9_
oLf:_Vector2_GetHashCode_m3916089713
ryg:_SmallXmlParserException__ctor_m1976648878
cMe:_MulticastDelegate_Equals_m2502840627
dng:_SymmetricAlgorithm_set_KeySize_m3805756466
oEg:_Byte_System_IConvertible_ToUInt32_m1049546902_AdjustorThunk
Ipi:__Z53RuntimeInvoker_Double_t594665363_Interval_t1802865632PFvvEPK10MethodInfoPvPS4_
UJb:__Z21InitializeBatchedJobsv
evj:_CanvasGroup_get_blocksRaycasts_m1805542303
Nlg:_SHA1Internal_ProcessBlock_m1991889327
_pb:__Z19TransferField_ArrayI14SafeBinaryRead27Converter_SimpleNativeClassI8GUIStyleEEvRK23StaticTransferFieldInfoR31RuntimeSerializationCommandInfoRT0_
VDb:__ZN9TextAsset23VirtualRedirectTransferER19StreamedBinaryWriteILb0EE
FHi:_Array_Sort_TisRuntimeObject_TisRuntimeObject_m1685639929_gshared
Cgk:__ZN6il2cpp5utils10MemoryPoolC2Ev
JGa:__ZN14RenderSettings5ResetEv
mkc:__ZN6Sprite9BindAtlasERK4PPtrI11SpriteAtlasE
$Lc:__ZN5Unity9rapidjson12GenericValueINS0_4UTF8IcEE13JSONAllocatorE10FindMemberIS4_EENS0_21GenericMemberIteratorILb0ES3_S4_EERKNS1_IS3_T_EE
d1e:_InternalEnumerator_1_System_Collections_IEnumerator_get_Current_m3892960115_AdjustorThunk
Kjc:__ZN9ShaderLabL18AddPropertyToArrayERK19ShaderPropertySheetR13dynamic_arrayIiLj0EERKNS_8FloatValE
C_j:__ZNSt3__212basic_stringIDsNS_11char_traitsIDsEENS_9allocatorIDsEEE6appendEPKDsj
HGg:_ArrayList_Clone_m2682741233
Lqf:_HMAC_HashCore_m3684104066
mnd:__Z13RegisterClassI20UnityConnectSettingsEvPKc
Z3h:__ZN28GenericInterfaceFuncInvoker2Ii20UIVertex_t4057497605S0_E6InvokeEPK10MethodInfoP12Il2CppObjectS0_S0_
qLc:__ZN5Unity9rapidjson13GenericReaderINS0_4UTF8IcEES3_13JSONAllocatorE11ParseNumberILj1ENS0_25GenericInsituStringStreamIS3_EENS0_15GenericDocumentIS3_S4_S4_EEEEvRT0_RT1_
X7j:__ZN6il2cpp2os10ThreadImplD2Ev
oMc:__ZN8Gradient8TransferI9JSONWriteEEvRT_
S6a:__ZN21RendererUpdateManager18OncePerFrameUpdateER13RendererScene
Onj:_AudioSource_set_clip_m31653938
Gua:__ZNK12TLSAllocatorI14StackAllocatorE22GetAllocatedMemorySizeEv
Ssa:__ZN17RemapPPtrTransfer12PushMetaFlagE17TransferMetaFlags
kyh:_EqualityComparer_1_System_Collections_IEqualityComparer_GetHashCode_m2138064395_gshared
Hbb:__ZN12HandlerChain4NameEv
NQg:_Int16_System_IConvertible_ToType_m3672347013_AdjustorThunk
Prb:__Z29Transfer_Blittable_ArrayFieldI14SafeBinaryReadN4math12int3_storageEEvRT_R9ArrayInfoRK23StaticTransferFieldInfo
URg:_Int32_System_IConvertible_ToType_m3009233912_AdjustorThunk
sRg:_Int16_ToString_m2013897809
gqg:_String_Substring_m2848979100
Ged:__Z44Register_UnityEngine_CanvasRenderer_get_cullv
Bjd:__ZN11UnityEngine7Connect17XRDeviceInfoEvent12XRDeviceInfoD2Ev
bob:__Z44InitializeTransferFunctionScriptingTraitsForI17RemapPPtrTransferEvR31TransferFunctionScriptingTraits
mtc:__ZNSt3__26vectorI16MessageForwarder13stl_allocatorIS1_L18MemLabelIdentifier7ELi8EEE6resizeEj
k5f:_X509Chain_SelectBestFromCollection_m1068759221
Eij:_SymmetricTransform_TransformBlock_m851059707
KXd:__ZL68IntPtr_t_CustomAttributesCacheGenerator_IntPtr_ToPointer_m4157623054P21CustomAttributesCache
DHb:__Z11StringToKeyRKN4core12basic_stringIcNS_20StringStorageDefaultIcEEEE
sWi:_Enumerator_System_Collections_IEnumerator_Reset_m2261065994_AdjustorThunk
aXf:_ScrollRect_get_verticalNormalizedPosition_m3693218937
Y5a:__ZN18LoadSceneOperation21MustCompleteNextFrameEv
mZf:_Slider_UpdateDrag_m1102107039
JLd:_MonoMethodInfo_get_method_info_m88651774
UT:__ZNK12AudioManager16GetAudioListenerEv
ERg:_Int32_System_IConvertible_ToDateTime_m1824716955
Anf:_RuntimeTypeHandle__ctor_m3315980708_AdjustorThunk
Luj:_Canvas_set_overrideSorting_m4088794420
A7b:__ZNSt3__26vectorI11CameraStackNS_9allocatorIS1_EEE8__appendEj
Ew:__ZN7mecanim9animation12GetHumanPoseERKNS0_18ClipMuscleConstantEPKNS0_10ValueDeltaERNS_5human9HumanPoseE
Dhd:__ZN11UnityEngine9Analytics15UserCustomEvent12CustomParams6InsertEPKcRNS1_11CustomValueE
yy:__ZN22AnimationMixerPlayable17ProcessRootMotionEP35AnimationPlayableEvaluationConstantP32AnimationPlayableEvaluationInputP33AnimationPlayableEvaluationOutput
L9:__Z13GetFileSystemv
gca:__ZN13RuntimeStaticI15GUIEventManagerLb0EE16StaticInitializeEPv
SBf:_MonoBehaviour_IsObjectMonoBehaviour_m2134950949
ima:__ZL45__ManagedRegistrationHelperFunction_Texture2DPv
yTh:_Version_CompareTo_m3146217210
Shg:_TlsClientCertificate_FindParentCertificate_m3844441401
rej:_Uri_ParseAsUnixAbsoluteFilePath_m1476768041
Ajh:_Array_InternalArray__ICollection_CopyTo_TisKeyValuePair_2_t71524366_m1056941380_gshared
EOh:_Type_get_IsClass_m589177581
qge:__ZL62NativeTypeAttribute_t2250406315_CustomAttributesCacheGeneratorP21CustomAttributesCache
onb:__ZN19ShaderPropertySheet9SetMatrixEN9ShaderLab16FastPropertyNameERK10Matrix4x4fNS_8SetFlagsE
CRa:__Z29GetTextureSizeAllowedMultiple13TextureFormat
c8g:_Decimal_Subtract_m835601464
iNh:_TimeSpan__ctor_m3689759052_AdjustorThunk
yUj:_il2cpp_array_element_size
rWd:__ZL62ComVisibleAttribute_t1362837655_CustomAttributesCacheGeneratorP21CustomAttributesCache
Ava:__ZNSt3__26__treeINS_12__value_typeIN4core12basic_stringIcNS2_20StringStorageDefaultIcEEEEjEENS_19__map_value_compareIS6_S7_NS_4lessIS6_EELb1EEE13stl_allocatorIS7_L18MemLabelIdentifier7ELi16EEE25__emplace_unique_key_argsIS6_JNS_4pairIS6_jEEEEENSH_INS_15__tree_iteratorIS7_PNS_11__tree_nodeIS7_PvEEiEEbEERKT_DpOT0_
kHf:_RectTransform_INTERNAL_set_sizeDelta_m188783163
Vf:_glCheckFramebufferStatus
Zfk:__ZN6il2cpp2os11EventHandle4WaitEv
R5:__Z43scripting_class_get_method_from_name_filter17ScriptingClassPtrPKciN24ScriptingMethodFiltering18MethodSearchFilterEPK16ScriptingTypePtr
Wed:__Z13RegisterClassIN2UI6CanvasEEvPKc
B$:__ZN19CloudServiceHandler20StartEventDispatcherERKN11UnityEngine15CloudWebService18CloudServiceConfigERNS1_23WebRequestRestHeaderMapE
NEd:_GraphicRaycaster__ctor_m646559428
CIg:_BitArrayEnumerator_get_Current_m4220391712
sPe:__Z37il2cpp_codegen_get_executing_assemblyPK10MethodInfo
OHf:_Transform_get_parent_m835071599
q1f:_IPAddress_get_ScopeId_m4237202723
wpa:__ZN9Scripting11UnityEngine12Experimental10PlayerLoop9PreUpdate12CleanupProxyEv
Fbj:_ExpressionCollection_get_Item_m3510736379
GBe:__ZL62FontData_t746620069_CustomAttributesCacheGenerator_m_AlignmentP21CustomAttributesCache
vwd:_StandaloneInputModule_get_inputActionsPerSecond_m3946624274
yKh:_UTF8Encoding_InternalGetCharCount_m82458470
CLf:_Vector2__cctor_m2108982652
QCf:_U3CBlockUntilRecvMsgU3Ec__AnonStorey2_U3CU3Em__0_m2225790220
nna:__ZN9Scripting11UnityEngine9Rendering20SphericalHarmonicsL29InitProxyEv
o0j:__ZN14dense_hash_mapI10KeyWrapperIP14Il2CppIUnknownEjN6il2cpp5utils11PointerHashIS1_EENS3_14EqualsComparerINSt3__28equal_toIS2_EEEENS9_9allocatorINS9_4pairIKS3_jEEEEE15set_deleted_keyERSF_
TQj:__ZN13Il2CppHashMapIPK14Il2CppAssemblyPK22Il2CppMonoAssemblyNameN6il2cpp5utils11PointerHashIS1_EENSt3__28equal_toIS2_EENSA_9allocatorINSA_4pairIK10KeyWrapperIS2_ES5_EEEEEC2EjRKS9_RKSC_
Nzg:_DelegatePInvokeWrapper_AppDomainInitializer_t682969308
Q8:__ZN8Remapper6RemoveEi
Vvg:_Encoding_GetBytes_m3148649984
wCc:__ZN9Scripting27CreateArgumentNullExceptionEPKc
d_c:__ZL36CleanupTextRenderingScriptingClassesv
U7b:__ZN15ReflectionProbe17UseRendererResultEP13ProbeRenderer
vFc:__Z34Mesh_CUSTOM_SetArrayForChannelImplP12Il2CppObject30InternalScriptingShaderChannel34InternalScriptingVertexChannelTypeiP11Il2CppArrayi
mvj:_CanvasRenderer_INTERNAL_CALL_EnableRectClipping_m3318097918
WRh:_UInt64_System_IConvertible_ToDecimal_m806594027_AdjustorThunk
Oka:__ZL58__ManagedRegistrationHelperFunction_MaterialEffectPlayablePv
And:__ZN11UnityEngine7Connect20RemoteConfigSettings18StaticCallOnUpdateEPS1_
D9e:_Enumerator_get_CurrentValue_m3103267885_gshared
VMi:_List_1__ctor_m3395838871_gshared
JWh:_Collection_1_IsFixedSize_m3698021882_gshared
cK:__ZN9Scripting11UnityEngine18AssetBundleRequest9InitProxyEv
n6i:_PKCS12__ctor_m1854440921
eHi:_Array_Resize_TisCustomAttributeNamedArgument_t287865710_m885566878_gshared
Qaa:__ZN17TransformInternal19FreeTransformThreadER18TransformHierarchyjj
Ns:__ZN9Scripting11UnityEngine12SkeletonBone12CleanupProxyEv
bu:__ZN11UnityEngine9Animation28GenericAnimationBindingCache25RegisterIAnimationBindingEPKN5Unity4TypeEiP17IAnimationBinding
CRd:_FormatterData__ctor_m3990517908
Ked:__Z70RectTransformUtility_CUSTOM_INTERNAL_CALL_RectangleContainsScreenPointP12Il2CppObjectRK13Vector2fIcallS0_
nVg:_DirectoryInfo__ctor_m481305441
Pzj:__ZN6il2cpp2vm5Class15GetElementClassEP11Il2CppClass
T3:__ZN10MemoryPoolC2E10MemLabelIdbPKciii
Hgd:__ZN14UnityAnalytics25UnregisterGlobalCallbacksEv
Dxi:__Z80RuntimeInvoker_Boolean_t97287965_ColorBlockU26_t337120346_ColorBlock_t2139031574PFvvEPK10MethodInfoPvPS4_
k6b:__Z40ProcessCameraIndexListIsNodeVisibleInOutRK22SceneCullingParametersPK9SceneNodePK4AABBR9IndexList
zhj:_GUIScrollGroup_SetHorizontal_m291416666
OFa:__ZN16GraphicsSettings8TransferI17RemapPPtrTransferEEvRT_
hck:__GLOBAL__sub_I_Assembly_cpp_43341
Cfd:__ZN2UI6Canvas13UpdateBatchesEb
g3f:_X509BasicConstraintsExtension_Decode_m120598446
HB:__ZNK23AnimationPlayableOutput11DerivesFromE17ScriptingClassPtr
$lf:_ObjectReader_ReadObjectGraph_m340866276
Wue:__ZL64EventType_t3528516131_CustomAttributesCacheGenerator_dragUpdatedP21CustomAttributesCache
Tkd:__ZN11UnityEngine7Connect13ConfigHandler12GetListenersERKN4core12basic_stringIcNS2_20StringStorageDefaultIcEEEE
pib:__ZN9GfxDevice18AllocRenderSurfaceEb
KEg:_Char__cctor_m2787437263
xxc:__ZN10TagManager32GetSortingLayerUniqueIDFromValueEi
Kxd:_AspectRatioFitter_get_rectTransform_m2996235303
J5:__ZL27CleanupCoreScriptingClassesv
KEd:_Graphic_UnregisterDirtyMaterialCallback_m2707090617
Z7e:_Comparer_1_System_Collections_IComparer_Compare_m1313384821_gshared
Qqc:__Z26AnimationCurve_CUSTOM_InitP12Il2CppObjectP11Il2CppArray
myk:_glUniform1uiv__wrapper
EQj:__ZN6il2cpp2vm10Reflection7IsEventEP12Il2CppObject
R8:__ZN17PersistentManager26GetStreamNameSpaceInternalEi
kR:__ZN4FMOD6System11createSoundEPKcjP22FMOD_CREATESOUNDEXINFOPPNS_5SoundE
Wn:FUNCTION_TABLE_iiifiiii
UVc:__ZN13SpeedTreeWind20AdvanceWithoutUpdateEd
LWh:_ReadOnlyCollection_1_System_Collections_Generic_ICollectionU3CTU3E_Add_m1422506275_gshared
$4g:_DateTime_System_IConvertible_ToDecimal_m1044850612
P4:__ZN9ShaderLab19CommonPropertyNames13StaticCleanupEPv
e8:__Z31scripting_method_get_returntype18ScriptingMethodPtr
eWa:__ZN15SerializeTraitsI12LightmapDataE8TransferI24GenerateTypeTreeTransferEEvRS0_RT_
Bog:_SecurityElement_AddAttribute_m311510562
Ara:__ZN9Scripting5Unity11Collections44NativeDisableParallelForRestrictionAttribute12CleanupProxyEv
Luk:_glStencilOpSeparate__wrapper
JAc:__ZN4Mesh5SetUvEiPKfjj
QTa:__ZN7Texture13SetAnisoLimitENS_20AnisotropicFilteringE
mpd:__ZN20UnityWebRequestProtoI24UnityWebRequestTransport16AtomicRefCounter14RedirectHelper14ResponseHelper15DownloadHandler13UploadHandler18CertificateHandler12HeaderHelper14AsyncOperationED2Ev
cw:__ZN21AnimationClipPlayable22PrepareAnimationEventsEfR13dynamic_arrayI22AnimationClipEventInfoLj0EE
DCg:_Attribute_IsDefined_m4069052474
Ph:_emscripten_glCompressedTexSubImage2D
cRb:__ZN13GfxDeviceGLES22MemoryBarrierImmediateEyN2gl17MemoryBarrierTypeE
wia:__ZN6prcoreL26RemapGenericFloatToIntegerI18TexFormatARGBFloat17TexFormatARGB8888EEvPKNS_9InnerInfoE
gVi:_List_1_set_Capacity_m1977188119_gshared
XBc:__Z46GetShaderModelNumericValueFromRequirementsMask18ShaderRequirements
F1c:_cff_ps_has_glyph_names
yuh:_Dictionary_2_Resize_m3287623642_gshared
zck:_GC_write
Grf:_RC2_Create_m2516417038
uEd:_Graphic_OnPopulateMesh_m767318148
or:__ZN17ConstraintManagerD2Ev
Jhf:_Dictionary_2_Remove_m4193450060_gshared
mTg:_Int64_TryParse_m3606398488
$Fi:_Array_InternalArray__set_Item_TisMark_t3471605523_m1299772331_gshared
VJc:__Z44Register_UnityEngine_GUIStyle_SetDefaultFontv
eyb:__Z18Transfer_BlittableI18StreamedBinaryReadILb1EELb1EiEvRK29SerializationCommandArgumentsR31RuntimeSerializationCommandInfo
KD:__ZN9BlobWrite8TransferI22OffsetPtrArrayTransferIKN4math7_float3EEEEvRT_PKc17TransferMetaFlags
Sgi:__Z173RuntimeInvoker_Int32_t2950945753_RuntimeObject_Int32_t2950945753_Int32_t2950945753_Int32_t2950945753_RuntimeObject_Int32_t2950945753_SByte_t1669577662_ContextU26_t3937453398PFvvEPK10MethodInfoPvPS4_
NOi:_List_1__ctor_m2576108087_gshared
tPj:__ZN15dense_hashtableINSt3__24pairIK10KeyWrapperINS1_IPK12PropertyInfoP11Il2CppClassEEEjEES9_17ReflectionMapHashIS8_EN14dense_hash_mapIS9_jSD_NS9_14EqualsComparerINS0_8equal_toIS8_EEEENS0_9allocatorISB_EEE9SelectKeyESI_SK_E12maybe_shrinkEv
jrj:__ZL25UnresolvedVirtualCall_150P12Il2CppObject19Vector2_t2156229523S1_fiPK10MethodInfo
K6i:_X509Certificate_get_DSA_m565099499
Fyb:__Z18Transfer_BlittableI18StreamedBinaryReadILb1EELb1EsEvRK29SerializationCommandArgumentsR31RuntimeSerializationCommandInfo
IIh:_StringBuilder_Remove_m940064945
s2a:__ZN14SafeBinaryRead21TransferSTLStyleArrayI13dynamic_arrayI16SplashScreenLogoLj0EEEEvRT_17TransferMetaFlags
Wlb:__ZN13dynamic_arrayIN16GeometryJobTasks15GeometryJobTaskELj0EE18resize_initializedEjRKS1_12ResizePolicy
Apf:_DESCryptoServiceProvider_GenerateIV_m683687014
WTa:__ZL21SetAnisoLimitEnumImplN7Texture20AnisotropicFilteringEb
Okd:__ZN22BaseUnityConnectClient17OnEnterStateReadyEv
c_f:_Text_get_fontSize_m1677872538
wHh:_List_1_System_Collections_IList_get_Item_m995551621_gshared
dpa:__ZN9Scripting11UnityEngine12Experimental9Rendering15ShadowSplitData9InitProxyEv
r0a:__ZN16BlendShapeVertex8TransferI19StreamedBinaryWriteILb0EEEEvRT_
brc:__Z29Input_CUSTOM_GetMouseButtonUpi
cRg:_Int16_Parse_m138525169
MKj:__ZN6il2cpp6icalls8mscorlib6System8MonoType16InternalGetEventEP20Il2CppReflectionTypeP12Il2CppStringi
kfj:_UriScheme_t722425697_marshal_pinvoke_back
x3c:_UNITY_tt_face_load_maxp
rrc:__Z46Input_CUSTOM_INTERNAL_set_compositionCursorPosRK13Vector2fIcall
Iv:__ZN7mecanim5human12FullBodyMaskEv
d_b:__ZN13BatchRenderer15ApplyShaderPassER17ShaderPassContextPK18SharedMaterialDataP6ShaderPN9ShaderLab4PassEi13BatchingFlagsbbPKNS7_10GrabPassesEPK22DeviceRenderStateBlock
U_a:__ZN19ShaderPropertySheet11ComputeHashEv
ZDj:__ZN30dense_hashtable_const_iteratorI10KeyWrapperIPK19Il2CppGenericMethodES4_N6il2cpp8metadata23Il2CppGenericMethodHashEN14dense_hash_setIS4_S7_NS4_14EqualsComparerINS6_26Il2CppGenericMethodCompareEEENSt3__29allocatorIS4_EEE8IdentityESB_SE_EppEv
yZ:__ZN11UnityEngine15CloudWebService20WebRequestRestClient6IsDoneEv
L3i:_X509CertificateCollection_get_Item_m1033426577
Mi:_llvm_fabs_f32
bZ:__ZN11UnityEngine15CloudWebService16SessionContainer16GetJsonDataBlockEjRKN4core12basic_stringIcNS2_20StringStorageDefaultIcEEEERS6_PjSA_
Ooh:_ASN1_Decode_m1695284166
Sah:_Enum_ToString_m3248653065
oQd:_ChannelServices__cctor_m2475086854
i7:__ZN14SafeBinaryReadD2Ev
$Eh:_Enumerator_MoveNext_m3859993671_gshared
VWc:__ZN14SafeBinaryRead21TransferSTLStyleArrayI13dynamic_arrayIN20TextRenderingPrivate8FontImpl13CharacterInfoELj0EEEEvRT_17TransferMetaFlags
Vzb:__ZN8Gradient8TransferI18StreamedBinaryReadILb1EEEEvRT_
T6f:_Capture__ctor_m3103117740
Qfi:__Z113RuntimeInvoker_Void_t1185182177_RuntimeObject_Int64_t3736567304_RuntimeObject_Int64_t3736567304_Int64_t3736567304PFvvEPK10MethodInfoPvPS4_
oFf:_RangeInt_get_end_m4128831787_AdjustorThunk
M$j:__ZN6il2cpp6icalls8mscorlib6System4Type15MakeGenericTypeEP20Il2CppReflectionTypeP11Il2CppArray
mj:_SDL_PauseAudio
mKg:_Hashtable_Clone_m3078962909
VUj:_il2cpp_class_from_type
FLj:__ZN6il2cpp2os4File11GetStdErrorEv
oyj:_NativeHeaderAttribute__ctor_m457462113
O4:__ZN9ShaderLab19CommonPropertyNames16StaticInitializeEPv
_6e:_Comparer_1__cctor_m2517796511_gshared
nu:__ZN7mecanim9animation18CreateAvatarOutputEPKNS0_14AvatarConstantEbbRNS_6memory9AllocatorE
sig:_TlsServerCertificateRequest_Update_m2763887540
UYf:_Slider_set_maxValue_m2251404465
nQ:__ZN11AudioSource23VirtualRedirectTransferER24GenerateTypeTreeTransfer
uAc:__ZN7Texture11SetWrapModeE15TextureWrapMode
zOa:__ZN14Texture2DArray23VirtualRedirectTransferER14SafeBinaryRead
aKe:_MissingMemberException__ctor_m1220732369
S0b:__ZNK6Camera21CalculateCanDoShadowsEv
G7j:__ZN6il2cpp2os6Thread12SetStackSizeEj
lTf:_MaskableGraphic_RecalculateMasking_m183336762
FKi:_Array_InternalArray__get_Item_TisRuntimeObject_m3347010206_gshared
tId:_TypeBuilder_IsSubclassOf_m3458909121
$qk:dynCall_viffii
cBb:__Z18Transfer_BlittableI18StreamedBinaryReadILb0EELb1EhEvRK29SerializationCommandArgumentsR31RuntimeSerializationCommandInfo
Ixg:_X509Certificate__cctor_m198658613
ZDf:_PlayableHandle_Equals_m1666612586_AdjustorThunk
cia:__ZN6prcoreL27StretchGenericFloatBilinearI15TexFormatRFloatEEvPKNS_9InnerInfoE
uee:__ZL139ServicePointManager_t170559685_CustomAttributesCacheGenerator_ServicePointManager_t170559685____CheckCertificateRevocationList_PropertyInfoP21CustomAttributesCache
cbh:_Enum_ToObject_m1628250250
By:__Z24ProcessAnimationMixBeginP35AnimationPlayableEvaluationConstantP32AnimationPlayableEvaluationInputP33AnimationPlayableEvaluationOutput
rTi:_List_1_set_Item_m2057272351_gshared
SXa:__ZN19StreamedBinaryWriteILb0EE21TransferSTLStyleArrayI13dynamic_arrayI8Vector2fLj0EEEEvRT_17TransferMetaFlags
kSa:__Z14PadImageBorderR14ImageReferenceii
VNj:__ZN15dense_hashtableINSt3__24pairIK10KeyWrapperINS1_IPK10MethodInfoP11Il2CppClassEEEjEES9_17ReflectionMapHashIS8_EN14dense_hash_mapIS9_jSD_NS9_14EqualsComparerINS0_8equal_toIS8_EEEENS0_9allocatorISB_EEE9SelectKeyESI_SK_E4findERSA_
hHj:__ZN6il2cpp2vm13MetadataCache28GetFieldDefaultValueForFieldEPK9FieldInfo
Vgh:_Array_IndexOf_TisUIVertex_t4057497605_m3336763564_gshared
dz:__ZN27AnimationLayerMixerPlayableD2Ev
Wzd:_ColorBlock_Equals_m518833916_AdjustorThunk
tZe:_InternalEnumerator_1_System_Collections_IEnumerator_get_Current_m1514266661_AdjustorThunk
mM:__ZN12AudioManager39HandlePendingAudioConfigurationCallbackEv
pma:__ZL43__ManagedRegistrationHelperFunction_Vector3Pv
lk:_emscripten_glIsFramebuffer
nrh:_RSAManaged_EncryptValue_m799827583
e7b:__ZN12_GLOBAL__N_16qAtan2Eff
pk:_JS_Sound_SetLoopPoints
ghk:__ZN6il2cpp2vm26MetadataAllocGenericMethodEv
Odh:_Array_InternalArray__ICollection_Remove_TisUInt16_t2177724958_m1766181761_gshared
sTb:__ZN19ConstantBuffersGLES12RecordRenderEv
eOc:__ZN9JSONWrite8TransferI10RectOffsetEEvRT_PKc17TransferMetaFlags
bSa:__ZN4crnd12symbol_codec11decode_bitsEj
F$c:_cf2_doFlex
Xij:_AesManaged_GenerateIV_m1368817386
zL:__ZN4FMOD6System12createReverbEPPNS_6ReverbE
Dak:__ZN6il2cpp2vm6String21InitializeEmptyStringEP11Il2CppClass
Wy:__ZN7mecanim19ValueArrayBlendNodeILb1EEEvRKNS_10ValueArrayERKNS_14ValueArrayMaskERS1_RS4_RNS_16ValueArrayWeightEf
B8a:__Z16MarkDependenciesR27GarbageCollectorThreadStatej
_bi:_ObjectPool_1_get_countInactive_m526975942_gshared
Sif:_RemotingServices_DisposeIdentity_m2605848806
$ga:__ZNK9Transform11GetPositionEv
rtf:_Bounds_set_size_m4127623202
EPg:_GuidParser_Reset_m2640004655
Yyc:__ZN31CanvasBatchIntermediateRenderer11AddSubBatchERK16DrawBuffersRangePK19ShaderPropertySheet
jvc:__ZN19RenderEventsContextC2Ei
$W:__Z6simd4fRKf
Tk:_emscripten_glEnable
$_e:_InternalEnumerator_1_System_Collections_IEnumerator_get_Current_m2982675020_gshared
pva:__ZN10TagManager23VirtualRedirectTransferER14SafeBinaryRead
kDe:__ZL51RawImage_t3182918964_CustomAttributesCacheGeneratorP21CustomAttributesCache
wea:__ZN14PlayableOutput26ClearInvalidSourcePlayableEv
O3b:__Z15InitLightMeshesv
sKd:_MonoCMethod_ToString_m3992577062
fWj:_RaycastHit_get_collider_m1464180279
LTa:__ZN15QualitySettings8TransferI19StreamedBinaryWriteILb0EEEEvRT_
qNc:__Z18Transfer_BlittableI9JSONWriteLb1E11ColorRGBA32EvRK29SerializationCommandArgumentsR31RuntimeSerializationCommandInfo
iPg:_SortKey_GetHashCode_m3547067087
uSf:_LayoutUtility_U3CGetFlexibleHeightU3Em__7_m2991026842
h$c:_cf2_arrstack_init
OKi:_Array_InternalArray__get_Item_TisResourceCacheItem_t51292791_m1306056717_gshared
Yti:__Z157RuntimeInvoker_Void_t1185182177_RuntimeObject_RuntimeObject_RuntimeObject_RuntimeObject_RuntimeObject_RuntimeObject_RuntimeObject_RuntimeObject_RuntimeObjectPFvvEPK10MethodInfoPvPS4_
c2:__Z15CleanLogHandler7LogTypePKcz
nNe:_NumberFormatter_NumberToString_m2481532188
Whc:__ZN9ShaderLab19SerializedSubShader8TransferI19StreamedBinaryWriteILb0EEEEvRT_
dXf:_ScrollRect_InternalGetBounds_m599803667
Tra:__ZN9Scripting5Unity11Collections8LowLevel6Unsafe41NativeContainerIsAtomicWriteOnlyAttribute9InitProxyEv
QEb:__ZN6Camera17RemoveImageFilterERK11ImageFilter
Amb:__ZNSt3__218__insertion_sort_3IR25ValueParameterArraySorterPN20GpuProgramParameters14ValueParameterEEEvT0_S6_T_
iee:__ZL67EditorBrowsableAttribute_t1475454531_CustomAttributesCacheGeneratorP21CustomAttributesCache
sJg:_Comparer__cctor_m3311686689
D_e:_InternalEnumerator_1_get_Current_m3500427238_AdjustorThunk
ogd:__ZN2UI26InitializeDeviceForOverlayEi
y3:__Z27LogRepeatingStringWithFlagsRKN4core12basic_stringIcNS_20StringStorageDefaultIcEEEE15LogMessageFlagsi
fSh:_UInt64_System_IConvertible_ToSingle_m925613075
dbh:_Enum_IsDefined_m1442314461
OLh:_Thread__cctor_m817723615
Rmj:_AudioExtensionManager_RegisterBuiltinDefinitions_m2742744104
iw:__ZN17AnimationPlayable28ComputeNeedsBindingRebuildedEv
nv:__ZN17AnimationPlayable23RequestAllocateBindingsEv
gvg:_DecoderReplacementFallbackBuffer_Fallback_m1261056214
iLe:_Binder_get_DefaultBinder_m950908649
EVg:_StreamReader__ctor_m1616861391
N4c:_tt_cmap6_char_index
Lld:__ZN18UnityConnectClient33OnPlayerSessionStateChangedStaticEPS_jyy
Wkg:_RSA_ToXmlString_m2922661427
i_:__ZNK11UnityEngine15CloudWebService23WebRequestUploadHandler11GetProgressEv
IOb:__ZN7ApiGLES4LoadE16GfxDeviceLevelGL
XRa:__ZN4crnd12crn_unpacker22decode_color_endpointsEv
u3j:__ZN15dense_hashtableI10KeyWrapperIP18Il2CppGenericClassES3_N6il2cpp8metadata22Il2CppGenericClassHashEN14dense_hash_setIS3_S6_NS3_14EqualsComparerINS5_25Il2CppGenericClassCompareEEENSt3__29allocatorIS3_EEE8IdentityESA_SD_E15insert_noresizeERKS3_
Nwc:__ZZL31RegisterOtherRendererPropertiesR22GenericPropertyBindingEN30Wrapper_RendererReceiveShadows13GetFloatValueEPv
kch:_Array_InternalArray__ICollection_Contains_TisSlot_t384495010_m688761886_gshared
ARa:__ZN17SharedTextureDataC2E10MemLabelIdii13TextureFormatjiibb
Kvi:__Z114RuntimeInvoker_RuntimeObject_RuntimeObject_Int32_t2950945753_Int32_t2950945753_Int32_t2950945753_Int32_t2950945753PFvvEPK10MethodInfoPvPS4_
THb:__ZN8Material11SetPassFastEPN9ShaderLab4PassER17ShaderPassContextP6Shaderib
uld:__ZN11UnityEngine7Connect20BasePersistentValues10SaveValuesER9JSONWrite
e2i:_Collection_1_IsFixedSize_m3748602684_gshared
b5g:_DateTime_System_IConvertible_ToDouble_m2116720007
fbg:_BitConverterLE_GetUIntBytes_m795219058
iwf:_Display_GetSystemExtImpl_m2808197389
bNh:_WaitHandle_WaitOne_m2577152516
pof:_SByte_Parse_m2899090751
uoa:__ZN9Scripting11UnityEngine20ManagedStreamHelpers12CleanupProxyEv
sWe:_ArrayReadOnlyList_1_GetEnumerator_m1835926958_gshared
wBc:__Z14ScaleCurveTimeR17AnimationCurveTplIfEf
Vba:__ZN20GlobalCachingManager7DisposeEv
xZb:__Z12SetupLODFadeR9GfxDeviceR17ShaderPassContextf
ZNa:__ZNK14PlayableOutput7GetTypeEv
WOc:__ZN9JSONWrite8TransferI13dynamic_arrayI4AABBLj0EEEEvRT_PKc17TransferMetaFlags
B3b:__ZL24CollectForwardObjectsJobP27CollectForwardObjectsHeader
WQc:__ZN8JSONRead21TransferSTLStyleArrayI13dynamic_arrayIdLj0EEEEvRT_17TransferMetaFlags
X5b:__Z13IsNodeVisibleRK9SceneNodeRK4AABBRK22SceneCullingParameters
whh:_Array_InternalArray__IndexOf_TisLabelFixup_t858502054_m1491765395_gshared
hmh:_SortKeyBuffer_AppendCJKExtension_m2591091991
Qed:__Z57RectTransformUtility_CUSTOM_INTERNAL_CALL_PixelAdjustRectP12Il2CppObjectS0_R5RectTIfE
sKh:_UTF8Encoding_GetByteCount_m4153686982
iAk:_emscripten_glStencilMask__wrapper
Fei:__Z49RuntimeInvoker_Void_t1185182177_Double_t594665363PFvvEPK10MethodInfoPvPS4_
PDj:__ZN15dense_hashtableI10KeyWrapperIPK19Il2CppGenericMethodES4_N6il2cpp8metadata23Il2CppGenericMethodHashEN14dense_hash_setIS4_S7_NS4_14EqualsComparerINS6_26Il2CppGenericMethodCompareEEENSt3__29allocatorIS4_EEE8IdentityESB_SE_EC2ERKSH_j
$za:__ZN15RenderNodeQueue7CleanupEv
nhe:__ZL66RuntimePlatform_t4159857903_CustomAttributesCacheGenerator_XBOX360P21CustomAttributesCache
RUc:__ZN16NovodexAllocator8allocateEjPKcS1_i
X2b:__Z17PrepareShadowMapsRK11CullResultsRK11ActiveLightRK10MinMaxAABB
B6i:_DeriveBytes_DeriveIV_m973925711
PRg:_Int32_System_IConvertible_ToSByte_m3133688512
rrd:__ZN9Scripting11UnityEngine12Experimental23SubsystemDescriptorBase9InitProxyEv
x3b:__ZN9ShaderLab10GrabPassesD2Ev
APa:__ZN14Texture2DArray13UploadTextureEv
XSf:_MaskableGraphic_UpdateCull_m2805101913
d4c:_tt_cmap14_done
B6a:__ZN18AwakeFromLoadQueue25RegisterObjectInstanceIDsEv
ZMf:_InputField_UpdateLabel_m1837760870
aEa:__ZN14VertexDataInfo12UpdateFormatEj17ShaderChannelMaskS0_RK19VertexStreamsLayoutRK20VertexChannelsLayout
iz:__ZNK27AnimationLayerMixerPlayable11DerivesFromE17ScriptingClassPtr
aYc:__ZN20TextRenderingPrivate19NativeTextGenerator15InsertCharacterEiPj
cLe:_MonoType_get_attributes_m1332507727
Ogj:_GUIContent_ClearStaticCache_m1205116045
Ipg:_WindowsIdentity_Dispose_m3466258450
Vkf:_BinaryCommon__cctor_m2978407547
k0:__GLOBAL__sub_I_Runtime_Burst_0_cpp
A1b:__Z19GetReflectionSampleRK23ReflectionProbesContextRK22ActiveReflectionProbesRK27PerObjectLightCullingOutputRK10RenderNodejP16ReflectionSample
ywc:__ZN28ReflectionProbeAnchorManager23HandleAnchorDestructionEPK15TransformAccessj
rod:__ZL65__ManagedRegistrationHelperFunction_UnityWebRequestAsyncOperationPv
Iai:_IndexedSet_1__ctor_m2250384602_gshared
JQh:_UInt16_TryParse_m4139137016
hEc:__Z41MonoBehaviour_Set_Custom_PropUseGUILayoutP12Il2CppObjecth
kna:__ZN9Scripting11UnityEngine15ResourceRequest12CleanupProxyEv
d7j:__ZN6il2cpp2gc16GarbageCollector9FreeFixedEPv
Mvg:_Encoding__ctor_m2997749867
Szf:_ManagedStreamHelpers_ManagedStreamSeek_m3158782053
wdj:_ExpressionAssertion_Compile_m2166597834
ynb:__ZN16ScriptingManagerD0Ev
Wqg:_Single_System_IConvertible_ToSByte_m1208276900_AdjustorThunk
ubk:__ZN6il2cpp6icalls8mscorlib6System7Convert24InternalFromBase64StringEP12Il2CppStringb
I1j:__ZN30dense_hashtable_const_iteratorINSt3__24pairIK10KeyWrapperINS1_IPKcS4_EEEiEES6_24NamespaceAndNamePairHashN14dense_hash_mapIS6_iS9_NS6_14EqualsComparerI26NamespaceAndNamePairEqualsEENS0_9allocatorIS8_EEE9SelectKeyESD_SF_EppEv
JGc:__Z44Register_UnityEngine_Component_get_transformv
PE:__ZN12_GLOBAL__N_120ProcessPlayableGraphERN8Animator11AnimatorJobER35AnimationPlayableEvaluationConstantR32AnimationPlayableEvaluationInputR33AnimationPlayableEvaluationOutputPFvS4_R17AnimationPlayableEPFvS4_S6_S8_EPFvS8_S4_S6_S8_fESE_MS9_FvPS3_PS5_PS7_E
Hvj:_CanvasRenderer_get_absoluteDepth_m2703237819
rPg:_TextInfo_ToLower_m2744057472
MUb:__ZN17ArchiveFileSystem12MountArchiveEPKcS1_
wCj:__ZN14dense_hash_mapI10KeyWrapperIP9FieldInfoEiN6il2cpp5utils11PointerHashIS1_EENS3_14EqualsComparerINSt3__28equal_toIS2_EEEENS9_9allocatorINS9_4pairIKS3_iEEEEE15set_deleted_keyERSF_
Gzh:_EqualityComparer_1_System_Collections_IEqualityComparer_Equals_m3977314386_gshared
iNc:__Z18Transfer_BlittableI9JSONWriteLb1E8Vector4fEvRK29SerializationCommandArgumentsR31RuntimeSerializationCommandInfo
M5:__Z11RequireTypePKcS0_S0_
xLg:_CCGregorianCalendar_year_from_fixed_m463929682
Nad:__ZN2UI13CanvasManagerD0Ev
Aig:_TlsServerHello_Update_m3935081401
fsf:_Debug_get_unityLogger_m2239795986
UWh:_ReadOnlyCollection_1_System_Collections_IEnumerable_GetEnumerator_m2123446296_gshared
Qbg:_MD2Managed_Initialize_m2341076836
q1h:_ReadOnlyCollection_1_System_Collections_IList_Add_m4240023232_gshared
Xib:__ZN9GfxDevice15ImmediateVertexEfff
CVa:__ZNK16LightmapSettings22GetTypeVirtualInternalEv
cLb:__ZN13GfxDeviceGLES15SetStencilStateEPK18DeviceStencilStatei
PDg:_Buffer_BlockCopyInternal_m418318694
zmk:_cycle
kbk:__ZN6il2cpp2vm8Profiler7GCEventE13Il2CppGCEvent
qgi:__Z76RuntimeInvoker_Void_t1185182177_RuntimeObject_RuntimeFieldHandle_t1871169219PFvvEPK10MethodInfoPvPS4_
Cd:_emscripten_glUniform1iv
Ilb:__ZN13ComputeShader14SetBufferParamEjRKN9ShaderLab16FastPropertyNameE15ComputeBufferIDb
kMh:_Thread_get_ManagedThreadId_m1068113671
Pfb:__ZN16MemoryFileSystemD2Ev
Hgi:__Z150RuntimeInvoker_Int32_t2950945753_RuntimeObject_Int32_t2950945753_Int32_t2950945753_RuntimeObject_Int32_t2950945753_Int32_t2950945753_Int32_t2950945753PFvvEPK10MethodInfoPvPS4_
QCg:_BitConverter_DoubleToInt64Bits_m3574395137
_$g:_DateTime_Parse_m3729096069
SOi:_List_1_System_Collections_IList_Add_m1540114404_gshared
hFa:__ZN16GraphicsSettings27SetLightsUseLinearIntensityEb
eFc:__Z37Register_UnityEngine_Camera_get_depthv
eJf:_StackTraceUtility_ExtractStringFromExceptionInternal_m2686726792
Iwc:__ZZN8Renderer15InitializeClassEvEN32FunctorImpl_146kCullSceneChanged4CallEPviR11MessageData
XHe:_StringReader_Read_m3322058819
DQd:_CrossAppDomainChannel_get_ChannelPriority_m3418073750
TPf:_Selectable_StartColorTween_m3618813981
vsd:_BaseInputModule_HandlePointerExitAndEnter_m1705532066
scc:__Z23ConvertIntegerToTypePtrItEbPvR14SafeBinaryRead
$8g:_Delegate_CombineImpl_m3572135514
Lxc:__Z13RegisterClassI15EditorExtensionEvPKc
oNe:_NumberFormatter_IntegerToString_m1679294587
z_h:_ReadOnlyCollection_1_System_Collections_IList_RemoveAt_m422909114_gshared
BF:__ZN7mecanim5human29HumanGetGoalOrientationOffsetENS0_4GoalE
Td:_emscripten_glStencilFunc
jjc:__ZN9ShaderLab20SerializedSubProgram14AddMatrixParamEPKcii15ShaderParamTypei
_d:_glGetActiveUniformBlockName
Rdj:_Parser_IsIgnoreCase_m2210120858
ZGj:__ZN6il2cpp2vm13MetadataCache28GetGenericContainerFromIndexEi
p8a:__ZN27UnloadUnusedAssetsOperationD0Ev
jN:__ZN4FMOD7Channel20set3DConeOrientationEP11FMOD_VECTOR
mn:FUNCTION_TABLE_iiifii
UQe:_AssemblyBuilder_not_supported_m1735277432
k5j:__ZN6il2cpp2vm12GenericClass11SetupEventsEP11Il2CppClass
VYc:_ft_open_face_internal
B4c:_tt_cmap12_get_info
S0j:__ZN6il2cpp2vm15ReboxIReferenceEP14Il2CppIUnknownP11Il2CppClass
gxj:__ZN6il2cpp6icalls8mscorlib6System7Decimal14decimalCompareEP19il2cpp_decimal_reprS5_
Ihf:_Dictionary_2_OnDeserialization_m4209543208_gshared
Ubk:__ZThn4_N6il2cpp2vm13CachedCCWBaseINS0_13ManagedObjectEE7ReleaseEv
Pkg:_RNGCryptoServiceProvider_GetNonZeroBytes_m1918423726
Xpi:__Z100RuntimeInvoker_Void_t1185182177_RuntimeObject_Int32_t2950945753_Int32_t2950945753_UInt16_t2177724958PFvvEPK10MethodInfoPvPS4_
nxk:_glCopyTexImage2D__wrapper
cIb:__Z18ClearByDrawingQuad13GfxClearFlagsRK10ColorRGBAffjR17ShaderPassContext
Jha:__ZN6prcoreL17RemapGenericFloatI14TexFormatRHalf15TexFormatRFloatEEvPKNS_9InnerInfoE
o0c:_cf2_getBlueValues
_ji:__Z155RuntimeInvoker_Void_t1185182177_RuntimeObject_SByte_t1669577662_SByte_t1669577662_Int64U26_t200113976_ObjectU26_t2146539884_SerializationInfoU26_t419328957PFvvEPK10MethodInfoPvPS4_
pea:__ZN15DirectorManager21RebuildStageCallbacksEv
uIb:__ZN19RuntimeSceneManager9LoadSceneERKN4core12basic_stringIcNS0_20StringStorageDefaultIcEEEES6_S6_RK9UnityGUIDiNS_11LoadingModeE
hsf:_Application_Internal_ApplicationQuit_m2936209313
MNb:__ZN7ApiGLES10DrawArraysE16GfxPrimitiveTypejjj
dR:__ZN10SampleClip13LoadBaseSoundEv
zyg:_SmallXmlParser_SkipWhitespaces_m4243606597
rMg:_CompareInfo_IndexOf_m2631915198
irb:__ZN14SafeBinaryRead21TransferSTLStyleArrayI13dynamic_arrayI10Matrix4x4fLj0EEEEvRT_17TransferMetaFlags
rEg:_Byte_CompareTo_m4285128861
Otd:_TriggerEvent__ctor_m87299207
wrd:__ZN9Scripting11UnityEngine12Experimental27Internal_SubsystemInstances12CleanupProxyEv
zU:__Z57AudioSource_CUSTOM_INTERNAL_CALL_ClearExtensionPropertiesP12Il2CppObjectRK12PropertyName
d5j:__ZN15dense_hashtableINSt3__24pairIK10KeyWrapperIP12Il2CppObjectEN6il2cpp2gc9CachedCCWEEES5_NS7_5utils11PointerHashIS3_EEN14dense_hash_mapIS5_S9_SD_NS5_14EqualsComparerINS0_8equal_toIS4_EEEENS0_9allocatorISA_EEE9SelectKeyESI_SK_E15insert_noresizeERKSA_
Vwh:_EqualityComparer_1__cctor_m3962593840_gshared
VNa:__ZN22DeviceMVPMatricesStateC2ER9GfxDevice
vkg:_SslClientStream_Finalize_m1251363641
fZb:__ZNK6Camera32ResolveLastTargetToCurrentTargetEv
LIg:_Comparer_Compare_m3984347512
TSj:__ZN6il2cpp2vm10Reflection12HasAttributeEP9FieldInfoP11Il2CppClass
lpa:__ZN9Scripting11UnityEngine12Experimental9Rendering11CullResults9InitProxyEv
ec:invoke_viiifi
$rc:__Z13RegisterClassI6SpriteEvPKc
bMd:_MonoProperty_GetCustomAttributes_m3619796755
RUd:_MethodDictionary_System_Collections_IEnumerable_GetEnumerator_m4169036899
_Nh:_TimeSpan_Subtract_m1264203589
$uh:_DefaultComparer_Equals_m3257444875_gshared
hf:_JS_Sound_SetPosition
NIa:__ZN19RenderBufferManager13GetTempBufferEii17DepthBufferFormat19RenderTextureFormatj22RenderTextureReadWrite14VRTextureUsagei23RenderTextureMemoryless
KGj:__ZL13GetSharedInstPK17Il2CppGenericInst
VDa:__Z27ConvertSubMeshesToTrianglesIjEvR13dynamic_arrayI7SubMeshLj0EERS0_IhLj0EE
pjd:__ZN22BaseUnityConnectClient17SaveSessionValuesEv
GYe:_InternalEnumerator_1_get_Current_m476140818_gshared
E3b:__Z24SetupActiveLightsContextR21ActiveLightingContextRK12ActiveLightsRK11CullResultsP14ShadowMapCacheRK10MinMaxAABB
mlc:__Z38Sprite_CUSTOM_INTERNAL_get_textureRectP12Il2CppObjectP5RectTIfE
FRj:__ZNK15dense_hashtableINSt3__24pairIK10KeyWrapperIPK22Il2CppGenericParameterEPK24MonoGenericParameterInfoEES6_N6il2cpp5utils11PointerHashIS4_EEN14dense_hash_mapIS6_SA_SF_NS6_14EqualsComparerINS0_8equal_toIS5_EEEENS0_9allocatorISB_EEE9SelectKeyESK_SM_E3endEv
xnc:__ZN9TextAsset7SetTextERKN4core12basic_stringIcNS0_20StringStorageDefaultIcEEEE
Nya:__ZN6Camera8TransferI24GenerateTypeTreeTransferEEvRT_
Ga:invoke_iiiiiiif
Ea:invoke_iiiiiiii
uFi:_Array_InternalArray__set_Item_TisByte_t1134296376_m3104140039_gshared
CEc:__Z56Register_UnityEngine_MonoBehaviour_IsObjectMonoBehaviourv
AGf:_Rect_ToString_m447614148
d7i:_PKCS12_GetBytes_m415958948
sXb:__ZN8Renderer17PendingAddToSceneEv
jBk:b122
uBk:b125
qBk:b124
vBk:b126
Ylc:__Z52Register_UnityEngine_RectTransform_INTERNAL_get_rectv
bBf:_Mesh_SetSizedArrayForChannel_m2565120436
w5:__Z21PostprocessStacktracePKcRN4core12basic_stringIcNS1_20StringStorageDefaultIcEEEE
Tzf:_ManagedStreamHelpers_ManagedStreamLength_m2930872960
Ilc:__Z43RectTransform_CUSTOM_INTERNAL_get_anchorMinP12Il2CppObjectP13Vector2fIcall
P5i:_BasicConstraintsExtension_Encode_m2009213240
Goc:__Z47Register_UnityEngine_Camera_get_allCamerasCountv
fzd:___clang_call_terminate
tjd:__ZN22BaseUnityConnectClient20StartEventDispatcherEv
OAc:__ZNSt3__26vectorIj13stl_allocatorIjL18MemLabelIdentifier1ELi16EEE6assignIPKtEENS_9enable_ifIXaasr21__is_forward_iteratorIT_EE5valuesr16is_constructibleIjNS_15iterator_traitsIS9_E9referenceEEE5valueEvE4typeES9_S9_
eE:__ZN7mecanim9animation16EvaluateAvatarIKEPKNS0_14AvatarConstantEPKNS0_11AvatarInputEPNS0_12AvatarOutputEPNS0_12AvatarMemoryEPNS0_15AvatarWorkspaceEb
uA:__ZN26AnimatorControllerPlayable10GetIntegerEiRi
jCc:__Z12Base64EncodePKhjRN4core12basic_stringIcNS1_20StringStorageDefaultIcEEEEiRKS5_
EWb:__ZN12InputManager13InputEndFrameEv
qBf:_Object_get_name_m4211327027
AWj:__ZN6il2cpp2vm6Thread5SetupEP12Il2CppThread
Z9e:_Enumerator_System_Collections_IDictionaryEnumerator_get_Key_m2500634048_gshared
ePg:_SortKey_Compare_m1705990888
uyj:_NativeNameAttribute__ctor_m3296876808
Enk:___munmap
$f:_localtime_r
TXb:__ZN22RenderingCommandBuffer13GetAndCheckRTE24BuiltinRenderTextureTypeRKN9ShaderLab16FastPropertyNameEPKcPP13RenderTexture
a1:__Z19free_alloc_internalPv10MemLabelId
ot:__ZN9Scripting11UnityEngine10Animations18PositionConstraint9InitProxyEv
cg:_strftime
cJa:__ZN7Texture33SetStoredColorSpaceNoDirtyNoApplyE17TextureColorSpace
gOd:_ResourceSet__ctor_m3618395942
K7g:_Decimal_System_IConvertible_ToDouble_m3125524987_AdjustorThunk
jaa:__ZN12FileAccessorD2Ev
iEa:__ZN14VertexDataInfoC2Ev
P6j:__ZN6il2cpp2gc16GarbageCollector14CollectALittleEv
ozc:__ZNK9HPlayable15GetPlayableTypeEv
szb:__ZL17Transfer_GUIStyleI18StreamedBinaryReadILb1EELb1EEvRK29SerializationCommandArgumentsR31RuntimeSerializationCommandInfo
hUf:_RectMask2D_IsRaycastLocationValid_m1652308696
z3:__ZNSt3__26__treeINS_12__value_typeIPKciEENS_19__map_value_compareIS3_S4_15compare_tstringIS3_ELb1EEENS_9allocatorIS4_EEE21__emplace_unique_implIJNS_4pairIPciEEEEENSD_INS_15__tree_iteratorIS4_PNS_11__tree_nodeIS4_PvEEiEEbEEDpOT_
CKj:__ZN6il2cpp6icalls8mscorlib6SystemL9IsPrivateEPK12PropertyInfo
m7i:_X501_ToString_m1148552872
pHf:_RectTransform_add_reapplyDrivenProperties_m1374850920
K4:__ZN9shadertag10InitializeEv
GVc:__GLOBAL__sub_I_Modules_Terrain_Public_1_cpp
ITa:__ZN15QualitySettings14QualitySetting8TransferI24GenerateTypeTreeTransferEEvRT_
wGc:__Z44Register_UnityEngine_Object_DestroyImmediatev
p3g:_Convert_ToSingle_m835189399
Gkc:__ZN22BlockMemoryCacheWriter14LockCacheBlockEjPPhS1_
DSh:_UInt64_ToString_m2177233542
Ks:__ZN9Scripting11UnityEngine21StateMachineBehaviour9InitProxyEv
VQc:__Z22TransferField_NonArrayI8JSONRead27Converter_SimpleNativeClassI8GUIStyleEEvRK23StaticTransferFieldInfoR31RuntimeSerializationCommandInfoRT0_
Vpa:__ZN9Scripting11UnityEngine26ExcludeFromPresetAttribute9InitProxyEv
Jg:_llvm_eh_typeid_for
Vjf:_RemotingServices_FindInterfaceMethod_m2125212568
GB:__ZNK23AnimationPlayableOutput7GetTypeEv
ZYg:_StreamWriter__cctor_m1229272693
Oah:_Enum_System_IConvertible_ToSByte_m779472798
FOh:_Type_get_IsInterface_m3284996719
JBb:__Z18Transfer_BlittableI18StreamedBinaryReadILb0EELb1E8Vector4fEvRK29SerializationCommandArgumentsR31RuntimeSerializationCommandInfo
ZWc:__ZN14SafeBinaryRead21TransferSTLStyleArrayI13dynamic_arrayIN4core17string_with_labelILi35EEELj0EEEEvRT_17TransferMetaFlags
brj:__ZL25UnresolvedVirtualCall_142P12Il2CppObject17Color_t2555686324faaaPK10MethodInfo
Muh:_Dictionary_2_U3CCopyToU3Em__0_m2023886030_gshared
Kzk:_glBindVertexArray__wrapper
Qlf:_SerializationInfo__ctor_m2923079689
lMa:__ZN8Material8TransferI14SafeBinaryReadEEvRT_
CQa:__ZN12CubemapArray17UploadToGfxDeviceEv
hRg:_Int32_JumpOverWhite_m208298144
Gzi:__Z53RuntimeInvoker_Int32_t2950945753_UIVertex_t4057497605PFvvEPK10MethodInfoPvPS4_
Lyk:_emscripten_glGetUniformiv__wrapper
Nbk:__ZN6il2cpp2vm13ManagedObject14QueryInterfaceERK10Il2CppGuidPPv
SN:__ZN11AudioSource4StopEb
gmk:_frexp
jnk:_fscanf
_mb:__ZN18GlslGpuProgramGLESD2Ev
U9b:__ZN13RenderTexture14SetVolumeDepthEi
FY:__ZN11UnityEngine15CloudWebService14DataErrorEvent12ToJsonStringERN4core12basic_stringIcNS2_20StringStorageDefaultIcEEEEjPKc
npi:__Z86RuntimeInvoker_Void_t1185182177_UInt16_t2177724958_SByte_t1669577662_SByte_t1669577662PFvvEPK10MethodInfoPvPS4_
Yic:__Z22LoadGpuProgramFromDataPKhS0_Rj
zRc:__ZN10Matrix4x4f8TransferI8JSONReadEEvRT_
TTf:_PositionAsUV1_ModifyMesh_m4231919476
NJg:_Hashtable__ctor_m1941859523
Y0b:__Z26FindForwardLightsForObjectR13dynamic_arrayIhLj0EEPK11CulledLightjRK12ActiveLightsRK10RenderNodePK19ShaderPropertySheetbRK23FindForwardLightsParamsf
Xla:__ZL44__ManagedRegistrationHelperFunction_GPUFencePv
NWf:_ScrollRect_set_horizontalScrollbarSpacing_m2209919081
PRb:__ZN25TransformFeedbackSkinning31CleanupTransformFeedbackShadersEv
bPh:_Type_GetTypeCodeInternal_m1968182887
uza:__Z22scripting_object_unbox18ScriptingObjectPtr
cYc:__ZNK20TextRenderingPrivate8FontImpl19GetCharacterAdvanceEjijfPj
bjh:_Array_InternalArray__ICollection_Add_TisUriScheme_t722425697_m3142345403_gshared
amk:_fmt_u
KXa:__ZN10VertexData8TransferI18StreamedBinaryReadILb0EEEEvRT_
dkk:__ZN6il2cpp8metadata25Il2CppGenericClassCompare7CompareEPK18Il2CppGenericClassS4_
KLe:_MonoType_get_Assembly_m4290914179
Hjc:__ZN9ShaderLab7ProgramC2E10MemLabelIdi10ShaderType
Bra:__ZN9Scripting5Unity11Collections8LowLevel6Unsafe29NativeSetThreadIndexAttribute9InitProxyEv
wxa:__ZN12BaseRendererD2Ev
wnc:__ZNSt3__26vectorI4PPtrI10MonoScriptE13stl_allocatorIS3_L18MemLabelIdentifier79ELi16EEE6insertENS_11__wrap_iterIPKS3_EERS9_
Xsg:_String_LastIndexOf_m95398196
qGi:_Array_InternalArray__set_Item_TisUILineInfo_t4195266810_m2313892078_gshared
pdc:__ZNK21UnityDefaultAllocatorI17LowLevelAllocatorE8ContainsEPKv
Cnf:_RuntimeTypeHandle_Equals_m2857439487
Th:_emscripten_get_main_loop_timing
DPd:_SafeHandle_Finalize_m3866180675
HTa:__ZN24GenerateTypeTreeTransfer21TransferSTLStyleArrayINSt3__26vectorIN15QualitySettings14QualitySettingENS1_9allocatorIS4_EEEEEEvRT_17TransferMetaFlags
GXg:_MemoryStream_ToArray_m3911744835
y9e:_Enumerator_System_Collections_IDictionaryEnumerator_get_Entry_m859540448_AdjustorThunk
g9b:__ZN23ManagedAttributeManager52CallManagedGetParentTypeDisallowingMultipleInclusionE17ScriptingClassPtr
I1a:__Z10AddGUIAxesR13dynamic_arrayI9InputAxisLj0EE
iPh:_Type_GetHashCode_m1947148725
wki:__Z91RuntimeInvoker_Void_t1185182177_RuntimeObject_RuntimeObject_RuntimeObject_SByte_t1669577662PFvvEPK10MethodInfoPvPS4_
L9a:__ZNK2UI13RectTransform22GetTypeVirtualInternalEv
cp:getTempRet0
Psd:_BaseRaycaster_OnEnable_m2678466030
txf:_UnityEventBase__ctor_m1851535676
vIi:_Array_Sort_TisVector4_t3319028937_m2797285308_gshared
Ohg:_HandshakeMessage_Update_m2417837686
wZj:__ZN6il2cpp6icalls8mscorlib6System9ThreadingL21lookup_cached_cultureEP12Il2CppThreadi
Qwf:_NetFxCoreExtensions_CreateDelegate_m751211712
B4b:__ZN18DeferredRenderLoopD2Ev
jwj:_AnimationLayerMixerPlayable__cctor_m4086299972
usa:__ZNK16TypeTreeIterator4NameEv
J9:__ZN15FileSystemEntry3SetEPKc
pRe:_ConstructorBuilder_Invoke_m3010446651
Apc:__Z52Register_UnityEngine_Application_set_targetFrameRatev
v1f:_IPv6Address_set_ScopeId_m3907190992
pXh:_ReadOnlyCollection_1_System_Collections_Generic_IListU3CTU3E_Insert_m568455025_gshared
SM:__ZN20SoundChannelInstance15ParameterBuffer5ApplyEPN4FMOD7ChannelE
j1f:_IPv6Address__ctor_m4117281080
L2g:_Convert_ToInt64_m2075293963
$Xc:__ZN20TextRenderingPrivate19NativeTextGenerator9InsertTabEv
tqk:_sbrk
VK:__ZL49__ManagedRegistrationHelperFunction_AudioSettingsPv
Pkd:__ZN11UnityEngine15PlatformWrapper24GetRuntimePlatformStringEv
Di:_glIsEnabled
ZQe:_DerivedType__ctor_m1853298054
Wpb:__Z25scripting_class_get_image17ScriptingClassPtr
Xpg:_SecurityException__ctor_m836898292
THh:_List_1_RemoveAt_m2730968292_gshared
q4a:__ZNSt3__26vectorIN4core12basic_stringIcNS1_20StringStorageDefaultIcEEEE13stl_allocatorIS5_L18MemLabelIdentifier13ELi16EEEC2INS_11__wrap_iterIPS5_EEEET_SE_RKS8_PNS_9enable_ifIXaasr21__is_forward_iteratorISE_EE5valuesr16is_constructibleIS5_NS_15iterator_traitsISE_E9referenceEEE5valueEvE4typeE
Hi:_emscripten_glDrawElementsInstanced
qA:__ZN26AnimatorControllerPlayable27SetupStateMachineBehavioursEv
Dhe:__ZL79Camera_t4157153871_CustomAttributesCacheGenerator_Camera_RaycastTry_m3913529496P21CustomAttributesCache
fRf:_LayoutGroup_get_preferredWidth_m3816902260
UHa:__ZN18JobBatchDispatcherD2Ev
G9a:__ZN9Transform17MainThreadCleanupEv
Bek:_GC_clear_hdr_marks
FAk:_emscripten_glCreateShader__wrapper
G_c:_cff_fd_select_get
VZf:_Text_set_resizeTextForBestFit_m4095249125
s3f:_OidEnumerator_MoveNext_m3138911739
pyi:__Z53RuntimeInvoker_Boolean_t97287965_Keyframe_t4206410242PFvvEPK10MethodInfoPvPS4_
Si:_emscripten_glGetShaderiv
jO:__ZN4FMOD6System10getVersionEPj
Gbd:__ZN2UI6Canvas23VirtualRedirectTransferER24GenerateTypeTreeTransfer
cYf:_Selectable_set_animationTriggers_m2970345687
bPc:__ZN9JSONWrite8TransferIN4math12int2_storageEEEvRT_PKc17TransferMetaFlags
LWc:__ZN13TextRendering4Font13AwakeFromLoadE17AwakeFromLoadMode
xMg:_CompareInfo_LastIndexOf_m2688553706
Uhb:__ZN9GfxDevice21ReleaseSharedMeshDataEP14SharedMeshData
Fvd:_MouseState__ctor_m1467839005
Hej:_Uri_IsDomainAddress_m2867513594
r3a:__ZNSt3__27__sort5IRNS_6__lessINS_4pairIPKN5Unity4TypeE7Hash128EES8_EEPS8_EEjT0_SC_SC_SC_SC_T_
FCd:_Dropdown_CreateItem_m2954407740
Ghh:_Array_InternalArray__IndexOf_TisSingle_t1397266774_m2563096608_gshared
Idk:_GC_unreachable_finalize_mark_proc
vEf:_PlayerConnectionInternal_PollInternal_m3759016321
P4f:_X509Chain_ProcessCrlExtensions_m236234529
efk:_maybe_finalize
mBj:__ZN6il2cpp2vm5Class40GetInterfaceInvokeDataFromVTableSlowPathEPK12Il2CppObjectPK11Il2CppClassj
Llc:__Z43RectTransform_CUSTOM_INTERNAL_get_anchorMaxP12Il2CppObjectP13Vector2fIcall
ouj:_TextGenerator_INTERNAL_CALL_Populate_Internal_cpp_m4171649399
Cjf:_RemotingConfiguration_RegisterChannelTemplate_m3105688054
c1g:_Decimal_Parse_m942471224
TBa:__ZN8Material28UpdateHashesOnPropertyChangeEN9ShaderLab16FastPropertyNameE
voc:__Z53Register_UnityEngine_SortingLayer_GetLayerValueFromIDv
$ag:_ASN1_GetBytes_m1968380955
Pob:__Z18Transfer_BlittableI14SafeBinaryReadLb1E8Vector4fEvRK29SerializationCommandArgumentsR31RuntimeSerializationCommandInfo
xqd:__ZN13RuntimeStaticINSt3__26vectorI23UnityVRDeviceDefinition13stl_allocatorIS2_L18MemLabelIdentifier90ELi16EEEELb0EE13StaticDestroyEPv
rQ:__ZN11AudioSource12AddToManagerEv
Xu:__ZN8Animator23VirtualRedirectTransferER19StreamedBinaryWriteILb0EE
aC:__ZN11UnityEngine9Animation32CreateAnimatorGenericBindingsOptERKNS0_20AnimationSetBindingsER9TransformPKN7mecanim9animation14AvatarConstantEPKNS0_21AvatarBindingConstantEbRNS6_6memory9AllocatorER8Animator
N1j:__ZN6il2cpp2vm5Image13ClassFromNameEPK11Il2CppImagePKcS6_
Yqk:dynCall_vdddddd
ehc:__ZN24GenerateTypeTreeTransfer21TransferSTLStyleArrayINSt3__26vectorIN9ShaderLab14SerializedPassENS1_9allocatorIS4_EEEEEEvRT_17TransferMetaFlags
k5:__ZL32MarkLevelGameManagerDependenciesR27GarbageCollectorThreadState
UMb:__ZNK13GfxDeviceGLES26HasActiveRandomWriteTargetEv
NZd:__ZL54_MemberInfo_t3922476713_CustomAttributesCacheGeneratorP21CustomAttributesCache
Avk:_glGetActiveUniformsiv__wrapper
zMa:__ZN14SafeBinaryRead8TransferINSt3__24pairIN9ShaderLab16FastPropertyNameE10ColorRGBAfEEEEvRT_PKc17TransferMetaFlags
vBf:_Mesh_GetIndices_m2873123901
F7:__ZN13MonoBehaviour19SetupScriptingCacheE17ScriptingClassPtrP10MonoScript
jF:__Z20AnimationEventToMonoRK14AnimationEventR18MonoAnimationEvent
Hwc:__ZZN8Renderer15InitializeClassEvEN28FunctorImpl_145kLayerChanged4CallEPviR11MessageData
tvd:_PointerEventData_get_dragging_m746831934
p1h:_ReadOnlyCollection_1_System_Collections_IEnumerable_GetEnumerator_m2781605075_gshared
epa:__ZN9Scripting11UnityEngine12Experimental9Rendering15ShadowSplitData12CleanupProxyEv
$da:__ZZN15DirectorManager15InitializeClassEvEN52PreLateUpdateDirectorUpdateAnimationBeginRegistrator7ForwardEv
Nbh:_Array_get_swapper_TisCustomAttributeNamedArgument_t287865710_m4254011335_gshared
JEd:_Graphic_RegisterDirtyMaterialCallback_m106898453
Tgj:_GUILayoutEntry_get_margin_m3174861737
p1j:__ZNK15dense_hashtableINSt3__24pairIK10KeyWrapperINS1_IPKcS4_EEEiEES6_24NamespaceAndNamePairHashN14dense_hash_mapIS6_iS9_NS6_14EqualsComparerI26NamespaceAndNamePairEqualsEENS0_9allocatorIS8_EEE9SelectKeyESD_SF_E13find_positionERS7_
vgc:__ZNSt3__26vectorIN9ShaderLab14SerializedPassENS_9allocatorIS2_EEE8__appendEj
Kfc:__ZNSt3__26vectorIN9ShaderLab20SerializedSubProgram13BufferBindingENS_9allocatorIS3_EEEC2INS_11__wrap_iterIPS3_EEEET_SB_RKS5_PNS_9enable_ifIXaasr21__is_forward_iteratorISB_EE5valuesr16is_constructibleIS3_NS_15iterator_traitsISB_E9referenceEEE5valueEvE4typeE
Qtg:_Encoding_get_ISOLatin1_m2107621369
oag:_BigInteger_op_Inequality_m2697143438
Rie:__ZL89Mathf_t3464937446_CustomAttributesCacheGenerator_Mathf_SmoothDamp_m394423605____maxSpeed4P21CustomAttributesCache
hGb:__ZNK25PathNamePersistentManager30PathIDToFileIdentifierInternalEi
NSa:__ZN9Texture2D23VirtualRedirectTransferER18StreamedBinaryReadILb0EE
c5g:_DateTime_System_IConvertible_ToDouble_m2116720007_AdjustorThunk
AIg:_BitArrayEnumerator__ctor_m2359341397
xDh:_Enumerator_MoveNext_m1177880931_gshared
rse:__ZL73g_UnityEngine_TextRenderingModule_Assembly_CustomAttributesCacheGeneratorP21CustomAttributesCache
k8:__ZN16ScriptingManager27NativeTypeForScriptingClassE17ScriptingClassPtr
TRh:_UInt64_System_IConvertible_ToDateTime_m3434604642
POh:_Type_get_IsSerializable_m1040556850
n3c:_get_sfnt_table
hbj:_Parser_ResolveReferences_m1518052352
xUa:__ZN8Renderer20RendererAddedToSceneEv
d6b:__ZL22ScheduleSceneNodesJobsP25ScheduleSceneNodesJobDataj
Kk:_emscripten_set_canvas_size
fNa:__ZN18StreamedBinaryReadILb0EE19TransferSTLStyleMapINSt3__23mapIN9ShaderLab16FastPropertyNameEfNS2_4lessIS5_EENS2_9allocatorINS2_4pairIKS5_fEEEEEEEEvRT_17TransferMetaFlags
NDd:_Graphic_SetVerticesDirty_m2124914069
AMg:_CultureInfo__ctor_m3285927757
WSf:_MaskableGraphic_get_rootCanvasRect_m3492154629
iUc:__ZN9Scripting11UnityEngine9Physics2D9InitProxyEv
mHi:_Array_Resize_TisRaycastResult_t3360306849_m1811054291_gshared
avc:__ZN12MeshRenderer27PrepareSingleRendererUpdateER13RendererSceneRS_10MemLabelId
bgc:__ZNSt3__26vectorIN9ShaderLab20SerializedSubProgramENS_9allocatorIS2_EEE8__appendEj
n1:__ZN20DynamicHeapAllocatorI17LowLevelAllocatorE8AllocateEji
hhd:__ZN11UnityEngine9Analytics15UserCustomEvent12ToJsonStringER9JSONWrite
pij:_Locale_GetText_m2427493201
g_b:__ZN20DynamicPropertySheet15SetVectorQueuedERKN9ShaderLab16FastPropertyNameERK8Vector4fN19ShaderPropertySheet8SetFlagsE
pD:__ZN7mecanim9animation22EvaluateAvatarRetargetEPKNS0_14AvatarConstantEPKNS0_11AvatarInputEPNS0_12AvatarOutputEPNS0_12AvatarMemoryEPNS0_15AvatarWorkspaceEb
LGa:__ZN14RenderSettings23VirtualRedirectTransferER19StreamedBinaryWriteILb0EE
zNc:__ZL26Transfer_SimpleNativeClassI9JSONWrite10RectOffsetLb0EEvRK29SerializationCommandArgumentsR31RuntimeSerializationCommandInfo
aek:_GC_push_conditional
_gd:__ZN21UnityAnalyticsManager23VirtualRedirectTransferER24GenerateTypeTreeTransfer
o_a:__ZN17GenericDynamicVBO10AllocateVBEjR21DynamicVBOChunkHandle
m7g:_DBNull_ToString_m3638608738
h3j:__ZN30dense_hashtable_const_iteratorI10KeyWrapperIP18Il2CppGenericClassES3_N6il2cpp8metadata22Il2CppGenericClassHashEN14dense_hash_setIS3_S6_NS3_14EqualsComparerINS5_25Il2CppGenericClassCompareEEENSt3__29allocatorIS3_EEE8IdentityESA_SD_EppEv
xIg:_BitArray_Clone_m3537018332
slf:_ObjectRecord_UnchainFixup_m3191243952
k5i:_TlsStream_get_CanWrite_m16389328
Ved:__Z15GetUIModuleSpecv
xWc:__ZN9Scripting11UnityEngine8UIVertex9InitProxyEv
hl:_glMapBufferRange
FSa:__ZN9Texture2D8TransferI18StreamedBinaryReadILb0EEEEvRT_
arc:__Z31Input_CUSTOM_GetMouseButtonDowni
Dzc:__ZN13PlayableGraph4PlayEv
rab:__ZNK9Transform16GetLocalPositionEv
NLe:_MonoType_get_BaseType_m1098640416
y5a:__ZN13LoadOperation19IntegrateTimeSlicedEi
D5i:_TlsStream_Read_m3392972801
cNb:__ZN13GfxDeviceGLES22DispatchComputeProgramE12ObjectHandleI18ComputeProgram_TagPvE15ComputeBufferIDj
qIh:_Latin1Encoding_GetString_m254210343
A7a:__Z17TransformAABBSlowRK4AABBRK10Matrix4x4fRS_
KBg:_Array_combsort_m4052486289
hFg:_Char_System_IConvertible_ToUInt16_m2449138174
gP:__ZN24AudioScriptBufferManager27InitialCompleteDomainReloadEv
Bec:__ZN9ShaderLab21SerializedShaderState8TransferI14SafeBinaryReadEEvRT_
Ebh:_Environment_GetWindowsFolderPath_m1738399646
G$c:_cf2_stack_pushInt
hD:__ZN8Animator19FireAnimationEventsERNS_11AnimatorJobE
SJd:_Module_GetCustomAttributes_m76573271
Yof:_CryptoConfig_EncodeOID_m2635914623
aNa:__ZN15SerializeTraitsINSt3__24pairIN4core12basic_stringIcNS2_20StringStorageDefaultIcEEEES6_EEE8TransferI24GenerateTypeTreeTransferEEvRS7_RT_
hzk:b89
gzk:b88
Jxk:b81
Ixk:b80
pSb:__ZN7ApiGLES19CreateSparseTextureEjj14GraphicsFormatiiiiRiS1_S1_
_8:__ZN18ResourceImageGroup7CleanupEv
Wxk:b85
Vxk:b84
fzk:b87
dug:_String_CharCopy_m3838781968
GVd:_RemotingSurrogateSelector_GetSurrogate_m3900875713
Wdg:_CertificateValidationCallback_Invoke_m1014111289
BIa:__ZN8Playable19SetOutputConnectionEPS_i
CCa:__Z20RenderMultipleMeshesRK15RenderNodeQueueRK18RenderMultipleData16VertexInputMasks
Xl:_glDeleteShader
Rha:__ZN6prcoreL17RemapGenericFloatI15TexFormatRGHalf16TexFormatRGFloatEEvPKNS_9InnerInfoE
gIi:_Array_Sort_TisUICharInfo_t75501106_m128665067_gshared
T1c:_otv_GSUB_validate
xlg:_RSAPKCS1SignatureDeformatter_SetHashAlgorithm_m1602190713
Gah:_Enum_System_IConvertible_ToByte_m1219166845
xhf:_Dictionary_2_CopyToCheck_m45332585_gshared
Ojc:__Z27scripting_add_internal_callPKcPKv
lSj:__ZN13Il2CppHashMapINSt3__24pairIPK9EventInfoP11Il2CppClassEEj17ReflectionMapHashIS7_ENS0_8equal_toIS7_EENS0_9allocatorINS1_IK10KeyWrapperIS7_EjEEEEEC2EjRKS9_RKSB_
n4j:__GLOBAL__sub_I_GarbageCollector_cpp
jzf:_Input_get_inputString_m1307069105
THc:__ZN9Scripting11UnityEngine3GUI9InitProxyEv
G9e:_Enumerator_MoveNext_m1556953412_AdjustorThunk
rv:__ZN26AnimatorControllerPlayable18SetLayerAutoWeightEv
ddd:__Z44Register_UnityEngine_Canvas_get_pixelPerfectv
Gdj:_Literal_GetAnchorInfo_m810577400
hgd:__ZN2UI14CanvasRenderer12SyncMaterialENS0_8SyncFlagE
iZg:_StreamWriter_Write_m1660535366
aik:__ZN6il2cpp2vm9Parameter30GetDefaultParameterValueObjectEPK10MethodInfoPK13ParameterInfoPb
rKh:_UTF8Encoding_GetByteCount_m4152118078
vqh:_KeyPairPersistence__CanSecure_m3516574278
rc:invoke_iiiiiiiii
fli:__Z95RuntimeInvoker_Void_t1185182177_RuntimeObject_RuntimeObject_Int32_t2950945753_SByte_t1669577662PFvvEPK10MethodInfoPvPS4_
wrf:_MD5CryptoServiceProvider_Dispose_m3502499818
G$i:_Collection_1_System_Collections_IList_get_Item_m2422562729_gshared
zHa:__ZN12LightManager28IsLightTransformDataUpToDateEPK5Light
$3c:_UNITY_tt_face_done_kern
wWe:_ArrayReadOnlyList_1_RemoveAt_m2104218585_gshared
AXa:__ZN12BoneWeights48TransferI24GenerateTypeTreeTransferEEvRT_
Vka:__ZL49__ManagedRegistrationHelperFunction_PreLateUpdatePv
ZGb:__Z19scripting_gc_enablev
I3e:_InternalEnumerator_1_get_Current_m2907722321_gshared
wVb:__ZZ23InitPlayerLoopCallbacksvEN41InitializationPlayerUpdateTimeRegistrator7ForwardEv
mCc:__ZN11UTF16StringC2ERKS_10MemLabelId
T4e:_InternalEnumerator_1_get_Current_m3792939945_AdjustorThunk
sed:__Z55Register_UnityEngine_CanvasRenderer_DisableRectClippingv
tt:__ZN9Scripting11UnityEngine10Animations16ConstraintSource12CleanupProxyEv
$Nh:_TimeSpan_Subtract_m1264203589_AdjustorThunk
n_e:_InternalEnumerator_1_System_Collections_IEnumerator_get_Current_m888718134_gshared
ahi:__Z175RuntimeInvoker_Void_t1185182177_SByte_t1669577662_SByte_t1669577662_SByte_t1669577662_SByte_t1669577662_SByte_t1669577662_SByte_t1669577662_SByte_t1669577662_SByte_t1669577662PFvvEPK10MethodInfoPvPS4_
pgh:_Array_compare_TisRaycastResult_t3360306849_m822404090_gshared
iDf:_Object_Destroy_m3118546832
RWh:_ReadOnlyCollection_1_System_Collections_Generic_IListU3CTU3E_set_Item_m519295790_gshared
A5g:_DateTime_FromTicks_m4059645178_AdjustorThunk
lKi:_Array_InternalArray__get_Item_TisClientCertificateType_t1004704908_m2297379651_gshared
tRd:_ConfigHandler_ParseTime_m1787834288
Qic:__ZN9ShaderLab7Program27CreateFromSerializedProgramERKNS_17SerializedProgramE10ShaderTypeiP16PropertyNamesSetPK6Shader
Kdh:_Array_InternalArray__ICollection_Remove_TisX509ChainStatus_t133602714_m3635989134_gshared
qPe:_Assembly_Load_m3487507613
yK:__ZNSt3__27__sort4IRNS_6__lessIN4core12basic_stringIcNS2_20StringStorageDefaultIcEEEES6_EEPS6_EEjT0_SA_SA_SA_T_
zrk:dynCall_viiiifii
PQj:__ZN6il2cpp2gc19AppendOnlyGCHashMapINSt3__24pairIPK11Il2CppImageP11Il2CppClassEEP22Il2CppReflectionModule17ReflectionMapHashIS9_ENS2_8equal_toIS9_EEEC2Ev
q6:__Z20GetPersistentManagerv
j7c:_UNITY_TT_Set_Var_Design
L2:__ZN21SystemInfoStringCache16StaticInitializeEPv
I$f:_NameObjectCollectionBase_FindFirstMatchedItem_m840305173
qXh:_ReadOnlyCollection_1_System_Collections_Generic_ICollectionU3CTU3E_Remove_m1100818788_gshared
Efc:__ZNSt3__26vectorIN9ShaderLab20SerializedSubProgram15StructParameterENS_9allocatorIS3_EEE6assignIPS3_EENS_9enable_ifIXaasr21__is_forward_iteratorIT_EE5valuesr16is_constructibleIS3_NS_15iterator_traitsISA_E9referenceEEE5valueEvE4typeESA_SA_
WVh:_Collection_1_IsSynchronized_m2291009199_gshared
yid:__ZN9Scripting11UnityEngine9Analytics21AnalyticsSessionState12CleanupProxyEv
yEb:__ZNK13MonoBehaviour7GetNameEv
H8a:__ZN19ScriptingInvocation28AdjustArgumentsToMatchMethodEv
Pai:_IndexedSet_1_Contains_m1525966688_gshared
sM:__Z15_CheckFMODError11FMOD_RESULTPKciS1_
n_j:__ZN6il2cpp6icalls8mscorlib6SystemL16ThrowInvalidCastEPK11Il2CppClassS5_
Iqf:_HMAC_KeySetup_m661741544
eIh:_Latin1Encoding__ctor_m498920120
UTj:__ZN6il2cpp2vm4Type19GetGenericParameterEPK10Il2CppType
LYg:_StreamReader_Peek_m2272511193
TNg:_DateTimeFormatInfo_FillAllDateTimePatterns_m2683124783
Bdd:__Z51Register_UnityEngine_CanvasGroup_get_blocksRaycastsv
bNe:_NumberFormatter_get_IsFloatingSource_m3714711779
yPh:_Type_GetConstructor_m1195697116
rd:_glBeginQuery
fla:__ZL48__ManagedRegistrationHelperFunction_VisibleLightPv
Euj:_Canvas_get_scaleFactor_m3314757802
lXb:__ZN6Camera12RenderStereoENS_10RenderFlagE8CullFlagPNS_24PerformEyeRenderFunctionE
qcb:__ZN20LocalFileSystemPosix10ToAbsoluteEPKc
dGa:__ZN20TierGraphicsSettings8TransferI19StreamedBinaryWriteILb0EEEEvRT_
_Ak:b111
G7a:__Z23CollectSceneGameObjectsR13dynamic_arrayIiLj0EE
Zak:__ZN6il2cpp2vm13ComObjectBase16DisconnectObjectEj
Cm:f0
ank:_getcwd
Nua:__ZN25ThreadsafeLinearAllocatorD2Ev
G6a:__Z21SendMessageToEveryoneRK17MessageIdentifier11MessageData
Dca:__ZN21BillboardBatchManager16StaticInitializeEPv
H0g:_DateTime_AbsoluteDays_m4235097773
g4:__ZN12_GLOBAL__N_138ArchiveRedirectFileSystemStaticDestroyEPv
lci:__Z74RuntimeInvoker_RuntimeObject_RuntimeObject_RuntimeObject_SByte_t1669577662PFvvEPK10MethodInfoPvPS4_
FBd:_DefaultControls_CreateScrollView_m3842770629
cUc:__ZL55__ManagedRegistrationHelperFunction_PhysicsJobOptions2DPv
zQa:__ZN12CubemapArray34UpdateFileTextureUploadInstructionEP26FileAssetUploadInstructionj
oSb:__Z23CreateSparseTextureGLES9TextureIDii14GraphicsFormati
z2c:_otv_Anchor_validate
PR:__ZN13dynamic_arrayI12SoundChannelLj0EE9push_backERKS0_
dIg:_SynchronizedArrayListWrapper_CopyTo_m4207791406
tLg:_CCMath_mod_m3631663509
ZNh:_TimeSpan_Negate_m1889505500_AdjustorThunk
X_h:_ReadOnlyCollection_1_System_Collections_ICollection_CopyTo_m2715087453_gshared
Qfb:__ZN16MemoryFileSystemD0Ev
Ild:__ZN11UnityEngine7Connect20RemoteConfigSettings7SetJSONER8JSONReadb
_Uj:_il2cpp_class_get_assemblyname
Qzj:__ZN6il2cpp2vm5Class15GetEnumBaseTypeEP11Il2CppClass
hhg:_Context_set_WriteSequenceNumber_m942577065
Wd:_glVertexAttrib4fv
M5f:_X509CertificateEnumerator_Reset_m4026698923
tbk:__ZNK6il2cpp5utils13VmStringUtils23CaseInsensitiveComparerclERKNSt3__212basic_stringIcNS3_11char_traitsIcEENS3_9allocatorIcEEEEPKc
Nyd:_CanvasScaler_SetScaleFactor_m3006968999
CDi:__Z78RuntimeInvoker_Boolean_t97287965_Navigation_t3049316579_Navigation_t3049316579PFvvEPK10MethodInfoPvPS4_
_Qa:__ZNK9Texture2D16GetNpotTexelSizeEv
RMe:_NumberFormatter_Init_m3576155222
odb:__ZL33FileEntryInfoListToFolderContentsRKN4core12basic_stringIcNS_20StringStorageDefaultIcEEEERK19dynamic_block_arrayI13FileEntryInfoLj32EERNSt3__23setIS3_NSB_4lessIS3_EENSB_9allocatorIS3_EEEE
fSf:_LayoutUtility_GetLayoutProperty_m714717302
tlk:_Terminal_NotifyCommandHandlers_m909296863
Hhb:__ZN9GfxDevice22GetDefaultVertexBufferE26GfxDefaultVertexBufferTypej
qch:_Array_InternalArray__ICollection_Contains_TisInt64_t3736567304_m2911357929_gshared
eIb:__Z17BeginSplashScreenb
S$i:_Collection_1_Remove_m3022471627_gshared
snk:___fseeko_unlocked
Ipa:__ZN9Scripting11UnityEngine12Experimental9Playables21TexturePlayableOutput12CleanupProxyEv
qOe:_Object_ToString_m1740002499
knk:_sscanf
uud:_ExecuteEvents_GetEventChain_m2404658789
qHi:_Array_Resize_TisUILineInfo_t4195266810_m3763058392_gshared
sof:_SByte_ToString_m3584531119_AdjustorThunk
Thc:__ZN9ShaderLab16SerializedShader8TransferI19StreamedBinaryWriteILb0EEEEvRT_
Xkj:_TrackableProperty_GetHashCode_m3407865350
ku:__ZN7mecanim9animation18CreateAvatarMemoryEPKNS0_14AvatarConstantERNS_6memory9AllocatorE
O9f:_ModulusRing__ctor_m2420310199
M0g:_Convert_ToDateTime_m626620011
$9e:_Enumerator_System_Collections_IDictionaryEnumerator_get_Key_m2500634048_AdjustorThunk
zE:__ZN7mecanim8skeleton16SkeletonPoseCopyIN4math4trsXENS2_7affineXEEEvPKNS0_13SkeletonPoseTIT_EEPNS5_IT0_EE
RPb:__ZN18GfxFramebufferGLES18GetFramebufferNameERK20GfxRenderTargetSetup
zna:__ZN9Scripting11UnityEngine9Transform9InitProxyEv
mTj:__ZN6il2cpp2vm14TypeNameParser12ParseVersionERKNSt3__212basic_stringIcNS2_11char_traitsIcEENS2_9allocatorIcEEEERtSB_SB_SB_
tPf:_InputField_MoveDown_m1455948167
mIc:__Z30Event_Get_Custom_PropCharacterP12Il2CppObject
lea:__ZN13PlayableGraph27SchedulePlayableDestructionERK9HPlayable
K1c:_cff_get_mm_var
Cuk:_glGetFramebufferAttachmentParameteriv__wrapper
mQd:_ChannelServices_GetCurrentChannelInfo_m3041604116
Tpb:__Z22scripting_array_length17ScriptingArrayPtr
bIe:_SynchronizedReader_Peek_m148942882
Wfi:__Z95RuntimeInvoker_Void_t1185182177_RuntimeObject_Int32_t2950945753_Int32_t2950945753_RuntimeObjectPFvvEPK10MethodInfoPvPS4_
JPa:__ZN14SafeBinaryRead20TransferTypelessDataEjPvi
J6j:__ZN15dense_hashtableINSt3__24pairIK10KeyWrapperIPcES3_EES4_N6il2cpp5utils15PassThroughHashIS3_EEN14dense_hash_mapIS4_S3_SA_NS4_14EqualsComparerINS0_8equal_toIS3_EEEENS0_9allocatorIS6_EEE9SelectKeyESF_SH_E3endEv
XBa:__Z19GetActiveColorSpacev
C3c:_UNITY_tt_face_load_kern
mKd:_MonoMethodInfo_GetDeclaringType_m2924452727
AJb:__ZN13sorted_vectorINSt3__24pairIiN17InstancingBatcher12PropertyTypeEEEN10vector_mapIiS3_NS0_4lessIiEE13stl_allocatorIS4_L18MemLabelIdentifier1ELi16EEE13value_compareESA_E21sort_clear_duplicatesEv
x3:__Z6StrCmpPKcS0_
Gjc:__Z21CheckGpuProgramUsable20ShaderGpuProgramType
muc:__ZN13ProduceHelperI14Texture2DArrayLb0EE7ProduceE10MemLabelId18ObjectCreationMode
I8j:__ZN6il2cpp2os9Directory20GetFileSystemEntriesERKNSt3__212basic_stringIcNS2_11char_traitsIcEENS2_9allocatorIcEEEESA_iiPi
wAg:_Array_System_Collections_IList_Add_m1063688101
SXc:__ZN20TextRenderingPrivate19NativeTextGenerator5SetupEv
$2b:__ZNK15SharedLightData24GetFinalShadowResolutionEv
G2a:__ZN12AspectRatios8TransferI18StreamedBinaryReadILb0EEEEvRT_
_kc:__ZN10GameObject14CopyPropertiesERS_
QJc:__Z44Register_UnityEngine_GUIStyle_get_fixedWidthv
ndh:_Array_InternalArray__ICollection_Remove_TisLink_t544317964_m1280781374_gshared
OCg:_BitConverter_DoubleWordsAreSwapped_m1474345095
rHg:_FixedSizeArrayListWrapper_set_Capacity_m4221053039
Nnk:_rand
evk:_emscripten_glFramebufferRenderbuffer__wrapper
$Ac:__ZN13MeshScripting10CreateMeshE21ScriptingObjectOfTypeI4MeshE
Wx:__ZN17AnimationPlayable22PrepareAnimationEventsEfR13dynamic_arrayI22AnimationClipEventInfoLj0EE
Sqb:__ZN14SafeBinaryRead21TransferSTLStyleArrayINSt3__26vectorI17AnimationCurveTplIfE13stl_allocatorIS4_L18MemLabelIdentifier1ELi16EEEEEEvRT_17TransferMetaFlags
WHg:_SynchronizedArrayListWrapper_Contains_m3809499313
yig:_HandshakeMessage_Compare_m2214647946
Adh:_Array_InternalArray__ICollection_Remove_TisLabelData_t360167391_m3556246844_gshared
Wqf:_HMACSHA256__ctor_m346174875
Huf:_Color_op_Multiply_m2887457390
y5b:__Z22PrepareOptimizedPlanesPK5PlaneiPKN4math7_float4E
Y$:__ZN11UnityEngine15CloudWebService17WebFileDownloaderINS0_20WebRequestRestClientENS0_23WebRequestRestHeaderMapEE10InitializeERKN4core12basic_stringIcNS5_20StringStorageDefaultIcEEEE
Bca:__ZN17UniqueIDGenerator15CreatePureIndexEv
Asc:__Z48InitializeRectTransformAnimationBindingInterfacev
d5a:__ZNSt3__26vectorIN15ResourceManager10DependencyE13stl_allocatorIS2_L18MemLabelIdentifier52ELi16EEE6assignINS_11__wrap_iterIPS2_EEEENS_9enable_ifIXaasr21__is_forward_iteratorIT_EE5valuesr16is_constructibleIS2_NS_15iterator_traitsISC_E9referenceEEE5valueEvE4typeESC_SC_
dzj:__ZN15dense_hashtableINSt3__24pairIK10KeyWrapperIPK22Il2CppGenericParameterEP11Il2CppClassEES6_N6il2cpp5utils11PointerHashIS4_EEN14dense_hash_mapIS6_S9_SE_NS6_14EqualsComparerINS0_8equal_toIS5_EEEENS0_9allocatorISA_EEE9SelectKeyESJ_SL_E14squash_deletedEv
oLa:__ZN9ShaderLabL27GetDesiredRenderTextureDescEPK6Camera
WEi:_Array_InternalArray__Insert_TisMark_t3471605523_m2854535880_gshared
EAc:__ZN4Mesh24UpdateSubMeshVertexRangeEi
OIc:__Z14GUIClipTextureP9Texture2DPhiiii
vte:__ZL52HumanBone_t2465339518_CustomAttributesCacheGeneratorP21CustomAttributesCache
nVd:_MethodReturnDictionary__cctor_m278392388
XYb:__ZNK9Transform18TransformDirectionERK8Vector3f
o4i:_SslStreamBase_get_CanWrite_m1622082918
NEe:__ZL80CanvasScaler_t2767979955_CustomAttributesCacheGenerator_m_ReferencePixelsPerUnitP21CustomAttributesCache
boh:_PrimalityTests_RabinMillerTest_m1471415870
$Ch:_Enumerator_MoveNext_m2114485647_gshared
NTe:_GenericTypeParameterBuilder_GetCustomAttributes_m580748276
UFj:__ZN15dense_hashtableINSt3__24pairIK10KeyWrapperIPK11Il2CppClassEPKcEES6_N6il2cpp5utils11PointerHashIS3_EEN14dense_hash_mapIS6_S9_SE_NS6_14EqualsComparerINS0_8equal_toIS5_EEEENS0_9allocatorISA_EEE9SelectKeyESJ_SL_E12resize_deltaEjj
wpk:__ZNK10__cxxabiv120__si_class_type_info27has_unambiguous_public_baseEPNS_19__dynamic_cast_infoEPvi
T9f:_Kernel_LeftShift_m4140742987
dPe:_Assembly_GetManifestResourceInternal_m1224391897
KCa:__Z30AddDefaultStreamsToMeshBuffersR9GfxDeviceR11MeshBuffersj17ShaderChannelMaskS3_
J3:__ZL16GetInterfaceImpl18UnityInterfaceGUID
gbk:__ZN6il2cpp6icalls8mscorlib6System15MonoCustomAttrs27GetCustomAttributesInternalEP12Il2CppObjectP20Il2CppReflectionTypeb
r1e:_InternalEnumerator_1_get_Current_m1408339225_AdjustorThunk
G7c:_UNITY_TT_Set_MM_Blend
jra:__ZN9Scripting11UnityEngine11Application9InitProxyEv
wIb:__ZN14PreloadManager35WaitForAllAsyncOperationsToCompleteEv
sBj:__ZN13Il2CppHashMapIP9FieldInfoiN6il2cpp5utils11PointerHashIS0_EENSt3__28equal_toIS1_EENS6_9allocatorINS6_4pairIK10KeyWrapperIS1_EiEEEEEC2EjRKS5_RKS8_
oM:__ZL31InitializeAudioScriptingClassesv
qYb:__Z14SortGUIByDepthP10GUIElementS0_
tCf:_PlayerConnection_OnEnable_m4286555589
rF:__ZN12_GLOBAL__N_120ProcessRootMotionMixER33AnimationPlayableEvaluationOutputR35AnimationPlayableEvaluationConstantR32AnimationPlayableEvaluationInputS1_f
qfj:_UriParser__cctor_m3655686731
XRf:_LayoutRebuilder_U3Cs_RebuildersU3Em__0_m589488547
Scb:__ZNK20LocalFileSystemPosix21GetAvailableDiskSpaceEPKcRy
uK:__ZNSt3__26__treeIiNS_4lessIiEENS_9allocatorIiEEE7destroyEPNS_11__tree_nodeIiPvEE
shb:__ZNK9GfxDevice14GetWorldMatrixEv
vKf:_Transform_set_parent_m786917804
_nj:_AudioSampleProvider_InternalSetScriptingPtr_m3742743270
XYf:_Slider_get_value_m739683640
obb:__Z19scripting_array_new17ScriptingClassPtrjj
x2g:_Convert_ToInt32_m2128774575
IR:__ZN11SoundHandle13CreateChannelEb
jgc:__ZNSt3__26vectorIN9ShaderLab20SerializedSubProgram16TextureParameterENS_9allocatorIS3_EEE6assignIPS3_EENS_9enable_ifIXaasr21__is_forward_iteratorIT_EE5valuesr16is_constructibleIS3_NS_15iterator_traitsISA_E9referenceEEE5valueEvE4typeESA_SA_
vEj:__ZN13Il2CppHashMapIN6il2cpp5utils13dynamic_arrayIPK10Il2CppTypeLj4EEEPFvvENS0_8metadata19Il2CppSignatureHashENS9_22Il2CppSignatureCompareENSt3__29allocatorINSC_4pairIK10KeyWrapperIS6_ES8_EEEEEC2EjRKSA_RKSB_
vRj:__ZN15dense_hashtableINSt3__24pairIK10KeyWrapperIPK22Il2CppGenericParameterEPK24MonoGenericParameterInfoEES6_N6il2cpp5utils11PointerHashIS4_EEN14dense_hash_mapIS6_SA_SF_NS6_14EqualsComparerINS0_8equal_toIS5_EEEENS0_9allocatorISB_EEE9SelectKeyESK_SM_E15set_deleted_keyERKSB_
qof:_SByte_TryParse_m2431806379
jIa:__ZN6prcoreL11inner_clearILj2EEEvPhjjj
Vra:__ZN9Scripting5Unity11Collections8LowLevel6Unsafe24NativeContainerAttribute9InitProxyEv
Upf:_DSACryptoServiceProvider_get_KeySize_m786836990
Hg:_emscripten_exit_fullscreen
wGi:_Array_qsort_TisBoolean_t97287965_TisBoolean_t97287965_m214793583_gshared
iCh:_Enumerator_System_Collections_IEnumerator_Reset_m1564381721_gshared
Gsc:__ZZL31RegisterRectTransformPropertiesR22GenericPropertyBindingEN39Wrapper_RectTransformAnchoredPositiony113GetFloatValueEPv
kOe:_Object_MemberwiseClone_m1474068832
p7j:__ZN6il2cpp6icalls8mscorlib6System6String19InternalAllocateStrEi
$Rc:__Z29Transfer_Blittable_ArrayFieldI8JSONRead11QuaternionfEvRT_R9ArrayInfoRK23StaticTransferFieldInfo
Foc:__Z45Register_UnityEngine_Camera_get_targetDisplayv
fxc:__ZNK24RendererAnimationBinding15GenerateBindingERKN4core12basic_stringIcNS0_20StringStorageDefaultIcEEEEbRN11UnityEngine9Animation14GenericBindingE
z1f:_IPv6Address__ctor_m3704187391
xHa:__Z15GetFlareManagerv
ou:__ZN8Animator13GetAvatarRootEv
Sih:_Array_InternalArray__ICollection_Add_TisResourceCacheItem_t51292791_m3851804827_gshared
Nlk:___toread
lGb:__ZNSt3__26vectorI10vector_mapIiiNS_4lessIiEE13stl_allocatorINS_4pairIiiEEL18MemLabelIdentifier38ELi16EEES4_IS9_LS7_38ELi16EEE26__swap_out_circular_bufferERNS_14__split_bufferIS9_RSA_EE
p9f:_BigInteger_get_Rng_m3283260184
Zpk:___cxa_is_pointer_type
lJ:__ZN8Animator22ScriptingStringToCRC32ERK11ICallString
tF:__ZN7mecanim9animation16EvaluateAvatarDXEPKNS0_14AvatarConstantEPKNS0_11AvatarInputEPNS0_12AvatarMemoryEPNS0_15AvatarWorkspaceEPNS0_12AvatarOutputE
owd:_RaycastResult_ToString_m2678663776_AdjustorThunk
uKi:_Array_InternalArray__get_Item_TisKeyValuePair_2_t2530217319_m2886833132_gshared
Gka:__ZL50__ManagedRegistrationHelperFunction_UnityEventBasePv
hqc:__Z34Transform_CUSTOM_SetAsFirstSiblingP12Il2CppObject
iPf:_InputField_Delete_m3471899192
ojf:_RemotingConfiguration_get_ProcessId_m2180277012
uY:__ZN11UnityEngine15CloudWebService17SessionEventQueue14ParseEventDataERKN4core12basic_stringIcNS2_20StringStorageDefaultIcEEEE
d2f:_WebHeaderCollection_Add_m183143026
KOb:__ZN13TranslateGLES4InitERK12GraphicsCaps16GfxDeviceLevelGL
VSg:_Int64_System_IConvertible_ToUInt16_m848637338_AdjustorThunk
$hd:__Z32CustomEventData_CUSTOM_AddUInt32P12Il2CppObjectP12Il2CppStringj
ihh:_Array_InternalArray__IndexOf_TisLink_t544317964_m455584088_gshared
zWi:_Enumerator_get_Current_m2282646120_AdjustorThunk
L_h:_ReadOnlyCollection_1_IndexOf_m2539022912_gshared
VDe:__ZL66Selectable_t3250028441_CustomAttributesCacheGenerator_m_TransitionP21CustomAttributesCache
Gik:__ZN6il2cpp2os6Memory12AlignedAllocEjj
dPc:__ZN9JSONWrite8TransferI13dynamic_arrayIN4math12int3_storageELj0EEEEvRT_PKc17TransferMetaFlags
b_f:_Text_set_alignByGeometry_m3828822280
fck:__ZN6il2cpp8metadataL7CompareEPK10Il2CppTypeS3_
F_f:_HybridDictionary__ctor_m1681134385
fya:__ZN21ScalableBufferManager11GetInstanceEv
uBb:__Z18Transfer_BlittableI18StreamedBinaryReadILb0EELb1E10ColorRGBAfEvRK29SerializationCommandArgumentsR31RuntimeSerializationCommandInfo
hOh:_TimeSpan_op_LessThan_m1594498345
Qmc:__ZL27GetComponentsImplementationILb0ELi0EEbR10GameObjectbRK17CompareParametersRK39GetComponentsImplementation_ReturnValue
kFb:__ZN9Scripting36IsSystemCollectionsGenericDictionaryE17ScriptingClassPtr
T9h:_UnityEvent_1_FindMethod_Impl_m322741469_gshared
JKf:_Enumerator_get_Current_m2591725252
D9:__ZL16ReadTypeTreeImplILb0EEbR8TypeTreeRK16TypeTreeIteratorRPKhS6_i
R8f:_Interval_Contains_m110351300_AdjustorThunk
q2g:_Convert_ToInt32_m3048308591
Eu:__ZN25RuntimeAnimatorControllerD2Ev
K6g:_DateTimeOffset_Equals_m3030958070
aHa:__ZNK22BuiltinResourceManager21GetResourceInstanceIDEPKN5Unity4TypeERKN4core12basic_stringIcNS4_20StringStorageDefaultIcEEEE
joc:__Z42Register_UnityEngine_RectOffset_set_bottomv
nkj:_AnalyticsTracker_BuildParameters_m43920649
xNg:_DateTimeFormatInfo_GetMonthName_m2034512315
v_b:__ZN28LightProbeProxyVolumeContext8CopyFromERKS_
w$h:_ReadOnlyCollection_1_System_Collections_Generic_IListU3CTU3E_Insert_m2489506856_gshared
mxa:__ZN23TransformChangeDispatch32QueueTransformChangeIfHasChangedER18TransformHierarchy
Vlh:_SimpleCollator_ToDashTypeValue_m6184468
qRb:__ZN7ApiGLES18DeleteRenderbufferERj
BQb:__ZL23ProgramUniformMatrix4fvPK7ApiGLESjiihPKv
DKb:__ZN7ApiGLES13CreateTextureEjj14GraphicsFormatiiiii
PBg:_Array_new_gap_m262136975
Rfc:__ZN9ShaderLab20SerializedSubProgram15MatrixParameter8TransferI14SafeBinaryReadEEvRT_
Smc:__ZL27GetComponentsImplementationILb0ELi1EEbR10GameObjectbRK17CompareParametersRK39GetComponentsImplementation_ReturnValue
U4f:_X509Store__ctor_m275383717
eKf:_Transform_INTERNAL_get_position_m1310184257
r6c:_Round_Down_To_Grid
oHj:__ZN6il2cpp2vm13MetadataCache40AddThreadLocalStaticOffsetForFieldLockedEP9FieldInfoiRKNS_2os12FastAutoLockE
Fza:__ZN13RenderTexture7ReleaseEv
yPc:__Z18Transfer_BlittableI8JSONReadLb1EN4math12int3_storageEEvRK29SerializationCommandArgumentsR31RuntimeSerializationCommandInfo
B_a:__ZN10MeshFilter23VirtualRedirectTransferER14SafeBinaryRead
R0a:__ZN12MeshRenderer17MainThreadCleanupEv
Uzj:__ZN6il2cpp2vmL10InitLockedEP11Il2CppClassRKNS_2os12FastAutoLockE
bmb:__ZN22CreateGpuProgramOutput12CreateParamsEv
wN:__ZN10ObjectPoolIN4FMOD7ChannelENS0_8ChannelIEE7GetFreeEi
Bs:__ZL62__ManagedRegistrationHelperFunction_AnimatorOverrideControllerPv
J$h:_ReadOnlyCollection_1_System_Collections_IList_Insert_m177536056_gshared
R_e:_InternalEnumerator_1_System_Collections_IEnumerator_get_Current_m548105685_gshared
BOb:__ZNK14GfxContextGLES13GetDefaultFBOEv
QDg:_Byte_System_IConvertible_ToType_m2251112646
FEc:__Z55Register_UnityEngine_MonoBehaviour_StopCoroutineManagedv
hvi:__Z81RuntimeInvoker_Char_t3634460470_RuntimeObject_Int32_t2950945753_Int16_t2552820387PFvvEPK10MethodInfoPvPS4_
bLc:__GLOBAL__sub_I_artifacts_WebGL_codegenerator_0_cpp_3254
E5g:_DateTime_get_Hour_m4153505178_AdjustorThunk
jnj:_AudioExtensionManager_WriteExtensionProperties_m3028464154
bpg:_Evidence_Equals_m1478353107
gAc:__Z13GetImagePixelI10ColorRGBAfET_PKhii13TextureFormat15TextureWrapModeS5_ii
ZPi:_List_1_System_Collections_IList_set_Item_m1842844683_gshared
Wbi:_ObjectPool_1__ctor_m2535233435_gshared
GWj:__ZN6il2cpp2vm6Thread49CheckCurrentThreadForInterruptAndThrowIfNecessaryEv
X$g:_Convert_ToChar_m3757390865
pCa:__ZNSt3__23mapIN9ShaderLab16FastPropertyNameEN18UnityPropertySheet11UnityTexEnvENS_4lessIS2_EENS_9allocatorINS_4pairIKS2_S4_EEEEEixERS9_
EKb:__ZNK13TranslateGLES25GetTextureTargetDimensionEj
JYh:_ReadOnlyCollection_1_System_Collections_IList_Remove_m1842121503_gshared
CVg:_File_OpenRead_m2936789020
r5:__ZN9Scripting12LogExceptionE21ScriptingExceptionPtriPKcb
Zri:__Z94RuntimeInvoker_Void_t1185182177_RuntimeObject_PlayableGraph_t3515989261_RuntimeObject_IntPtr_tPFvvEPK10MethodInfoPvPS4_
Ii:_emscripten_glVertexAttrib4f
Qrb:__ZN14SafeBinaryRead21TransferSTLStyleArrayI13dynamic_arrayIN4math12int3_storageELj0EEEEvRT_17TransferMetaFlags
djc:__ZNSt3__26vectorIN20GpuProgramParameters14ConstantBufferENS_9allocatorIS2_EEE8__appendEj
C5f:_X509CertificateCollection_AddRange_m3683116910
OQd:_SinkProviderData__ctor_m1624738837
Dui:__Z88RuntimeInvoker_RuntimeObject_RuntimeObject_SByte_t1669577662_RuntimeObject_RuntimeObjectPFvvEPK10MethodInfoPvPS4_
BQe:_CustomAttributeTypedArgument_Equals_m2261980307
Wz:__ZN7mecanim12statemachine24CreateStateMachineMemoryEPKNS0_20StateMachineConstantERNS_6memory9AllocatorE
mjb:__ZN9GfxDevice18SetGlobalDepthBiasEff
BJj:__ZN6il2cpp6icalls8mscorlib6System8MonoType12get_AssemblyEP20Il2CppReflectionType
Wi:_emscripten_glGetPointerv
kJi:_Dictionary_2_Do_CopyTo_TisKeyValuePair_2_t3842366416_TisRuntimeObject_m1564656153_gshared
aF:__ZN8Animator22ApplyBuiltinRootMotionEv
Lqc:__Z14BezierExtractUfff
UHb:__Z26ApplyMaterialPassWithCacheRK18SharedMaterialDataR17ShaderPassContextP6ShaderPN9ShaderLab4PassEibPKNS6_10GrabPassesEPNS6_11SubProgramsEPK22DeviceRenderStateBlock
Ehe:__ZL81Camera_t4157153871_CustomAttributesCacheGenerator_Camera_RaycastTry2D_m2460696262P21CustomAttributesCache
hMe:_MulticastDelegate_KPM_m22863605
x2e:_InternalEnumerator_1_get_Current_m1897120917_AdjustorThunk
GLe:_MonoType_ReorderParamArrayArguments_m2458683451
Rkf:_FormatterConverter_ToInt16_m4282804414
kki:__Z81RuntimeInvoker_Void_t1185182177_Int64_t3736567304_RuntimeObject_Int64_t3736567304PFvvEPK10MethodInfoPvPS4_
Uwd:_StandaloneInputModule_ProcessTouchPress_m4019232747
yVg:_FileStream__ctor_m3151488352
OBg:_Array_swap_m547389985
pUa:__ZN8Renderer23VirtualRedirectTransferER14SafeBinaryRead
KRh:_UInt32_ToString_m2420423038
_Mi:_List_1_System_Collections_IList_Add_m634558835_gshared
aWg:_FileStream_get_Length_m426703983
Pyc:__Z13RegisterClassI10TagManagerEvPKc
cAj:__ZN6il2cpp2vmL15GetBitmapNoInitEP11Il2CppClassPjRjj
WL:__ZN12AudioManager5ResetEv
$ge:__ZL68DisallowMultipleComponent_t1422053217_CustomAttributesCacheGeneratorP21CustomAttributesCache
bia:__ZN6prcoreL17RemapGenericFloatI17TexFormatRGBAHalf15TexFormatRGHalfEEvPKNS_9InnerInfoE
V8j:__ZN6il2cpp6icalls8mscorlib6System11Environment20GetWindowsFolderPathEi
Ky:__ZN7mecanim5human18HumanPoseBlendNodeERNS0_9HumanPoseEPS1_f
K0c:_UNITY_FT_RoundFix
hUc:__ZN9Scripting11UnityEngine19PhysicsJobOptions2D12CleanupProxyEv
Bfk:_GC_is_heap_ptr
Nig:_HandshakeMessage_EncodeMessage_m3919107786
Poh:_ASN1_DecodeTLV_m1200977460
Axf:_UnityEventBase_PrepareInvoke_m1785382128
T0a:__ZNK12MeshRenderer22GetTypeVirtualInternalEv
jFg:_Char_System_IConvertible_ToUInt32_m3901815580
vVf:_Scrollbar_set_onValueChanged_m346467699
Kmi:__Z157RuntimeInvoker_Int32_t2950945753_RuntimeObject_Int32_t2950945753_Int32_t2950945753_Int32_t2950945753_SByte_t1669577662_SByte_t1669577662_Int32U26_t1369213839PFvvEPK10MethodInfoPvPS4_
TO:__ZN4FMOD6System17setSoftwareFormatEi17FMOD_SOUND_FORMATii18FMOD_DSP_RESAMPLER
mMa:__ZN14SafeBinaryRead19TransferSTLStyleMapINSt3__23mapIN4core12basic_stringIcNS3_20StringStorageDefaultIcEEEES7_NS1_4lessIS7_EE13stl_allocatorINS1_4pairIKS7_S7_EEL18MemLabelIdentifier1ELi16EEEEEEvRT_17TransferMetaFlags
js:__ZL49__ManagedRegistrationHelperFunction_AimConstraintPv
lgd:__ZN2UI6Canvas27UpdateEventIndexesRecursiveERi
BY:__ZN11UnityEngine15CloudWebService16SessionContainer21PrepareDataErrorEventERN4core12basic_stringIcNS2_20StringStorageDefaultIcEEEE
iud:_ExecuteEvents_get_pointerUpHandler_m3515704212
dGg:_ArrayList_set_Item_m2003485935
vOd:_SatelliteContractVersionAttribute__ctor_m3630863995
bwd:_MouseButtonEventData_PressedThisFrame_m1060658845
vxb:__Z19TransferField_ArrayI19StreamedBinaryWriteILb0EE27Converter_SimpleNativeClassI8GUIStyleEEvRK23StaticTransferFieldInfoR31RuntimeSerializationCommandInfoRT0_
dYb:__Z27SetClippingPlaneShaderPropsR9GfxDevice
bZh:_ReadOnlyCollection_1_System_Collections_Generic_IListU3CTU3E_RemoveAt_m3969985996_gshared
DEa:__Z28BuildSingleStreamChannelInfoP11ChannelInfo17ShaderChannelMaskS1_
rCf:_PlayerConnection_get_isConnected_m911966057
WEd:_GraphicRegistry_GetGraphicsForCanvas_m4219276355
BMe:_NumberFormatter_FastToDecHex_m699829267
eaj:_PatternCompiler_MakeFlags_m1977119795
mPc:__Z35Transfer_Blittable_FixedBufferFieldI8JSONReadiEvRK29SerializationCommandArgumentsR31RuntimeSerializationCommandInfo
ZHj:__ZNSt3__213__vector_baseIN6il2cpp2os19SocketHandleWrapperENS_9allocatorIS3_EEED2Ev
PZd:__ZL48_Type_t3588564251_CustomAttributesCacheGeneratorP21CustomAttributesCache
YUa:__ZN28ReflectionProbeAnchorManager18RemoveCachedAnchorERK4PPtrI9TransformE
$b:invoke_viiffi
zac:__ZN13sorted_vectorINSt3__24pairIN4core12basic_stringIcNS2_20StringStorageDefaultIcEEEEPK17MessageIdentifierEEN10vector_mapIS6_S9_NS0_4lessIS6_EENS0_9allocatorISA_EEE13value_compareESF_E10insert_oneERKSA_
zSc:__ZN5Unity9rapidjson13GenericReaderINS0_4UTF8IcEES3_13JSONAllocatorE10ParseFalseILj0ENS0_19GenericStringStreamIS3_EENS0_15GenericDocumentIS3_S4_S4_EEEEvRT0_RT1_
QCa:__ZL13MeshExtractorPv16VertexInputMasksiR11MeshBuffersR16DrawBuffersRangeRiS5_
oQa:__ZNK12CubemapArray20GetRuntimeMemorySizeEv
SNh:_TimeSpan_FromHours_m1109641064
Ngc:__Z14resize_trimmedINSt3__26vectorIN9ShaderLab18SerializedPropertyENS0_9allocatorIS3_EEEEEvRT_j
BFj:__ZN6il2cpp2vm13MetadataCache38GetMethodInfoFromMethodDefinitionIndexEi
Vsd:_EventSystem_set_current_m38955169
sEc:__Z39MonoBehaviour_CUSTOM_GetScriptClassNameP12Il2CppObject
TDe:__ZL53Selectable_t3250028441_CustomAttributesCacheGeneratorP21CustomAttributesCache
f9i:_CostDelegate_EndInvoke_m2797921932
yXa:__ZN10VertexData8TransferI24GenerateTypeTreeTransferEEvRT_
A$g:_Double_IsInfinity_m820013146
j9j:__ZN13Il2CppHashMapIPK19Il2CppGenericMethodP10MethodInfoN6il2cpp8metadata23Il2CppGenericMethodHashENS6_26Il2CppGenericMethodCompareENSt3__29allocatorINS9_4pairIK10KeyWrapperIS2_ES4_EEEEEC2EjRKS7_RKS8_
kIf:_Screen_get_dpi_m495672463
qKh:_UTF8Encoding_InternalGetByteCount_m2120178851
Y4b:__ZL10CullLightsRK22SceneCullingParametersR11CullResults
v4g:_Convert_ToUInt64_m3170916409
mrd:__ZN9Scripting11UnityEngine12Experimental2XR14ReferencePoint12CleanupProxyEv
JSg:_Int64_System_IConvertible_ToInt16_m4062196970_AdjustorThunk
bMe:_MonoType_GetGenericTypeDefinition_m3201894896
jpc:__Z40GetTemporaryCachePathApplicationSpecificv
Phb:__ZN9GfxDevice16EndAsyncJobFrameEv
lwi:__Z99RuntimeInvoker_Int32_t2950945753_Ray_t3785851493_RuntimeObject_Single_t1397266774_Int32_t2950945753PFvvEPK10MethodInfoPvPS4_
v3c:_UNITY_tt_face_load_hhea
eSe:_DerivedType_get_Assembly_m2979298667
Uk:___syscall3
Xk:___syscall6
Zk:___syscall4
PRe:_DerivedType_GetMethods_m3787404845
IVd:_ReturnMessage__ctor_m2352989078
Lgb:__ZNSt3__26__treeINS_12__value_typeIN4core12basic_stringIcNS2_20StringStorageDefaultIcEEEEPN16MemoryFileSystem4NodeEEENS_19__map_value_compareIS6_SA_NS_4lessIS6_EELb1EEE13stl_allocatorISA_L18MemLabelIdentifier55ELi16EEE7destroyEPNS_11__tree_nodeISA_PvEE
_si:__Z67RuntimeInvoker_Boolean_t97287965_TextGenerationSettings_t1351628751PFvvEPK10MethodInfoPvPS4_
$4j:__ZN6il2cpp2vm3RCW14QueryInterfaceILb1EEEP14Il2CppIUnknownP15Il2CppComObjectRK10Il2CppGuid
tgg:_TlsServerCertificateRequest__ctor_m1334974076
aTc:__ZN27PerformanceReportingManager23VirtualRedirectTransferER14SafeBinaryRead
t2g:_Convert_ToInt32_m1613163543
ioa:__ZN9Scripting11UnityEngine9Playables8Playable12CleanupProxyEv
BYh:_ReadOnlyCollection_1_System_Collections_ICollection_CopyTo_m3127175806_gshared
ml:_emscripten_glShaderBinary
Bpg:_String_op_Inequality_m215368492
RQh:_UInt16_ToString_m760649087
Kcb:__ZNK20LocalFileSystemPosix6ExistsERK13FileEntryData
quf:_Camera_GetAllCameras_m668492922
odd:__Z58Register_UnityEngine_Canvas_GetETC1SupportedCanvasMaterialv
gOh:_TimeSpan_op_Inequality_m2467851530
_zb:__ZN17AnimationCurveTplIfE8TransferI18StreamedBinaryReadILb1EEEEvRT_
lIi:_Array_Sort_TisUIVertex_t4057497605_m3996333845_gshared
gCg:_Swapper_BeginInvoke_m1688449973
ewf:_Display_get_renderingWidth_m1970428952
Yjj:_U3CTimedTriggerU3Ec__Iterator0_MoveNext_m825792986
ooi:__Z81RuntimeInvoker_Void_t1185182177_RuntimeObject_Int32_t2950945753_Int64_t3736567304PFvvEPK10MethodInfoPvPS4_
jJ:__ZNSt3__26vectorIN4core12basic_stringIcNS1_20StringStorageDefaultIcEEEE13stl_allocatorIS5_L18MemLabelIdentifier1ELi16EEE21__push_back_slow_pathIS5_EEvOT_
Oki:__Z86RuntimeInvoker_Boolean_t97287965_Int16_t2552820387_Int16_t2552820387_Int32_t2950945753PFvvEPK10MethodInfoPvPS4_
Tai:_IndexedSet_1_IndexOf_m241693686_gshared
tkd:__ZN11UnityEngine15PlatformWrapper30GetGraphicsDriverLibraryStringEv
wnf:_RuntimeMethodHandle_Equals_m3301340296_AdjustorThunk
gSh:_UInt64_System_IConvertible_ToSingle_m925613075_AdjustorThunk
vBb:__Z18Transfer_BlittableI18StreamedBinaryReadILb0EELb0E4AABBEvRK29SerializationCommandArgumentsR31RuntimeSerializationCommandInfo
k5a:__ZN24GenerateTypeTreeTransfer19TransferSTLStyleMapINSt3__28multimapIN4core12basic_stringIcNS3_20StringStorageDefaultIcEEEE4PPtrI6ObjectENS1_4lessIS7_EE13stl_allocatorINS1_4pairIKS7_SA_EEL18MemLabelIdentifier52ELi16EEEEEEvRT_17TransferMetaFlags
Qt:__ZN16MecanimAnimation24DeleteAnimatedPropertiesERP26IAnimatedPropertyEvaluator
rvj:_CanvasRenderer_SetMaterial_m824577244
TWb:__Z14DrawGUITextureRK5RectTIfEP7Texture11ColorRGBA32P8Materiali
cLa:__ZNK15PlayableMethods18InvokeProcessFrameER18ScriptingObjectPtrRK9HPlayableP18ScriptingFrameDataRK9FrameData
LD:__ZN9BlobWrite8TransferI22OffsetPtrArrayTransferIKN4math7_float4EEEEvRT_PKc17TransferMetaFlags
FKf:_Transform_IsChildOf_m224006092
eKa:__ZN15TextureSettings8TransferI24GenerateTypeTreeTransferEEvRT_
XOc:__ZN9JSONWrite8TransferI4AABBEEvRT_PKc17TransferMetaFlags
Qec:__ZN15dense_hashtableINSt3__24pairIKiN4core17string_with_labelILi1EEEEEi18SInt32HashFunctionN14dense_hash_mapIiS5_S7_NS0_8equal_toIiEE13stl_allocatorIS6_L18MemLabelIdentifier1ELi16EEE9SelectKeyESA_SD_E12expand_arrayEjN21dense_hash_map_traits17integral_constantIbLb0EEE
Lrc:__Z13RegisterClassI15QualitySettingsEvPKc
Ar:__ZN13ConstraintJob17ConstraintJobDataD2Ev
Vij:_Aes__ctor_m178909601
QQa:__ZNK9Texture2D20GetRuntimeMemorySizeEv
LUd:_MethodCall_get_MethodSignature_m2407904958
ySc:__ZN5Unity9rapidjson13GenericReaderINS0_4UTF8IcEES3_13JSONAllocatorE9ParseTrueILj0ENS0_19GenericStringStreamIS3_EENS0_15GenericDocumentIS3_S4_S4_EEEEvRT0_RT1_
vm:_emscripten_glUniform2iv
tka:__ZL46__ManagedRegistrationHelperFunction_ColorGamutPv
iJh:_UnicodeEncoding_CopyChars_m785272451
EYc:_UNITY_FT_Outline_Transform
Flc:__Z60Register_UnityEngine_Sprites_DataUtility_Internal_GetMinSizev
vAj:__ZN6il2cpp2vm5Class10GetMethodsEP11Il2CppClassPPv
D0b:__Z30AddDefaultStreamsToMeshBuffersR9GfxDeviceR11MeshBuffersRK16DrawBuffersRange17ShaderChannelMaskS6_
TQb:__ZN7ApiGLES17DeleteFramebufferERN2gl6HandleILNS0_10ObjectTypeE9EEES3_
kTb:__ZN15UniformTFMethod13MapBoneBufferEj
ebd:__ZN2UI14CanvasRendererD2Ev
NKi:_Array_InternalArray__get_Item_TisParameterModifier_t1461694466_m29553316_gshared
$Sg:_Int64_CompareTo_m1928360444_AdjustorThunk
pSj:__ZN15dense_hashtableINSt3__24pairIK10KeyWrapperINS1_IPK9EventInfoP11Il2CppClassEEEjEES9_17ReflectionMapHashIS8_EN14dense_hash_mapIS9_jSD_NS9_14EqualsComparerINS0_8equal_toIS8_EEEENS0_9allocatorISB_EEE9SelectKeyESI_SK_E15set_deleted_keyERKSB_
KGb:__Z9SetupArgviPPKc
O2g:_Convert_ToInt64_m2075031821
Ujj:_AnalyticsEventTracker_OnDisable_m1553012800
iyk:_glTexParameteri__wrapper
sQa:__ZN12CubemapArray23VirtualRedirectTransferER24GenerateTypeTreeTransfer
zka:__ZL49__ManagedRegistrationHelperFunction_RenderTexturePv
H8j:__ZN6il2cpp2os9Directory6CreateERKNSt3__212basic_stringIcNS2_11char_traitsIcEENS2_9allocatorIcEEEEPi
jxa:__ZN23TransformChangeDispatch32QueueTransformChangeIfHasChangedERK15TransformAccess
$Oe:_Assembly_get_FullName_m293988418
Utf:_Camera_get_pixelRect_Injected_m2326986893
B:tempValue
qjk:__ZN6il2cpp8metadata24Il2CppGenericContextHash4HashEPK20Il2CppGenericContext
F0e:_InternalEnumerator_1_get_Current_m356936020_AdjustorThunk
BXb:__ZN6Camera21RenderODSWorldTextureERK11CullResultsRK19SharedRendererSceneR17ShaderPassContextNS_10RenderFlagE
oSg:_Int32_ToString_m141394615_AdjustorThunk
U5:__Z29scripting_class_from_fullnamePKcS0_S0_
XUg:_Directory_GetCurrentDirectory_m219218555
Cyg:_SmallXmlParser_UnexpectedEndError_m1914362401
oA:__ZN26AnimatorControllerPlayable18DeallocateBindingsEv
Dlb:__ZN14DelayedDeletorI15dense_hashtableINSt3__24pairIK9TextureIDiEES3_14GfxGenericHashIS3_EN14GfxDoubleCacheIS3_iS7_NS1_8equal_toIS3_EEN31GfxDoubleCacheConcurrencyPolicy11LocklessGetE42GfxDoubleCacheDefaultEmptyDeletedGeneratorIS3_EE9SelectKeyESA_13stl_allocatorIS5_L18MemLabelIdentifier24ELi16EEEEclEv
UR:__ZN11AudioSource19CreateOpenALRolloffEfff
p3c:_UNITY_FT_Stream_ReadAt
Znj:_AudioSampleProvider_Dispose_m1993565764
fNh:_TimeSpan__ctor_m1896986612_AdjustorThunk
KEj:__ZN15dense_hashtableINSt3__24pairIK10KeyWrapperIN6il2cpp5utils13dynamic_arrayIPK10Il2CppTypeLj4EEEEPFvvEEESA_NS3_8metadata19Il2CppSignatureHashEN14dense_hash_mapISA_SD_SG_NSA_14EqualsComparerINSF_22Il2CppSignatureCompareEEENS0_9allocatorISE_EEE9SelectKeyESK_SM_E9set_valueEPSE_RKSE_
Ewg:_ArgumentException__ctor_m1216717135
xFf:_Ray_ToString_m1732834890_AdjustorThunk
LOc:__ZN9JSONWrite8TransferI13dynamic_arrayI5RectTIfELj0EEEEvRT_PKc17TransferMetaFlags
PPi:_List_1_System_Collections_IList_Contains_m3860993176_gshared
AV:__ZN11AudioModule22CreateAudioClipFromWWWEP10IWWWStreamPKcbbi
puc:__ZN9Texture2DC2E10MemLabelId18ObjectCreationMode
cKb:__Z17DebugStringToFileIA59_cEvRKT_iPKci15LogMessageFlagsiiPFvRK11CppLogEntryE
Ri:_emscripten_glRotatef
VQh:_UInt32_System_IConvertible_ToBoolean_m1763673183_AdjustorThunk
uxf:_UnityEvent_AddListener_m2276267359
hr:__Z9SetLocalR15TransformAccessRKN4math7_float4Ey
lIa:__ZN6prcoreL11inner_clearILj4EEEvPhjjj
Cyj:_NativeTypeAttribute__ctor_m1677513894
K0:__GLOBAL__sub_I_Runtime_SceneManager_0_cpp
Vek:_GC_initialize_offsets
kea:__ZNK8Playable6HandleEv
HNf:_SetPropertyUtility_SetColor_m2229203028
h8:__ZN14MessageHandler28MessageIDToMessageIdentifierEi
bYa:__ZNK11SpriteAtlas20GetRuntimeRenderDataEPK6Sprite
NUg:_FileSystemInfo__ctor_m3035148496
HRg:_Int32_System_IConvertible_ToDecimal_m2190376994_AdjustorThunk
rma:__ZL43__ManagedRegistrationHelperFunction_Vector4Pv
my:__ZN7mecanim14ValueArrayCopyILb0EEEvPKNS_10ValueArrayEPS1_
BJ:__Z51Register_UnityEngine_Animator_get_hasBoundPlayablesv
Dd:emscriptenWebGLGetUniform
ro:FUNCTION_TABLE_iiiiiiiiiii
fgj:_GUI_CallWindowDelegate_m3309453386
I1c:_cff_set_mm_blend
Q6b:__ZL10CleanUpJobP20CullingGroupsJobData
JUg:_DirectoryInfo_get_Exists_m3142069876
A_a:__ZN10MeshFilter23VirtualRedirectTransferER24GenerateTypeTreeTransfer
Mrc:__Z13RegisterClassI16LightmapSettingsEvPKc
KWb:__ZN13RenderManager15BatchModeUpdateEv
R4f:_X509Chain_get_CertificateAuthorities_m804805415
g1b:__Z14SetupLightmapsRK8Vector4fS1_R17ShaderPassContext
CHf:_Vector2_get_one_m738793577
lAc:__ZNK4Mesh14GetIndexFormatEv
xid:__ZN9Scripting11UnityEngine9Analytics21AnalyticsSessionState9InitProxyEv
r4j:__ZN14dense_hash_mapI10KeyWrapperIP12Il2CppObjectEN6il2cpp2gc9CachedCCWENS4_5utils11PointerHashIS1_EENS3_14EqualsComparerINSt3__28equal_toIS2_EEEENSB_9allocatorINSB_4pairIKS3_S6_EEEEE13set_empty_keyERSH_
gd:_glVertexAttribIPointer
$yf:_Input_GetAxisRaw_m2316819917
ulc:__ZNK6Sprite10GetPaddingE20SpriteRenderDataMode
Pdh:_Array_InternalArray__ICollection_Remove_TisUInt32_t2560061978_m733727733_gshared
Lof:_CryptographicException__ctor_m503735289
uWg:_Stream_EndRead_m1896469262
Eci:__Z93RuntimeInvoker_Boolean_t97287965_Int32_t2950945753_SByte_t1669577662_ExceptionU26_t3600731591PFvvEPK10MethodInfoPvPS4_
k_b:__ZN14qsort_internal5QSortIP15RODataDepthPassi17ROSorterDepthPassEEvT_S4_T0_T1_
_3c:_UNITY_ft_glyphslot_alloc_bitmap
VWh:_ReadOnlyCollection_1_System_Collections_IList_Add_m3642938800_gshared
Tjg:_RSASslSignatureDeformatter_SetHashAlgorithm_m895570787
r4:__ZL36TransformAccessArray_InitializeClassPv
v8i:_X509CrlEntry__ctor_m4013514048
xqi:__Z87RuntimeInvoker_Color_t2555686324_Color_t2555686324_Color_t2555686324_Single_t1397266774PFvvEPK10MethodInfoPvPS4_
O8c:_ft_raster1_render
LFc:__Z47Register_UnityEngine_Mesh_RecalculateBoundsImplv
aib:__ZN9GfxDevice27UpdateComputeSkinPoseBufferEP9GfxBufferP12SkinMeshInfo
Gok:__ZNKSt3__221__basic_string_commonILb1EE20__throw_length_errorEv
Yxh:_EqualityComparer_1_System_Collections_IEqualityComparer_Equals_m245992594_gshared
Ahh:_Array_InternalArray__IndexOf_TisParameterModifier_t1461694466_m1227120810_gshared
CRb:__ZN18GfxFramebufferGLES13ReadbackImageER14ImageReferenceiiiiii
BLc:__ZN5Unity9rapidjson6WriterI16TempBufferWriterNS0_4UTF8IcEES4_13JSONAllocatorE11WriteStringEPKcj
Cia:__ZN6prcoreL12RemapGenericI17TexFormatARGB888815TexFormatRGB565EEvPKNS_9InnerInfoE
fN:__ZN4FMOD7Channel19setReverbPropertiesEPK29FMOD_REVERB_CHANNELPROPERTIES
Rkj:_StandardEventPayload_GetParameters_m2672427676
IYg:_StreamReader_Dispose_m156389394
I7:__ZN13MonoBehaviour22GetScriptFullClassNameEv
fyc:__ZN13ProduceHelperI11MonoManagerLb0EE7ProduceE10MemLabelId18ObjectCreationMode
Q2i:_RIPEMD160Managed_JJ_m112143231
wZb:__ZN13BatchRendererC2ER15RenderLoopStatsRK15RenderNodeQueuebb
zgb:__ZNK16MemoryFileSystem9EnumerateEPKcP19dynamic_block_arrayI13FileEntryInfoLj32EEbPPv19FileEnumerationFlag
UEb:__ZN13MonoBehaviour9CallAwakeEv
$Ha:__ZN20SphericalHarmonicsL211AddWeightedERKS_f
Hfi:__Z82RuntimeInvoker_RuntimeObject_Int64_t3736567304_Int64_t3736567304_Int64_t3736567304PFvvEPK10MethodInfoPvPS4_
ztb:__Z19TransferField_ArrayI17RemapPPtrTransfer27Converter_SimpleNativeClassI8GUIStyleEEvRK23StaticTransferFieldInfoR31RuntimeSerializationCommandInfoRT0_
pMc:__ZN9JSONWrite8TransferI10ColorRGBAfEEvRT_PKc17TransferMetaFlags
Pnd:__ZN11UnityEngine9Analytics22EventLimitResumedEventC2EjRKN4core12basic_stringIcNS2_20StringStorageDefaultIcEEEEb
b8:__Z25scripting_method_get_name18ScriptingMethodPtr
ckg:_SslCipherSuite_ComputeKeys_m661027754
gDf:_Object_set_name_m291480324
w8g:_Decimal_Equals_m2486655999
Xek:_GC_exit_check
A3h:__ZN16VirtFuncInvoker2Ii19Color32_t2600501292S0_E6InvokeEjP12Il2CppObjectS0_S0_
D1b:__Z34SetupObjectBakedOcclusionInForwardbRK15SharedLightDataRK26SharedLightmapSettingsDataRK15LightmapIndicesR17ShaderPassContext
Kph:_DSAManaged_get_Random_m923751780
v4:__ZL29TransformAccessChangeCallbackPK15TransformAccessj
KLf:_Vector3_set_Item_m1772472431_AdjustorThunk
K7f:_Interpreter_PopulateGroup_m4042796257
zod:__ZN9Scripting11UnityEngine10Networking18CertificateHandler9InitProxyEv
hrd:__ZN9Scripting11UnityEngine12Experimental2XR13TrackableType9InitProxyEv
oPh:_Type_GetProperty_m3414567179
t$j:__ZN6il2cpp2vm13LivenessState25FieldCanContainReferencesEP9FieldInfo
Tac:__ZNSt3__26vectorINS_4pairIN4core12basic_stringIcNS2_20StringStorageDefaultIcEEEES6_EE13stl_allocatorIS7_L18MemLabelIdentifier38ELi16EEE6insertENS_11__wrap_iterIPKS7_EERSD_
gyf:_RenderPipelineManager_DoRenderLoop_Internal_m3799666479
CD:__ZN9BlobWrite8TransferI22OffsetPtrArrayTransferI9OffsetPtrIN7mecanim12statemachine18StateMachineMemoryEEEEEvRT_PKc17TransferMetaFlags
Sxc:__Z13RegisterClassI14PlayerSettingsEvPKc
df:_emscripten_glStencilOpSeparate
i0i:_Collection_1_System_Collections_IList_IndexOf_m3894953546_gshared
H6i:_PKCS12_get_Certificates_m26161562
s$f:_NameObjectCollectionBase_Init_m2525481323
C0b:__ZN15SkyboxGenerator28GetCubemapSkyboxVertexFormatEv
Nkb:__ZN19ShaderPropertySheet24SetTextureWithExplicitIDERK23FastTexturePropertyNameP7Texture9TextureID
XFh:_List_1_Insert_m1582252370_gshared
Hak:__ZN6il2cpp2vm6String8NewUtf16EPKDsi
Inf:_SByte_System_IConvertible_ToByte_m2268214252_AdjustorThunk
c8j:__ZN6il2cpp2os10ThreadImpl12QueueUserAPCEPFvPvES2_
Ldj:_RegularExpression__ctor_m119502265
cod:__ZN22BaseUnityConnectClient10QueueEventERN11UnityEngine15CloudWebService17CloudServiceEventEPKcjb
YUf:_DelegatePInvokeWrapper_RaycastAllCallback_t1884415901
_Yh:_ReadOnlyCollection_1_System_Collections_Generic_ICollectionU3CTU3E_Clear_m522482168_gshared
XTd:_ConstructionCall_InitMethodProperty_m2021094586
MDc:__Z27Texture_CUSTOM_GetDataWidthP12Il2CppObject
M6c:_UNITY_FT_Hypot
UEe:__ZL74CanvasScaler_t2767979955_CustomAttributesCacheGenerator_m_DefaultSpriteDPIP21CustomAttributesCache
SUj:_il2cpp_class_is_abstract
xf:_emscripten_glGetError
_Qj:__ZN15dense_hashtableINSt3__24pairIK10KeyWrapperIPK14Il2CppAssemblyEPK22Il2CppMonoAssemblyNameEES6_N6il2cpp5utils11PointerHashIS4_EEN14dense_hash_mapIS6_SA_SF_NS6_14EqualsComparerINS0_8equal_toIS5_EEEENS0_9allocatorISB_EEE9SelectKeyESK_SM_E14squash_deletedEv
hyg:_SmallXmlParser__ctor_m202236734
hO:__Z14FMOD_FILE_SeekPvjS_
gTf:_MaskableGraphic_OnDisable_m1757789159
lJa:__ZN7TextureC2E10MemLabelId18ObjectCreationMode
XQf:_LayoutGroup__ctor_m2162961217
gid:__Z56Register_UnityEngine_Analytics_CustomEventData_AddStringv
qfd:__ZZN2UI6Canvas15InitializeClassEvEN39FunctorImpl_1449kCanvasHierarchyChanged4CallEPviR11MessageData
$7b:__ZNK13RenderTexture32CalculateNeedsInvertedProjectionEv
edc:__ZN10systeminfo18GetOperatingSystemEv
Ff:emscriptenWebGLGet
waa:__Z19CanReplaceComponentRN5Unity9ComponentEPKNS_4TypeEPN4core12basic_stringIcNS5_20StringStorageDefaultIcEEEE
pJe:_UnmanagedMemoryStream_Flush_m1540584491
FPg:_GuidParser_ParseGuid2_m1914838819
awc:__ZN12CubemapArray11InitTextureEiii13TextureFormatb
c3d:__ZL70ReliabilityContractAttribute_t502331440_CustomAttributesCacheGeneratorP21CustomAttributesCache
pXe:_InternalEnumerator_1_System_Collections_IEnumerator_get_Current_m55999184_gshared
YDd:_Graphic_get_depth_m815589653
Hfj:_Event_set_displayIndex_m1342258734
uRf:_LayoutGroup_SetLayoutInputForAxis_m2458344630
jE:__ZN7mecanim5human13HumanFixTwistEPKNS0_5HumanEPNS_8skeleton13SkeletonPoseTIN4math4trsXEEES9_iiRKf
q1b:__ZL24AssignProjectorQueuesJobP30AssignProjectorQueuesJobHeader
QMd:_ParameterModifier_t1461694466_marshal_pinvoke
ujc:__ZNSt3__26vectorIN9ShaderLab20SerializedSubProgram15StructParameterENS_9allocatorIS3_EEE21__push_back_slow_pathIS3_EEvOT_
QQg:_Int16_System_IConvertible_ToUInt32_m3410279543
hjc:__ZN9ShaderLab20SerializedSubProgram14SetConstBufferEPKci
RLj:__ZN6il2cpp2os4File5CloseEPNS0_10FileHandleEPi
qEj:__ZNSt3__27__sort5IRN6il2cpp5utils11collections13ArrayValueMapIPK10Il2CppType17Il2CppInteropData26InteropDataToTypeConverterNS1_8metadata14Il2CppTypeLessENSA_26Il2CppTypeEqualityComparerEE12SortComparerEPS8_EEjT0_SH_SH_SH_SH_T_
Y_c:_cf2_getStdVW
zQh:_UInt16_CompareTo_m2664746316_AdjustorThunk
Ygb:__ZN9GfxDevice13SetActiveTierE12GraphicsTier
bRc:__Z29Transfer_Blittable_ArrayFieldI8JSONReadjEvRT_R9ArrayInfoRK23StaticTransferFieldInfo
bfk:_GC_check_finalizer_nested
lg:__setLetterbox
lXf:_ScrollRect_OnScroll_m3861066534
Nhf:_Dictionary_2_ToTKey_m224697230_gshared
Epe:__ZL72FormerlySerializedAsAttribute_t2859083114_CustomAttributesCacheGeneratorP21CustomAttributesCache
WMf:_OnValidateInput_Invoke_m1009124904
Aaj:_PatternCompiler_EmitFastRepeat_m3012952683
J$a:__ZNSt3__26vectorI17BlendShapeChannelNS_9allocatorIS1_EEE6assignINS_11__wrap_iterIPS1_EEEENS_9enable_ifIXaasr21__is_forward_iteratorIT_EE5valuesr16is_constructibleIS1_NS_15iterator_traitsISA_E9referenceEEE5valueEvE4typeESA_SA_
dKb:__Z12SetGfxDeviceP9GfxDevice
Zcc:__ZN11TimeManager11GetRealtimeEv
DO:__ZN29AudioEffectInternalDefinitionC2EP26UnityAudioEffectDefinitionb
Z1h:_ReadOnlyCollection_1_System_Collections_IList_Remove_m2434650390_gshared
SQh:_UInt16_ToString_m3056878594_AdjustorThunk
H8f:_Interval_get_IsSingleton_m3386290029
lUj:__ZNSt3__2plIcNS_11char_traitsIcEENS_9allocatorIcEEEENS_12basic_stringIT_T0_T1_EERKS9_PKS6_
AJf:_Time_get_unscaledDeltaTime_m4270080131
Mld:__ZN18UnityConnectClient27OnPlayerSessionStateChangedEjyy
_Oa:_stbir_resize
Ogh:_Array_IndexOf_TisCustomAttributeTypedArgument_t2723150157_m3158556463_gshared
zbh:_Environment_GetOSVersionString_m407782784
Qug:_DecoderExceptionFallback_Equals_m1082173956
I1d:__ZL69Assembly_t_CustomAttributesCacheGenerator_Assembly_GetName_m981771927P21CustomAttributesCache
Yka:__ZL59__ManagedRegistrationHelperFunction_AsyncGPUReadbackRequestPv
$ie:__ZL93Mesh_t3648964284_CustomAttributesCacheGenerator_Mesh_GetAllocArrayFromChannelImpl_m3084065604P21CustomAttributesCache
Oeb:__Z37ReadDirectoryInfo_UnityWebAndUnityRawR12FileAccessorRKN20ArchiveStorageHeader6HeaderERNS1_13DirectoryInfoE
I4:__ZNSt3__26__treeINS_12__value_typeIPKciEENS_19__map_value_compareIS3_S4_15compare_tstringIS3_ELb1EEENS_9allocatorIS4_EEE7destroyEPNS_11__tree_nodeIS4_PvEE
Skh:_Array_InternalArray__Insert_TisIntPtr_t_m189626842_gshared
W3f:_X509Certificate2_get_IssuerName_m1277209535
p2i:_RijndaelManaged_CreateEncryptor_m263736311
h_b:__ZN20DynamicPropertySheet14SetValueQueuedEN9ShaderLab16FastPropertyNameEN19ShaderPropertySheet12PropertyTypeEjNS2_8SetFlagsE
$wf:_InvokableCallList_ClearPersistent_m1904264973
cGb:__ZN25PathNamePersistentManagerD2Ev
F5a:__ZN17PersistentManager48IntegrateObjectAndUnlockIntegrationMutexInternalEi
Zga:__ZZ29InitializeSortingGroupManagerPvEN44PostLateUpdateSortingGroupsUpdateRegistrator7ForwardEv
Cye:__ZL55EventTrigger_t1076084509_CustomAttributesCacheGeneratorP21CustomAttributesCache
Upg:_SecurityElement_SearchForChildByTag_m900466299
zp:__ZN6Object12SetHideFlagsENS_9HideFlagsE
o3g:_Convert_ToSingle_m3227075028
fvk:_emscripten_glGetFramebufferAttachmentParameteriv__wrapper
p7b:__ZN13RendererScene15InitializeUmbraEv
mGa:__Z28CalculateGlobalMatrixInverse23TransformAccessReadOnly
DAh:_GenericEqualityComparer_1_Equals_m3457564127_gshared
J9f:_BigInteger_ModInverse_m2426215562
Mug:_DecoderExceptionFallback__ctor_m4044614564
uJe:_LocalDataStoreSlot__cctor_m644942532
ojk:__ZN6il2cpp6icalls8mscorlib6System6Object7GetTypeEP12Il2CppObject
NLd:_MonoProperty_CachePropertyInfo_m2968057423
Hod:__ZNK25UnityWebRequestJavaScript18GetDownloadedBytesEv
vFf:_Ray_GetPoint_m1852405345_AdjustorThunk
gIb:__Z21BeginSplashScreenFadev
Tod:__ZN12HeaderHelper14SetUnvalidatedERKN4core12basic_stringIcNS0_20StringStorageDefaultIcEEEES6_b
LM:__ZN4FMOD6SoundI7releaseEv
z0c:_cff_parse_num
qfb:__ZN10MemoryFile9SetLengthEy
Fvb:__ZN5RectTIiE8TransferI24GenerateTypeTreeTransferEEvRT_
XKg:_Exception_get_ClassName_m2428844642
xFb:__Z28scripting_class_is_interface17ScriptingClassPtr
Ch:_glTexStorage2D
DMg:_CultureInfo_ConstructInternalLocaleFromName_m4012802696
PLa:__ZNK9ShaderLab10SubProgram14EnsureCompiledEv
MUe:_MethodBuilder_GetGenericArguments_m1765425737
V5g:_DateTime_CompareTo_m3687348273
Sdk:_GC_push_marked
s6g:_DateTime_ToUniversalTime_m1945318289_AdjustorThunk
c2g:_Convert_ToInt16_m1336719169
T7:__Z18BuildScriptClassId17ScriptingClassPtr
Ytj:_TextGenerator_Init_m1168488231
_cb:__ZL31DeleteLastPathNameComponentImplRKN4core12basic_stringIcNS_20StringStorageDefaultIcEEEEPKc
l7g:_DBNull_System_IConvertible_ToUInt64_m4072736670
Pid:__ZN18UnityConnectClient15GetCloudServiceEv
jrb:__Z29Transfer_Blittable_ArrayFieldI14SafeBinaryRead5RectTIiEEvRT_R9ArrayInfoRK23StaticTransferFieldInfo
E$e:_InternalEnumerator_1_get_Current_m2698009637_gshared
THj:__ZN6il2cpp2os19SocketHandleWrapperD2Ev
rFb:__ZL28SerializationCommandGroupForRK31TransferFunctionScriptingTraits17ScriptingClassPtr17ScriptingFieldPtrRK20CoreScriptingClasses
rva:__ZN10TagManager32RegisterDefaultTagsAndLayerMasksEv
$Mh:_WaitHandle_Dispose_m738127030
Kli:__Z50RuntimeInvoker_Double_t594665363_Int32_t2950945753PFvvEPK10MethodInfoPvPS4_
Iui:__Z104RuntimeInvoker_Void_t1185182177_Color_t2555686324_Single_t1397266774_SByte_t1669577662_SByte_t1669577662PFvvEPK10MethodInfoPvPS4_
LEh:_Enumerator_System_Collections_IEnumerator_get_Current_m1540440674_gshared
Qqg:_Single_System_IConvertible_ToInt16_m809233024_AdjustorThunk
iid:__Z56Register_UnityEngine_Analytics_CustomEventData_AddUInt32v
Tmk:_fmodf
$ka:__ZL47__ManagedRegistrationHelperFunction_CullResultsPv
JOb:__ZN4gles8InitCapsEP7ApiGLESP12GraphicsCapsR16GfxDeviceLevelGL
qPa:__ZN6prcore14BlitImageFloatERK14ImageReferenceRS0_NS0_8BlitModeE
HHa:__Z24CalculateVertexLightDataRK15SharedLightDataR14GfxVertexLight
ki:_glEnable
mPj:__ZN15dense_hashtableINSt3__24pairIK10KeyWrapperINS1_IPK12PropertyInfoP11Il2CppClassEEEjEES9_17ReflectionMapHashIS8_EN14dense_hash_mapIS9_jSD_NS9_14EqualsComparerINS0_8equal_toIS8_EEEENS0_9allocatorISB_EEE9SelectKeyESI_SK_E15insert_noresizeERKSB_
Ypa:__ZN9Scripting11UnityEngine33ExcludeFromObjectFactoryAttribute12CleanupProxyEv
LLa:__ZNK9ShaderLab7Program28BeginReadUnsupportedVariantsEv
cta:__ZN12CachedWriter11Align4WriteEv
i4a:__ZNSt3__26vectorIN30RuntimeInitializeOnLoadManager9ClassInfoE13stl_allocatorIS2_L18MemLabelIdentifier13ELi16EEE7reserveEj
BMc:__Z35Transfer_Blittable_FixedBufferFieldI9JSONWriteiEvRK29SerializationCommandArgumentsR31RuntimeSerializationCommandInfo
TAh:_Enumerator__ctor_m1590062855_AdjustorThunk
YRj:__ZN14dense_hash_mapI10KeyWrapperINSt3__24pairIPK10MethodInfoP11Il2CppClassEEEj17ReflectionMapHashIS8_ENS9_14EqualsComparerINS1_8equal_toIS8_EEEENS1_9allocatorINS2_IKS9_jEEEEEC2EjRKSB_RKSF_
gA:__ZN26AnimatorControllerPlayable17ProcessRootMotionEP35AnimationPlayableEvaluationConstantP32AnimationPlayableEvaluationInputP33AnimationPlayableEvaluationOutput
TIe:_UnexceptionalStreamReader_Peek_m1842169584
Tjd:__ZN11UnityEngine7Connect15DeviceInfoEvent16CollectExtraInfoEv
itf:_Bounds_GetHashCode_m1844059663_AdjustorThunk
apf:_CryptographicException__ctor_m1422015889
hMf:_Vector4_Equals_m1779210055_AdjustorThunk
x4g:_Convert_ChangeType_m739676612
OUb:__ZN20ArchiveStorageReader10InitializeER15FileSystemEntryyb
Wbk:__ZThn8_N6il2cpp2vm13CachedCCWBaseINS0_13ManagedObjectEE6AddRefEv
RHd:_TypeBuilder_CreateType_m3375483507
Qnh:_ModulusRing_BarrettReduction_m167376748
ajf:_RemotingServices_GetRealProxy_m2081098851
rph:_BlockProcessor_Core_m189015002
nvk:_emscripten_glScissor__wrapper
vo:FUNCTION_TABLE_viifi
wo:FUNCTION_TABLE_viiff
Gxg:_X501__cctor_m1166912714
EZd:__ZL37Type_t_CustomAttributesCacheGeneratorP21CustomAttributesCache
it:__ZN9Scripting11UnityEngine14AnimationState9InitProxyEv
Ktf:_Bounds_ToString_m4208690781
XSj:__ZN6il2cpp2vm14TypeNameParser5ParseEb
SJe:_Math_Sqrt_m1297338011
YYg:_StreamWriter_Initialize_m3490883444
BPh:_Type_GetGenericArguments_m3500465462
rHj:__ZN15dense_hashtableINSt3__24pairIK10KeyWrapperIP9FieldInfoEiEES5_N6il2cpp5utils11PointerHashIS3_EEN14dense_hash_mapIS5_iSB_NS5_14EqualsComparerINS0_8equal_toIS4_EEEENS0_9allocatorIS7_EEE9SelectKeyESG_SI_E12resize_deltaEjj
und:__ZN23UnityPurchasingSettingsC2Ev
VJd:_Module_IsDefined_m2423524910
IRe:_DerivedType_create_unmanaged_type_m747846525
Uue:__ZL60EventType_t3528516131_CustomAttributesCacheGenerator_repaintP21CustomAttributesCache
gAa:__ZN17GPUFenceInternals7ReleaseEv
UDe:__ZL66Selectable_t3250028441_CustomAttributesCacheGenerator_m_NavigationP21CustomAttributesCache
rAc:__ZN17MaterialScripting18CreateWithMaterialE21ScriptingObjectOfTypeI8MaterialEPS1_
a8b:__ZL10RenderFaceR9GfxDeviceR18MaterialStateCacheP13RenderTextureiif
Ngh:_Array_IndexOf_TisCustomAttributeNamedArgument_t287865710_m2817957199_gshared
fYh:_ReadOnlyCollection_1_System_Collections_IList_RemoveAt_m1980090087_gshared
W5i:_ExtendedKeyUsageExtension_ToString_m2116504780
M8a:__ZNK5Unity9Component38MarkGameObjectAndComponentDependenciesER27GarbageCollectorThreadState
mUg:_BinaryReader_Read_m3708759962
s8:__ZNK11TypeManager15ClassNameToRTTIEPKcb
Cka:__ZL57__ManagedRegistrationHelperFunction_DefaultExecutionOrderPv
oOb:__ZN9GfxDevice26CreateDefaultVertexBuffersEv
Hwk:_emscripten_glVertexAttrib2fv__wrapper
dIe:_SynchronizedReader_ReadToEnd_m2160105378
dah:_Double_System_IConvertible_ToUInt16_m4132603953_AdjustorThunk
aSa:__ZN4crnd12symbol_codec32decode_receive_static_data_modelERNS_25static_huffman_data_modelE
Puc:__ZN18ScriptingArguments8AddFloatEf
bGd:_Image_set_fillOrigin_m469806249
Hjd:__ZN11UnityEngine15PlatformWrapper16GetVRRenderScaleEv
BNc:__Z18Transfer_BlittableI9JSONWriteLb0EaEvRK29SerializationCommandArgumentsR31RuntimeSerializationCommandInfo
WX:__ZN11UnityEngine15CloudWebService14DataDispatcher34OnSessionContainerArchivedAndReadyERNS0_16SessionContainerE
mCf:_ConnectionChangeEvent__ctor_m764126802
nNd:_ResolveEventHandler_Invoke_m1337322179
DDh:_Enumerator_VerifyState_m2621680056_gshared
Fej:_UriParser_InternalRegister_m3643767086
zec:__ZN14SafeBinaryRead19TransferSTLStyleMapINSt3__23mapIN4core12basic_stringIcNS3_20StringStorageDefaultIcEEEEiNS1_4lessIS7_EENS1_9allocatorINS1_4pairIKS7_iEEEEEEEEvRT_17TransferMetaFlags
o5c:_gray_move_to
h7g:_DBNull_System_IConvertible_ToSingle_m13713620
HFg:_Char_ToLowerInvariant_m1926695830
bYh:_ReadOnlyCollection_1_System_Collections_IList_Contains_m1327645028_gshared
oGd:_Image_GetDrawingDimensions_m3060965396
Lse:__ZL69FontTextureRebuildCallback_t2467502454_CustomAttributesCacheGeneratorP21CustomAttributesCache
UPh:_TypeLoadException__ctor_m1154572625
QCc:__Z30RegisterValidateMethodCallbackiPF18ScriptingMethodPtrS_17ScriptingClassPtrP6ObjectEPKc
xNa:__ZNSt3__27__sort4IRPFbRKNS_4pairIN9ShaderLab16FastPropertyNameE10ColorRGBAfEES7_EPS5_EEjT0_SC_SC_SC_T_
ghg:_Context_get_WriteSequenceNumber_m1115956887
vJi:_Dictionary_2_Do_ICollectionCopyTo_TisKeyValuePair_2_t2401056908_m1169495264_gshared
pVe:_OpCodes__cctor_m3821715395
aAd:_ContentSizeFitter__ctor_m2349275633
E4c:_tt_cmap_init
URc:__ZN8JSONRead8TransferI9BoundsIntEEvRT_PKc17TransferMetaFlagsb
mb:invoke_viidi
Afb:__ZN25SingleBlockMemoryFileData9SetLengthEy
WHi:_Array_Sort_TisOrderBlock_t1585977831_m2922111197_gshared
PDd:_Graphic_OnRectTransformDimensionsChange_m3695755375
Knf:_SByte_System_IConvertible_ToChar_m1489191771_AdjustorThunk
BM:__ZN9AudioClip7CleanupEv
Nxc:__Z13RegisterClassI18DelayedCallManagerEvPKc
tYj:__ZNK15dense_hashtableINSt3__24pairIK10KeyWrapperIP11Il2CppClassES4_EES5_N6il2cpp8metadata16SZArrayClassHashEN14dense_hash_mapIS5_S4_SA_NS5_14EqualsComparerINS9_19SZArrayClassCompareEEENS0_9allocatorIS7_EEE9SelectKeyESE_SG_E12test_deletedEj
m2g:_Convert_ToInt16_m1223489986
vQc:__Z18Transfer_BlittableI8JSONReadLb0EdEvRK29SerializationCommandArgumentsR31RuntimeSerializationCommandInfo
dTd:_SynchronizationAttribute_EnterContext_m1660729920
Guj:_Canvas_get_referencePixelsPerUnit_m3420541976
Ffj:_Event_get_current_m2393892120
Ylj:_VertexHelper_Clear_m627349662
RIj:__ZN6il2cpp2vm21ThreadPoolCompartment13QueueWorkItemEP17Il2CppAsyncResult
thb:__ZNK9GfxDevice13GetViewMatrixEv
qJe:_UnmanagedMemoryStream_Dispose_m2681886347
L7a:__ZN17RemapPPtrTransferC2E24TransferInstructionFlagsb
v1g:_Convert_ToDecimal_m889385228
v9:__ZN8TypeTree8BlobReadERPKhS1_ib
GBg:_Array_Reverse_m3714848183
jCd:_Dropdown_ClearOptions_m4085591601
nzd:_CanvasUpdateRegistry_InternalRegisterCanvasElementForGraphicRebuild_m3522560454
S5a:__ZN18LoadSceneOperation23GetAllowSceneActivationEv
lya:__ZN6CameraD0Ev
yz:__ZN7mecanim12AndValueMaskILb0EEEvPKNS_14ValueArrayMaskEPS1_
Y3a:__ZN14SafeBinaryRead21TransferSTLStyleArrayINSt3__26vectorIi13stl_allocatorIiL18MemLabelIdentifier13ELi16EEEEEEvRT_17TransferMetaFlags
wvg:_EncoderFallback__cctor_m3806755293
pZc:_raccess_guess_apple_double
hQb:__ZL18ProgramUniform1uivPK7ApiGLESjiihPKv
jwc:__ZN14Texture2DArray13RebuildMipMapEv
qBj:__ZN13Il2CppHashSetIPK17Il2CppGenericInstN6il2cpp8metadata21Il2CppGenericInstHashENS4_24Il2CppGenericInstCompareENSt3__29allocatorI10KeyWrapperIS2_EEEEC2EjRKS5_RKS6_
hpb:__Z18Transfer_BlittableI14SafeBinaryReadLb1EaEvRK29SerializationCommandArgumentsR31RuntimeSerializationCommandInfo
W6j:__ZN6il2cpp2gc16GarbageCollector14RemoveWeakLinkEPPv
ijc:__ZN9ShaderLab20SerializedSubProgram14AddVectorParamEPKcii15ShaderParamTypei
pPi:_List_1_GetEnumerator_m563931292_gshared
$ed:__ZN2UI14CanvasRenderer12CleanupClassEv
F_g:_Enumerator__ctor_m3362421874
I3j:__ZN6il2cpp2vm6Object3BoxEP11Il2CppClassPv
TWj:__ZN6il2cpp2vm6Thread7SetNameEP12Il2CppThreadP12Il2CppString
pZ:__ZN11UnityEngine15CloudWebService10RestClientINS0_23WebRequestRestHeaderMapEE16SetRequestHeaderERKN4core12basic_stringIcNS4_20StringStorageDefaultIcEEEESA_
b4a:__ZN30RuntimeInitializeOnLoadManager15ClassMethodInfo8TransferI14SafeBinaryReadEEvRT_
PTd:_ConstructionCall_InitDictionary_m2824447813
wW:__ZL22InitializeModule_Audiov
lgb:__ZN16MemoryFileSystem8IsLockedERK13FileEntryData
YZj:__ZN6il2cpp6icalls8mscorlib6System2IO6MonoIO5WriteEiP11Il2CppArrayiiPi
AAf:_Mathf_InverseLerp_m4155825980
Xii:__Z92RuntimeInvoker_RuntimeObject_RuntimeObject_RuntimeObject_SByte_t1669577662_SByte_t1669577662PFvvEPK10MethodInfoPvPS4_
_k:_emscripten_glBindRenderbuffer
bNi:_List_1_System_Collections_IList_Insert_m1011775503_gshared
Sek:_GC_dirty_init
n2j:__ZN6il2cpp2vm5Image33GetCachedMemoryMappedResourceFileEP24Il2CppReflectionAssembly
E2j:__ZN6il2cpp2vm5Field14GetValueObjectEP9FieldInfoP12Il2CppObject
Mcd:__ZNK2UI6Canvas16GetTargetDisplayEv
fid:__Z63Register_UnityEngine_Analytics_CustomEventData_Internal_Destroyv
JNh:_TimeSpan_CompareTo_m3633415627_AdjustorThunk
OEb:__ZN13MonoBehaviour17RemoveFromManagerEv
ILf:_Vector3_get_Item_m668685504_AdjustorThunk
$ya:__ZN12ImageFilters14AddImageFilterERK11ImageFilter
$Rd:_Context_NotifyDynamicSinks_m1841702879
ngj:_GUIUtility_get_pixelsPerPoint_m2369948084
Gpg:_WindowsIdentity_System_Runtime_Serialization_IDeserializationCallback_OnDeserialization_m3428853631
b1:__ZN13MemoryManagerC2Ev
F0a:__ZN12SkinMeshInfo10DeallocateEPS_
OWf:_ScrollRect_SetDirty_m214267968
XCi:__Z74RuntimeInvoker_Int32_t2950945753_UIVertex_t4057497605_UIVertex_t4057497605PFvvEPK10MethodInfoPvPS4_
Ffb:__ZN20ArchiveStorageReader28AcquireAndPrefillUnusedBlockEjPNS_11CacheResultE
dDg:_Boolean_System_IConvertible_ToDateTime_m603510836
ewc:__Z12NHxRoughnessIA4_tEvP9Texture2DPT_iiii
Uoh:_ASN1_get_Value_m1857007406
cX:__Z6simd4iiiii
yab:__ZN9Transform5ResetEv
r2g:_Decimal_op_Explicit_m1842265407
Vvb:__Z22TransferField_NonArrayI24GenerateTypeTreeTransfer16Converter_StringEvRK23StaticTransferFieldInfoR31RuntimeSerializationCommandInfoRT0_
Ska:__ZL47__ManagedRegistrationHelperFunction_FixedUpdatePv
wvj:_CanvasRenderer_SetAlphaTexture_m2009567627
c1c:_UNITY_FT_CMap_New
BYe:_InternalEnumerator_1_get_Current_m4241643334_AdjustorThunk
jHb:__Z17MainLoopKeepalivePv
H2e:_InternalEnumerator_1_get_Current_m1588647567_AdjustorThunk
Ylk:_printf_core
o3d:__ZL51GCHandle_t3351438187_CustomAttributesCacheGeneratorP21CustomAttributesCache
wNf:_InputField_get_caretBlinkRate_m3620074524
Blg:_RSAPKCS1SignatureFormatter_CreateSignature_m3191980616
ELa:__ZN10builtintex16GetDefaultTexEnvE16TextureDimensionb
qSb:__ZL25CheckCopyTextureArgumentsRK7ApiGLESP11GLESTextureS3_
wzk:_glDeleteShader__wrapper
Zea:__ZNK15PlayableMethods18InvokeOnGraphStartER18ScriptingObjectPtrRK9HPlayable
rvb:__Z29Transfer_Blittable_ArrayFieldI24GenerateTypeTreeTransferyEvRT_R9ArrayInfoRK23StaticTransferFieldInfo
vN:__ZN4FMOD7SystemI9playSoundE17FMOD_CHANNELINDEXPNS_5SoundEbPPNS_7ChannelE
cTg:_Int64_GetHashCode_m703091690
Zla:__ZL60__ManagedRegistrationHelperFunction_ReflectionProbeBlendInfoPv
Sfj:_Event_get_commandName_m4275147343
xz:__ZN27AnimationLayerMixerPlayable17LayerMixerProcessEP35AnimationPlayableEvaluationConstantP32AnimationPlayableEvaluationInputP33AnimationPlayableEvaluationOutputM17AnimationPlayableFvS1_S3_S5_EMS_FvS1_S3_S5_ESA_MS_FvS5_S1_S3_S5_ifE
A1g:_Decimal_op_Implicit_m4256234411
ZL:__ZN12AudioManager23VirtualRedirectTransferER18StreamedBinaryReadILb0EE
zfi:__Z60RuntimeInvoker_RuntimeObject_RuntimeObject_Int16_t2552820387PFvvEPK10MethodInfoPvPS4_
EYg:_StreamReader__ctor_m3941437302
rqc:__Z57Register_UnityEngine_Transform_INTERNAL_get_localRotationv
fsk:dynCall_viif
Bu:__ZN7mecanim4hand8HandPoseC2Ev
Krc:__Z13RegisterClassIN5Unity9ComponentEEvPKc
ZHe:_StringReader_ReadLine_m2337102945
Zsb:__ZL26Transfer_SimpleNativeClassI17RemapPPtrTransfer8GradientLb0EEvRK29SerializationCommandArgumentsR31RuntimeSerializationCommandInfo
xie:__ZL49Shader_t4151988712_CustomAttributesCacheGeneratorP21CustomAttributesCache
iB:__ZN17AnimationPlayable26DisconnectNoTopologyChangeEPS_i
CDg:_Boolean_Equals_m2410333903_AdjustorThunk
zTi:_List_1_System_Collections_IList_Contains_m2131605266_gshared
k_:__ZN13UploadHandlerD2Ev
YJ:__GLOBAL__sub_I_Modules_AssetBundle_Public_1_cpp
Gqk:dynCall_viiiiiffi
Mkk:_Hacker__ctor_m518604791
wc:_emscripten_glBlendFuncSeparate
r0i:_Collection_1_Add_m809543251_gshared
B5:__Z20scripting_string_newPKc
Qdj:_Parser_IsSingleline_m326238187
dJg:_CollectionBase_get_Count_m1708965601
xqf:_HMAC__ctor_m97939284
hTh:_ValueType_DefaultEquals_m2927252100
gMc:__ZN9JSONWrite12AppendToNodeEPN5Unity9rapidjson12GenericValueINS1_4UTF8IcEE13JSONAllocatorEEPKcRS6_
$oh:_ASN1_ToString_m1340204511
t4f:_X509ChainElementEnumerator_get_Current_m1301774989
X4f:_X509Store_get_Certificates_m2149701265
hPh:_Type_GetField_m2961003358
rAe:__ZL144StandaloneInputModule_t2760469101_CustomAttributesCacheGenerator_StandaloneInputModule_t2760469101____allowActivationOnMobileDevice_PropertyInfoP21CustomAttributesCache
yqa:__ZN9Scripting11UnityEngine13ComputeBuffer12CleanupProxyEv
FIh:_StringBuilder_set_Chars_m3548656617
JLj:__ZN6il2cpp2os4File17GetFileAttributesERKNSt3__212basic_stringIcNS2_11char_traitsIcEENS2_9allocatorIcEEEEPi
UE:__ZNSt3__26__sortIRPFbPKN8Animator11AnimatorJobES4_EPS4_EEvT0_S9_T_
tT:__ZN17AudioCustomFilterD2Ev
Zzi:__Z56RuntimeInvoker_Void_t1185182177_MonoResource_t4103430009PFvvEPK10MethodInfoPvPS4_
Lck:_GC_unpromote_black_lists
TJ:__ZN9Scripting11UnityEngine2XR5Tango9GridIndex9InitProxyEv
mRb:__ZN18GfxFramebufferGLES18ReleaseFramebufferEP17RenderSurfaceBaseP14GfxContextGLES
lPc:__Z18Transfer_BlittableI8JSONReadLb1EiEvRK29SerializationCommandArgumentsR31RuntimeSerializationCommandInfo
O_:__ZN19CloudServiceHandler34HandleSaveFileWebRequestPlayerLoopEv
WA:__ZN7mecanim21ValueArrayReverseCopyEPKNS_18ValueArrayConstantEPKNS_10ValueArrayES2_PS3_PKi
Eqd:__ZL47__ManagedRegistrationHelperFunction_XRNodeStatePv
MS:__Z31GetParentSampleClipFromInstancePN11SoundHandle8InstanceE
nsc:__ZNK28RectTransformPropertyBinding13GetFloatValueERKN11UnityEngine9Animation10BoundCurveE
x8b:__ZN6Camera22StandaloneCustomRenderENS_10RenderFlagEP6ShaderRKN4core12basic_stringIcNS3_20StringStorageDefaultIcEEEEPNS_21PerformRenderFunctionE
ghh:_Array_InternalArray__IndexOf_TisKeyValuePair_2_t2401056908_m4118889689_gshared
a5a:__ZNSt3__26vectorI4PPtrI6ObjectE13stl_allocatorIS3_L18MemLabelIdentifier52ELi16EEE6assignINS_11__wrap_iterIPS3_EEEENS_9enable_ifIXaasr21__is_forward_iteratorIT_EE5valuesr16is_constructibleIS3_NS_15iterator_traitsISD_E9referenceEEE5valueEvE4typeESD_SD_
Jjk:__ZN6il2cpp2os16ThreadLocalValue8GetValueEPPv
_3f:_X509Certificate2_get_PublicKey_m370665820
hGj:__ZN6il2cpp2vm13MetadataCache14GetGenericInstEPKPK10Il2CppTypej
cU:__ZN13AudioListener17ReadExtensionNameEi
Zc:_glUniform1uiv
Cld:__ZN11UnityEngine7Connect20RemoteConfigSettings35CallConfigUpdatedOnMainThreadStaticEPS1_
ap:setThrew
Gkg:_SslClientStream_OnLocalPrivateKeySelection_m1934775249
Yvc:__ZL21BuildEmptyCubeTexturePKci11ColorRGBA3217TextureColorSpace
DEg:_Byte_ToString_m721125428
Cec:__ZN14SafeBinaryRead21TransferSTLStyleArrayINSt3__26vectorIN9ShaderLab20SerializedSubProgramENS1_9allocatorIS4_EEEEEEvRT_17TransferMetaFlags
Fhh:_Array_InternalArray__IndexOf_TisX509ChainStatus_t133602714_m48896230_gshared
adb:__ZN19dynamic_block_arrayI13FileEntryInfoLj32EE4growEj
uPc:__Z15Transfer_StringI8JSONReadLb1EEvRK29SerializationCommandArgumentsR31RuntimeSerializationCommandInfo
n6a:__ZN16LightmapSettings15AppendLightmapsEiRK13dynamic_arrayI12LightmapDataLj0EE
tha:__ZN6prcoreL17RemapGenericFloatI17TexFormatRGBFloat15TexFormatRGHalfEEvPKNS_9InnerInfoE
s3c:_sfnt_load_face
AYc:_UNITY_FT_Render_Glyph_Internal
I_j:__ZNSt3__212basic_stringIDsNS_11char_traitsIDsEENS_9allocatorIDsEEE21__grow_by_and_replaceEjjjjjjPKDs
s1c:_UNITY_ft_service_list_lookup
_Ic:__ZN5IMGUI21SelectReceivingWindowER8GUIStateb
Nqf:_HMAC_Initialize_m3157696427
_mk:___strchrnul
k2:__ZN13BaseAllocator13TryDeallocateEPv
T2f:_X509SubjectKeyIdentifierExtension__ctor_m2055934916
dLc:__ZN9Scripting19UnityEngineInternal5Input17NativeInputSystem9InitProxyEv
Olj:_Toggle_OnSubmit_m1320104356
Ulk:_sprintf
Qjc:__ZN9Scripting25CreateNullExceptionObjectE18ScriptingObjectPtr
brh:_PrivateKeyInfo_DecodeRSA_m2889346634
gT:__ZN13AudioListener17RemoveFromManagerEv
sd:_glAttachShader
lAd:_ContentSizeFitter_SetLayoutHorizontal_m2833273874
$Wh:_ReadOnlyCollection_1_System_Collections_IList_RemoveAt_m134366701_gshared
Yxa:__ZNK6Camera19GetProjectionMatrixEv
DCe:__ZL70InputField_t3762917431_CustomAttributesCacheGenerator_m_SelectionColorP21CustomAttributesCache
YNf:_InputField_SetToCustomIfContentTypeIsNot_m2813459946
qhe:__ZL70RuntimePlatform_t4159857903_CustomAttributesCacheGenerator_FlashPlayerP21CustomAttributesCache
_Pg:_Guid_GetHashCode_m3042133858_AdjustorThunk
ssa:__Z38PreallocateObjectFromPersistentManagerib
S7f:_Interpreter_Backtrack_m2828876822
XQa:__ZNK9Texture2D20GetUnscaledTextureIDEv
_nf:_SByte_System_IConvertible_ToType_m4075253447
csh:_StrongName_get_PublicKey_m1841537984
Oxk:_glFenceSync__wrapper
AKf:_Transform_INTERNAL_get_worldToLocalMatrix_m2730237241
drg:_Single_System_IConvertible_ToUInt64_m3299129161
aRa:__ZNK9Texture2D26CanReuploadDataToGfxDeviceEv
R7d:__ZL63CodeAccessPermission_t2681295399_CustomAttributesCacheGeneratorP21CustomAttributesCache
M6a:__Z29ClearRepeatingLogMessageStatev
U0e:_InternalEnumerator_1_get_Current_m3191242573_gshared
uEg:_Byte_Equals_m1161982810_AdjustorThunk
Rca:__ZN21EnlightenSceneMappingaSERKS_
vva:__ZN14SafeBinaryRead21TransferSTLStyleArrayI13dynamic_arrayI17SortingLayerEntryLj0EEEEvRT_17TransferMetaFlags
eVc:__ZL48__ManagedRegistrationHelperFunction_MeshColliderPv
eUb:__ZN7ApiGLESD2Ev
Uwa:__ZN9Transform47ClearTransformHierarchyAndApplyToSerializedDataEv
JQc:__ZN8JSONRead21TransferSTLStyleArrayINSt3__26vectorI8MonoPPtr13stl_allocatorIS3_L18MemLabelIdentifier1ELi16EEEEEEvRT_17TransferMetaFlags
APf:_InputField_IsSelectionVisible_m3622592134
lCg:_AssemblyLoadEventHandler_Invoke_m1462077361
rya:__ZN6Camera23VirtualRedirectTransferER19StreamedBinaryWriteILb0EE
vsk:dynCall_fidi
MMj:__ZN15dense_hashtableINSt3__24pairIK10KeyWrapperINS1_IPK9FieldInfoP11Il2CppClassEEEjEES9_17ReflectionMapHashIS8_EN14dense_hash_mapIS9_jSD_NS9_14EqualsComparerINS0_8equal_toIS8_EEEENS0_9allocatorISB_EEE9SelectKeyESI_SK_E12resize_deltaEjj
ygj:_GUILayoutEntry__ctor_m2229197035
pBa:__ZN15dense_hashtableINSt3__24pairIKN9ShaderLab7Program23ShaderKeywordSetAndHashEPKNS2_10SubProgramEEES4_NS3_24ShaderKeywordHashFunctorEN14dense_hash_mapIS4_S8_SA_NS0_8equal_toIS4_EE13stl_allocatorIS9_L18MemLabelIdentifier67ELi16EEE9SelectKeyESD_SG_E15insert_noresizeERKS9_
Epc:__ZNK13MonoBehaviour13GetScriptTypeEv
jJa:__ZN13RenderTexture12SetDimensionE16TextureDimension
skg:_SslClientStream_set_ClientCertSelectionDelegate_m1261530976
Poa:__ZN9Scripting11UnityEngine16GradientColorKey9InitProxyEv
ie:_SDL_FreeRW
fed:__Z34CanvasRenderer_Get_Custom_PropCullP12Il2CppObject
MR:__ZN20SoundChannelInstance8getDelayE14FMOD_DELAYTYPEPjS1_
GBa:__ZNSt3__26vectorIN20GpuProgramParameters15StructParameterENS_9allocatorIS2_EEEC2ERKS5_
GWe:_ArrayReadOnlyList_1_Contains_m232667507_gshared
nli:__Z77RuntimeInvoker_Boolean_t97287965_IntPtr_t_Int32_t2950945753_SByte_t1669577662PFvvEPK10MethodInfoPvPS4_
fEf:_PlayableHandle_GetPlayableType_m432385838_AdjustorThunk
oXc:__ZNSt3__26vectorIN20TextRenderingPrivate8FontImpl13CharacterInfoE13stl_allocatorIS3_L18MemLabelIdentifier1ELi16EEE8__appendEj
v:tempBigInt
eFi:_Array_InternalArray__Insert_TisKeyframe_t4206410242_m1558638568_gshared
qe:_emscripten_glVertexAttrib1fv
ifc:__ZNSt3__26vectorIN9ShaderLab20SerializedSubProgram12UAVParameterENS_9allocatorIS3_EEE7reserveEj
Bpk:__ZSt11__terminatePFvvE
lO:__ZN12AudioManager14systemCallbackEP11FMOD_SYSTEM24FMOD_SYSTEM_CALLBACKTYPEPvS3_
s5h:_Nullable_1_Equals_m4046255732_gshared
$$h:_ReadOnlyCollection_1_System_Collections_Generic_ICollectionU3CTU3E_Clear_m3451551308_gshared
Yxd:_BaseMeshEffect_OnEnable_m3291426649
pHa:__ZN16ReflectionProbes16UpdateSampleDataEv
Jif:_TrackingServices_NotifyUnmarshaledObject_m2784831802
EHg:_ReadOnlyArrayListWrapper_Sort_m2577012511
Hka:__ZL46__ManagedRegistrationHelperFunction_UnityEventPv
lNg:_CultureInfo_GetCultureInfo_m56098747
k5b:__Z20AddActiveLocalLightsR11CullResultsR27LocalLightCullingParametersPPK15SharedLightDataPK8Vector4fRK9IndexListPfRSA_R12ActiveLightsSG_P5RectTIfEP13TargetEyeMask
Cs:__ZL53__ManagedRegistrationHelperFunction_AnimatorStateInfoPv
l1g:_Convert_ToDecimal_m1284148187
NTh:_Collection_1__ctor_m3489157029_gshared
$ja:__ZL52__ManagedRegistrationHelperFunction_AndroidJNIHelperPv
U_c:_cf2_getNormalizedVector
Ne:_JS_Sound_Play
W3d:__ZL56_MethodBuilder_t600455149_CustomAttributesCacheGeneratorP21CustomAttributesCache
_0h:_ReadOnlyCollection_1_System_Collections_IList_set_Item_m1538987737_gshared
$dc:__ZN9ShaderLab16SerializedShader8TransferI14SafeBinaryReadEEvRT_
mFd:_GridLayoutGroup_set_constraint_m3308895167
gUd:_ConstructionCallDictionary_SetMethodProperty_m3145285304
g1a:__ZN11TimeManagerD2Ev
zXe:_InternalEnumerator_1_System_Collections_IEnumerator_get_Current_m1503522504_gshared
lE:__ZN7mecanim8skeleton13SkeletonAlignEPKNS0_8SkeletonERKN4math7_float4ES7_i
_wc:__ZN19ShaderPropertySheet16SetVectorIndexedEN9ShaderLab16FastPropertyNameEifRK8Vector4fNS_8SetFlagsE
BOh:_Type_get_IsAbstract_m1120089130
OLf:_Vector3_get_normalized_m2454957984_AdjustorThunk
nfj:_UriFormatException__ctor_m1115096473
gXj:__ZN15dense_hashtableINSt3__24pairIK10KeyWrapperINS1_IP11Il2CppClassjEEES4_EES6_N6il2cpp8metadata14ArrayClassHashEN14dense_hash_mapIS6_S4_SB_NS6_14EqualsComparerINSA_17ArrayClassCompareEEENS0_9allocatorIS8_EEE9SelectKeyESF_SH_E9copy_fromERKSK_j
gij:_GUIUtility_IsExitGUIException_m3644066650
G$:__ZN11UnityEngine15CloudWebService14DataDispatcher4StopEv
SQg:_Int16_System_IConvertible_ToUInt64_m134975563
kfc:__ZNSt3__26vectorIN9ShaderLab20SerializedSubProgram12UAVParameterENS_9allocatorIS3_EEE8__appendEj
$Ic:__ZN5IMGUI9GUIWindow5OnGUIER8GUIState
Mqg:_Single_System_IConvertible_ToDecimal_m325860800_AdjustorThunk
akh:_Array_InternalArray__ICollection_CopyTo_TisSingle_t1397266774_m455540885_gshared
Hja:__ZN17ScriptingGCHandle7AcquireE18ScriptingObjectPtr25ScriptingGCHandleWeakness
Cni:__Z74RuntimeInvoker_RuntimeObject_RuntimeObject_Int64_t3736567304_RuntimeObjectPFvvEPK10MethodInfoPvPS4_
qrk:dynCall_iifiii
QOa:__Z21HasAlphaTextureFormat13TextureFormat
iW:__ZN12AudioManager6UpdateEv
KOa:__ZN14ImageReference9BlitImageERKS_NS_8BlitModeE
cv:__ZN8Animator12AddToManagerEv
O5f:_X509Chain__ctor_m2674663382
t0:__GLOBAL__sub_I_Runtime_Core_Callbacks_0_cpp
a0h:_ReadOnlyCollection_1_System_Collections_Generic_IListU3CTU3E_Insert_m1121807192_gshared
IFb:__ZN23CachedSerializationDataD2Ev
w7b:__ZNK25CameraStackRenderingState31CalculateStereoCameraTargetTypeEv
PGa:__ZN14RenderSettings23VirtualRedirectTransferER14SafeBinaryRead
a4e:_InternalEnumerator_1_get_Current_m114240259_gshared
k8j:__ZN6il2cpp2os10ThreadImpl15CurrentThreadIdEv
ang:_SymmetricAlgorithm_get_Key_m3241860519
rQf:_U3CMouseDragOutsideRectU3Ec__Iterator1_Reset_m2233410497
n0:__GLOBAL__sub_I_Runtime_Camera_5_cpp
f7c:_UNITY_tt_face_load_fpgm
Nwa:__Z17IsObjectAvailablei
x1a:__ZN12InputManagerD0Ev
jLh:_ExecutionContext_Capture_m681135907
HYe:_InternalEnumerator_1_System_Collections_IEnumerator_get_Current_m2889979481_AdjustorThunk
vok:_posix_memalign
Yoh:_ASN1_GetBytes_m3305539297
E7:__ZNK15MonoScriptCache7ReleaseEv
fAj:__ZN6il2cpp2vm5Class13HasReferencesEP11Il2CppClass
ag:_glBindTexture
Lmk:_snprintf
Cui:__Z50RuntimeInvoker_RuntimeObject_Resources_t1597885468PFvvEPK10MethodInfoPvPS4_
Gwk:_emscripten_glVertexAttrib1fv__wrapper
_wf:_InvokableCallList_RemoveListener_m1769379719
zwc:__ZN16LevelGameManagerC2E10MemLabelId18ObjectCreationMode
vnj:_AudioExtensionManager_RemoveExtensionFromManager_m442924172
FBf:_MonoBehaviour_Internal_IsInvokingAll_m2820042090
dvk:_emscripten_glGetProgramInfoLog__wrapper
Vt:__ZN25AnimatedPropertyEvaluator29BindCurveToScriptingObjectPtrERKN13AnimationClip10FloatCurveEj18ScriptingObjectPtrb
Mog:_String_Equals_m1744302937
cwf:_Display__ctor_m501911701
vYh:_ReadOnlyCollection_1_System_Collections_Generic_IListU3CTU3E_Insert_m1020890112_gshared
QJg:_Hashtable__cctor_m4112166779
jBd:_DefaultControls_SetDefaultTextValues_m1943359795
S$b:__Z19SetupMotionMatricesR6CameraR18RPDataMotionVector
mxj:__ZL7log2_64y
MF:__ZN26AnimatorControllerPlayable18PrepareForPlaybackERN7mecanim6memory9AllocatorE
_F:__ZN8Animator11AnimatorJob11AddPlayableEP17AnimationPlayablef
hFd:_GridLayoutGroup_get_cellSize_m2967185053
M4g:_CurrentSystemTimeZone_GetUtcOffset_m340358963
w6i:_PKCS12_Decrypt_m1280162536
QYe:_InternalEnumerator_1_get_Current_m3081223448_gshared
Lfj:_Event_get_isMouse_m1058251071
$Da:__ZN10VertexDataC2ERKS_17ShaderChannelMask10MemLabelId
NIg:_CaseInsensitiveHashCodeProvider_AreEqual_m1790260777
V1c:_otv_JSTF_validate
JBa:__ZN22CreateGpuProgramOutputC2Ev
nxf:_PersistentCallGroup_Initialize_m4253175514
cDg:_Boolean_System_IConvertible_ToChar_m4279513009_AdjustorThunk
JJg:_Hashtable__ctor_m1763145853
IMe:_NumberFormatter_ScaleOrder_m3813786990
crh:_PrivateKeyInfo_DecodeDSA_m771724585
M8f:_Interval_get_Size_m4163671410_AdjustorThunk
Mtc:__ZN8GUILayer12CleanupClassEv
kRh:_UInt32_System_IConvertible_ToSByte_m1061556466
skf:_WellKnownClientTypeEntry__ctor_m2471908952
eAj:__ZN6il2cpp2vm5Class4InitEP11Il2CppClass
ga:invoke_vidi
YNe:_NumberFormatter_FormatRoundtrip_m19342689
Yjf:_RemotingServices_CreateClientProxyForContextBound_m783705199
fBc:__ZNK15GUIEventManager15GetEventAtIndexEi
bgd:__ZN2UI14CanvasRenderer17SyncDirtyElementsER8JobFence
S8e:_Enumerator_System_Collections_IEnumerator_get_Current_m3816090481_gshared
rak:__ZN6il2cpp5utils11StringUtils15StringDuplicateEPKc
Jwh:_DefaultComparer_Equals_m2480133610_gshared
$Aa:__ZNK9ShaderLab21ShaderRasterStateDesc16ToGfxRasterStateEPK19ShaderPropertySheetS3_R14GfxRasterState
rIi:_Array_Sort_TisVector3_t3722313464_m1915176437_gshared
Tjk:__ZN6il2cpp2os9EventImplC2Ebb
oXf:_ScrollRect_OnInitializePotentialDrag_m3139711961
CQi:_List_1_get_Item_m2113769949_gshared
hTf:_MaskableGraphic_OnTransformParentChanged_m329502413
W3:__Z20IsMatrixBuiltinParamPKcPi
uog:_String_memcpy4_m979367827
hJh:_UnicodeEncoding_GetBytesInternal_m1902824297
Cwc:__ZN8Renderer19PostInitializeClassEv
Dgh:_Array_FindIndex_TisRuntimeObject_m2504082708_gshared
Zfd:__ZNSt3__26__treeINS_12__value_typeINS_4pairIKiS3_EEN2UI14DepthSortLayerEEENS_19__map_value_compareIS4_S7_NS_4lessIS4_EELb1EEE13stl_allocatorIS7_L18MemLabelIdentifier1ELi16EEE25__emplace_unique_key_argsIS4_JRKNS_21piecewise_construct_tENS_5tupleIJOS4_EEENSK_IJEEEEEENS2_INS_15__tree_iteratorIS7_PNS_11__tree_nodeIS7_PvEEiEEbEERKT_DpOT0_
n8i:_X509Chain_FindCertificateRoot_m1937726457
BYg:_StreamAsyncResult_get_AsyncWaitHandle_m3390046559
Njd:__ZN11UnityEngine15PlatformWrapper21GetVRPlayAreaGeometryER13dynamic_arrayI8Vector3fLj0EE
fgk:__ZN6il2cpp6icalls8mscorlib6System8Delegate23CreateDelegate_internalEP20Il2CppReflectionTypeP12Il2CppObjectP22Il2CppReflectionMethodb
T9e:_Enumerator_System_Collections_IEnumerator_get_Current_m921113401_AdjustorThunk
$Eb:__ZN18DelayedCallManager18CancelCallDelayed2E4PPtrI6ObjectEPF15CallObjectStatePS1_PvES7_
Qua:__ZN25ThreadsafeLinearAllocator10ReallocateEPvji
yob:__Z18Transfer_BlittableI14SafeBinaryReadLb1E11QuaternionfEvRK29SerializationCommandArgumentsR31RuntimeSerializationCommandInfo
Vga:__ZN18SpriteAtlasManagerD0Ev
vx:__ZN7mecanim9animation10SampleClipERKNS0_12ConstantClipEjPf
gXa:__ZN10Matrix4x4f8TransferI14SafeBinaryReadEEvRT_
Zof:_CryptographicUnexpectedOperationException__ctor_m2381988196
tRj:__ZN14dense_hash_mapI10KeyWrapperIPK22Il2CppGenericParameterEPK24MonoGenericParameterInfoN6il2cpp5utils11PointerHashIS2_EENS4_14EqualsComparerINSt3__28equal_toIS3_EEEENSD_9allocatorINSD_4pairIKS4_S7_EEEEE15set_deleted_keyERSJ_
JF:__ZN14AvatarPlayback8StopTimeEv
t$e:_InternalEnumerator_1_System_Collections_IEnumerator_get_Current_m4213507601_gshared
hba:__Z6AppendRKN4core12basic_stringIcNS_20StringStorageDefaultIcEEEEPKc
V3j:__ZN6il2cpp2vm6Object12NullableInitEPhP12Il2CppObjectP11Il2CppClass
Uma:__ZN9Scripting11UnityEngine16TrackedReference12CleanupProxyEv
a_c:__ZN20TextRenderingPrivate19NativeTextGeneratorC2ERK11UTF16StringPNS_8FontImplE11ColorRGBA32ifRK8Vector2fbifiibffbbP13dynamic_arrayIN2UI8UIVertexELj0EE
_hj:_GUIUtility_RemoveCapture_m1294193818
$Nb:__ZN7ApiGLES18ClearBufferSubDataEjN2gl12BufferTargetEll
Coc:__Z37Camera_Get_Custom_PropAllCamerasCountv
TPa:__ZN14Texture2DArray8TransferI18StreamedBinaryReadILb0EEEEvRT_
OJc:__Z38Register_UnityEngine_GUIStyle_get_namev
J8c:_Split_Cubic
$a:invoke_fiiii
QPf:_InputField_OnSubmit_m3583210804
zej:_Uri_CheckHostName_m2213216182
Dwk:_emscripten_glBindRenderbuffer__wrapper
ZJi:_Mesh_SetUvsImpl_TisVector2_t2156229523_m3009194955_gshared
Fbg:_HMAC_set_Key_m3535779141
tIi:_Array_Sort_TisVector4_t3319028937_TisVector4_t3319028937_m4254533673_gshared
YGg:_ArrayListWrapper_Contains_m2641184447
u8c:_ft_black_render
Kki:__Z177RuntimeInvoker_Int32_t2950945753_RuntimeObject_Int32_t2950945753_Int32_t2950945753_RuntimeObject_Int32_t2950945753_EncoderFallbackBufferU26_t2343550713_CharU5BU5DU26_t3299466565PFvvEPK10MethodInfoPvPS4_
Csk:dynCall_viiifi
OQb:__ZN18GfxFramebufferGLES20ActiveContextChangedEPP17RenderSurfaceBaseS2_
hlb:__Z19PluginsRenderMarkeri
MI:__ZN10HumanTrait18InitializeBoneNameEv
rfc:__ZNSt3__26vectorIN9ShaderLab20SerializedSubProgram15StructParameterENS_9allocatorIS3_EEE6assignINS_11__wrap_iterIPS3_EEEENS_9enable_ifIXaasr21__is_forward_iteratorIT_EE5valuesr16is_constructibleIS3_NS_15iterator_traitsISC_E9referenceEEE5valueEvE4typeESC_SC_
s2j:__ZNSt3__214__split_bufferIN6il2cpp2vm5Image20EmbeddedResourceDataERNS_9allocatorIS4_EEEC2EjjS7_
qte:__ZL66SkeletonBone_t4134054672_CustomAttributesCacheGenerator_parentNameP21CustomAttributesCache
Uhd:__Z69Register_UnityEngine_Analytics_UnityAnalyticsHandler_Internal_Destroyv
Y4f:_X509Certificate2Collection_Add_m3151757943
U7e:_Comparer_1__cctor_m951016718_gshared
HWc:__ZN9Scripting11UnityEngine13CharacterInfo9InitProxyEv
RIg:_CaseInsensitiveHashCodeProvider_get_DefaultInvariant_m4264275163
ali:__Z195RuntimeInvoker_Int32_t2950945753_RuntimeObject_Int32_t2950945753_Int32_t2950945753_Int32_t2950945753_RuntimeObject_DecoderFallbackBufferU26_t3866396827_ByteU5BU5DU26_t4057885439_SByte_t1669577662PFvvEPK10MethodInfoPvPS4_
jX:__ZN5physx14PxLightCpuTask12addReferenceEv
uDa:__ZNK15InstancingProps35FillInstanceBufferDispatchConstantsIN10Instancing14RenderLoopArgsEEEvPPvjjRK19ShaderPropertySheetRKT_
Dyi:__Z86RuntimeInvoker_Int32_t2950945753_Color32_t2600501292_Color32_t2600501292_RuntimeObjectPFvvEPK10MethodInfoPvPS4_
uWa:__ZN21EnlightenSceneMapping8TransferI19StreamedBinaryWriteILb0EEEEvRT_
O4j:__ZN6il2cpp2gc16GarbageCollector19InitializeFinalizerEv
YA:__ZN7mecanim8skeleton18CreateSkeletonMaskEjPKNS0_19SkeletonMaskElementERNS_6memory9AllocatorE
yKc:__ZN10GUIManager10DoGUIEventER10InputEventb
rub:__Z35Transfer_Blittable_FixedBufferFieldI24GenerateTypeTreeTransferxEvRK29SerializationCommandArgumentsR31RuntimeSerializationCommandInfo
J2c:_otv_LangSys_validate
MGf:_RectOffset_get_right_m2294081512
nrj:__ZL25UnresolvedVirtualCall_154P12Il2CppObjectfPK10MethodInfo
CFi:_Array_InternalArray__set_Item_TisLink_t544317964_m1234244240_gshared
l7c:_UNITY_TT_Init_Glyph_Loading
Tmf:_SerializationInfo_GetBoolean_m1756153320
aQ:__Z32AudioMixerDuckingProcessCallbackP21UnityAudioEffectStatePfS1_jii
gBf:_Mesh_get_uv2_m3615020997
Avc:__ZN26CustomRenderTextureManagerD2Ev
grc:__Z32Input_Get_Custom_PropInputStringv
Exh:_EqualityComparer_1_System_Collections_IEqualityComparer_Equals_m4172006498_gshared
cM:__ZN12AudioManager8TransferI24GenerateTypeTreeTransferEEvRT_
pAf:_Mathf_Round_m4098141538
nIa:__Z25GetBytesFromTextureFormat13TextureFormat
tZj:__ZN6il2cpp6icalls8mscorlib6System9Threading6Thread20Thread_free_internalEP12Il2CppThreadi
MIb:__ZNK11PreloadData18GetInstanceIDArrayER13dynamic_arrayIiLj0EE
Vxe:__ZL64UnityAnalyticsHandler_t3011359618_CustomAttributesCacheGeneratorP21CustomAttributesCache
L$f:__KeysEnumerator_get_Current_m2996478063
B8:__Z32scripting_class_get_assemblyname17ScriptingClassPtr
Jjd:__ZN11UnityEngine15PlatformWrapper15GetVRDeviceNameEv
oui:__Z99RuntimeInvoker_Boolean_t97287965_Int32_t2950945753_PointerEventDataU26_t867828220_SByte_t1669577662PFvvEPK10MethodInfoPvPS4_
$Ze:_InternalEnumerator_1_get_Current_m2128158355_AdjustorThunk
Cib:__ZN9GfxDevice21RegisterNativeTextureE9TextureIDi16TextureDimension
UDd:_GraphicRegistry__ctor_m1851575309
hAi:__Z52RuntimeInvoker_Void_t1185182177_Keyframe_t4206410242PFvvEPK10MethodInfoPvPS4_
hhk:__ZN6il2cpp6icalls8mscorlib6System10Reflection4Emit11TypeBuilder20create_generic_classEP27Il2CppReflectionTypeBuilder
ZQb:__ZNK16UniformCacheGLES6SubmitEjRK13dynamic_arrayIN20GpuProgramParameters14ValueParameterELj0EERKS0_IiLj0EE
peh:_PlayableHandle_IsPlayableOfType_TisAnimationLayerMixerPlayable_t3631223897_m201603007_gshared
FU:__Z60Register_UnityEngine_AudioListener_GetNumExtensionPropertiesv
Vi:_emscripten_glUniformMatrix4fv
vXj:__ZN15dense_hashtableINSt3__24pairIK10KeyWrapperINS1_IP11Il2CppClassjEEES4_EES6_N6il2cpp8metadata14ArrayClassHashEN14dense_hash_mapIS6_S4_SB_NS6_14EqualsComparerINSA_17ArrayClassCompareEEENS0_9allocatorIS8_EEE9SelectKeyESF_SH_E13set_empty_keyERKS8_
f$e:_InternalEnumerator_1_get_Current_m3839250771_AdjustorThunk
OAk:b100
jBf:_Mesh_get_colors32_m1253190811
tdk:_GC_stopped_mark
Xqd:__ZL59__ManagedRegistrationHelperFunction_SubsystemDescriptorBasePv
csf:_AnimationCurve_Finalize_m2397002729
l_f:_Text_OnEnable_m616205807
GEi:__Z50RuntimeInvoker_RuntimeObject_ColorTween_t809614380PFvvEPK10MethodInfoPvPS4_
EPf:_InputField_OnFillVBO_m3649106646
ymf:_SerializationCallbacks__cctor_m1674315180
KFj:__ZNK15dense_hashtableI10KeyWrapperIPK19Il2CppGenericMethodES4_N6il2cpp8metadata23Il2CppGenericMethodHashEN14dense_hash_setIS4_S7_NS4_14EqualsComparerINS6_26Il2CppGenericMethodCompareEEENSt3__29allocatorIS4_EEE8IdentityESB_SE_E23find_position_with_hashERKS4_j
BAa:__ZNSt3__26vectorIN12FlareManager10FlareEntryENS_9allocatorIS2_EEE21__push_back_slow_pathIS2_EEvOT_
fic:__ZN9ShaderLab20SerializedSubProgram16TextureParameter8TransferI19StreamedBinaryWriteILb0EEEEvRT_
Sta:__ZNK7Hash12812PackToUInt32Ev
ZHg:_SynchronizedArrayListWrapper_IndexOf_m3642674350
O$:__ZN11UnityEngine15CloudWebService16SessionContainer8AddEventEPNS0_14CloudEventInfoE
Imb:__Z4TrimRKN4core12basic_stringIcNS_20StringStorageDefaultIcEEEES5_
nJi:_Dictionary_2_Do_ICollectionCopyTo_TisKeyValuePair_2_t3842366416_m1399105608_gshared
i4f:_X509Certificate2_Import_m4026562329
Waf:_Enumerator_System_Collections_IEnumerator_get_Current_m2763095718_AdjustorThunk
Mxk:_glGetStringi__wrapper
cXa:__ZN10VertexData8TransferI14SafeBinaryReadEEvRT_
qga:__ZN13RuntimeStaticI12AdsIdHandlerLb0EE16StaticInitializeEPv
hfk:_GC_malloc_atomic
LPd:_ActivatedClientTypeEntry_ToString_m2494181680
DBh:_HashSet_1_GetEnumerator_m3346268098_gshared
Whk:__ZN6il2cpp5utils6Memory13AlignedMallocEjj
WPf:_Selectable_get_animator_m2899312855
E6:__ZL20SortItemByInstanceIDRKN18AwakeFromLoadQueue4ItemES2_
vLf:_Vector2_op_Multiply_m2347887432
b0f:_TypeConverterAttribute__ctor_m1774069684
hB:__ZNK34AnimationStateMachineMixerPlayable26GetInterruptedPosePlayableEv
wmd:__ZN20UnityConnectSettings8TransferI24GenerateTypeTreeTransferEEvRT_
OD:__ZN34BlobWriteTransferSTLStyleArrayImplI22OffsetPtrArrayTransferIbEEclERS1_17TransferMetaFlagsR9BlobWrite
Wuc:__ZZN12MeshRenderer15InitializeClassEvEN29FunctorImpl_205kDidDeleteMesh4CallEPviR11MessageData
cyg:_Byte_ToString_m4063101981
lLe:_MonoType_GetConstructors_m2574682189
T0f:_ServicePointManager_FindServicePoint_m4119451290
Ada:__ZL31InitializeRendererUpdateManagerPv
zMd:_ParameterInfo__ctor_m2779026345
PNf:_InputField_set_onValueChange_m1251390545
oWc:__GLOBAL__sub_I_artifacts_WebGL_codegenerator_0_cpp_5805
Tla:__ZL46__ManagedRegistrationHelperFunction_RectOffsetPv
dNe:_NumberFormatter_get_IsZeroInteger_m2263284741
M4i:_X509Certificate_PEM_m2020851166
Mkh:_Array_InternalArray__Insert_TisDateTime_t3738529785_m2308632330_gshared
v1a:__ZN11TimeManager8TransferI19StreamedBinaryWriteILb0EEEEvRT_
uig:_TlsServerCertificateRequest_ProcessAsTls1_m3214041063
d3c:_compare_uni_maps
ykd:__ZN11UnityEngine15PlatformWrapper27GetGraphicsCapsSupportFlagsEv
oJi:_Dictionary_2_Do_ICollectionCopyTo_TisRuntimeObject_m3695543300_gshared
Zxb:__ZN12NativeBufferI16Converter_StringE15SetupForWritingER9ArrayInfo
Aoh:_SequentialSearchPrimeGeneratorBase_GenerateSearchBase_m3595783982
ZJ:__ZN13RuntimeStaticI18AssetBundleManagerLb1EE16StaticInitializeEPv
euk:___cxa_end_catch__wrapper
OFg:_Char_ToString_m278452217
JXh:_ReadOnlyCollection_1_System_Collections_IList_set_Item_m4047645019_gshared
_qd:__ZL50__ManagedRegistrationHelperFunction_ReferencePointPv
nag:_BigInteger_op_RightShift_m460065452
c_j:__ZN6il2cpp6icalls8mscorlib6System5Array13ClearInternalEP11Il2CppArrayii
i9c:__Z38TextGenerator_Get_Custom_PropLineCountP12Il2CppObject
X3i:_InternalAsyncResult_SetComplete_m963842420
Itg:_Encoding_GetEncoding_m2801244948
YKc:__ZN11IMGUIModule25GetGUIStyleScriptingClassEv
D5c:_tt_get_interface
$3i:_SslStreamBase_EndRead_m495357226
eZj:__ZN6il2cpp5utils9PathUtils7CombineIcEENSt3__212basic_stringIT_NS3_11char_traitsIS5_EENS3_9allocatorIS5_EEEERKSA_SC_
uni:__Z64RuntimeInvoker_RuntimeObject_SByte_t1669577662_SByte_t1669577662PFvvEPK10MethodInfoPvPS4_
Jzc:__ZN13PlayableGraph21InvalidateMultithreadEv
Ahj:_GUIScrollGroup_CalcHeight_m3173593443
BSe:_EnumBuilder_GetConstructorImpl_m3068576149
E5:__Z18ConvertUTF16toUTF8PPKtS0_PPhS2_15ConversionFlags
b9j:__ZN6il2cpp2os20PathErrnoToErrorCodeERKNSt3__212basic_stringIcNS1_11char_traitsIcEENS1_9allocatorIcEEEEi
tCe:__ZL68InputField_t3762917431_CustomAttributesCacheGenerator_m_KeyboardTypeP21CustomAttributesCache
WBc:__Z24GetActualTargetFrameRatev
$wj:__ZL16my_g_bit_nth_msfj
Mmg:_SHA512Managed_Sigma1_m922902398
oWi:_Enumerator_MoveNext_m3662315381_AdjustorThunk
cig:_TlsClientFinished_ProcessAsTls1_m2429863130
VYb:__Z23SetupStereoFlareElementP11FlareVertexRK8Vector2fS3_S3_RK11ColorRGBA32RK10Matrix4x4fRK8Vector3fb
sAj:__ZN6il2cpp2vm5Class15GetInstanceSizeEPK11Il2CppClass
sa:invoke_iiiifiiii
CDb:__ZNSt3__224__buffered_inplace_mergeIRN10vector_mapI17ScriptingClassPtrPKN5Unity4TypeENS_4lessIS2_EENS_9allocatorINS_4pairIS2_S6_EEEEE13value_compareENS_11__wrap_iterIPSB_EEEEvT0_SJ_SJ_T_NS_15iterator_traitsISJ_E15difference_typeESN_PNSM_10value_typeE
rLf:_Vector2_Equals_m832062989_AdjustorThunk
Bcf:_ShimEnumerator_MoveNext_m2406150314_gshared
sRb:__ZL19BlitFramebufferImplRN4gles23BlitFramebufferDrawQuadER9GfxDevice9TextureIDRK8Vector4f
nNj:__ZN15dense_hashtableINSt3__24pairIK10KeyWrapperIPK10Il2CppTypeEjEES6_N6il2cpp8metadata14Il2CppTypeHashEN14dense_hash_mapIS6_jSB_NS6_14EqualsComparerINSA_26Il2CppTypeEqualityComparerEEENS0_9allocatorIS8_EEE9SelectKeyESF_SH_E4findERS7_
ork:dynCall_viiiiiiiiiiiiii
eZc:_UNITY_FT_List_Add
_vc:__ZN14Texture2DArray11InitTextureEiii13TextureFormatb
I5i:_X509Extension__ctor_m1474351312
T7h:_InvokableCall_1_Invoke_m1524307439_gshared
GUg:_Directory_CreateDirectoriesInternal_m3735342319
YEc:__Z41Camera_CUSTOM_WorldToScreenPoint_InjectedP12Il2CppObjectRK8Vector3fRS1_
eSf:_LayoutUtility_GetLayoutProperty_m3731360667
iSj:__ZN15dense_hashtableINSt3__24pairIK10KeyWrapperINS1_IPK11Il2CppImageP11Il2CppClassEEEjEES9_17ReflectionMapHashIS8_EN14dense_hash_mapIS9_jSD_NS9_14EqualsComparerINS0_8equal_toIS8_EEEENS0_9allocatorISB_EEE9SelectKeyESI_SK_E14squash_deletedEv
Rmg:_SHAConstants__cctor_m1699027474
o1b:__ZNK6Camera26GetStereoSingleCullEnabledEv
m4a:__Z14resize_trimmedINSt3__26vectorIN4core12basic_stringIcNS2_20StringStorageDefaultIcEEEE13stl_allocatorIS6_L18MemLabelIdentifier13ELi16EEEEEvRT_j
h0:__GLOBAL__sub_I_Runtime_2D_SpriteAtlas_0_cpp
gpb:__Z18Transfer_BlittableI14SafeBinaryReadLb0EaEvRK29SerializationCommandArgumentsR31RuntimeSerializationCommandInfo
SFg:_CharEnumerator_System_Collections_IEnumerator_get_Current_m1328529384
X6g:_DBNull__ctor_m3431698857
TUa:__ZN4core8hash_setINS_4pairIKiiLb0EEENS_9hash_pairINS_4hashIiEES2_iEENS_10equal_pairINSt3__28equal_toIiEES2_iEEE6insertERKS3_
ewj:_AnimationLayerMixerPlayable__ctor_m860721801
v7c:_UNITY_FT_List_Iterate
lFg:_Char_System_IConvertible_ToUInt64_m3536560782
_wh:_EqualityComparer_1__cctor_m3452395357_gshared
tXb:__Z20SyncFenceCullResultsR11CullResults
_Sb:__ZN15TextureTFMethod20IsBoneCountSupportedEi
uah:_Double_ToString_m3828879243_AdjustorThunk
Vkk:_Hacker_StartGame_m2721572447
Ctb:__Z22TransferField_NonArrayI17RemapPPtrTransfer27Converter_SimpleNativeClassI8GUIStyleEEvRK23StaticTransferFieldInfoR31RuntimeSerializationCommandInfoRT0_
zIe:_TextReader_Synchronized_m3004980758
vpd:__ZNK20UnityWebRequestProtoI24UnityWebRequestTransport16AtomicRefCounter14RedirectHelper14ResponseHelper15DownloadHandler13UploadHandler18CertificateHandler12HeaderHelper14AsyncOperationE16GetUploadedBytesEv
Jqc:__ZNK17AnimationCurveTplIfE20EvaluateWithoutCacheEfRf
wri:__Z67RuntimeInvoker_Boolean_t97287965_Rect_t2360479859_SByte_t1669577662PFvvEPK10MethodInfoPvPS4_
SBa:__ZN19ShaderPropertySheet10SetTextureERK23FastTexturePropertyNameP7Texture
nQe:_CustomAttributeData__ctor_m2966233049
azd:_CanvasUpdateRegistry_PerformUpdate_m1793997159
HAc:__ZN4Mesh10SetNormalsEPK8Vector3fj
Zij:_AesManaged_CreateDecryptor_m692040246
iak:__ZNSt3__212basic_stringIDsNS_11char_traitsIDsEENS_9allocatorIDsEEE9__grow_byEjjjjjj
EH:__ZN17AnimationCurveTplIfE8TransferI14SafeBinaryReadEEvRT_
IFi:_Array_InternalArray__set_Item_TisInt16_t2552820387_m2544074754_gshared
oAg:_ArithmeticException__ctor_m3551809662
hbc:__Z29StdTemplateConversionFunctionIybEbPvR14SafeBinaryRead
ATa:__ZNSt3__26vectorIN15QualitySettings14QualitySettingENS_9allocatorIS2_EEE6assignIPS2_EENS_9enable_ifIXaasr21__is_forward_iteratorIT_EE5valuesr16is_constructibleIS2_NS_15iterator_traitsIS9_E9referenceEEE5valueEvE4typeES9_S9_
Cxh:_EqualityComparer_1__cctor_m3995042002_gshared
UGh:_List_1_CheckCollection_m1671972112_gshared
zaf:_Enumerator_System_Collections_IEnumerator_get_Current_m1747693366_gshared
tJh:_UnicodeEncoding_GetPreamble_m3002287178
bnj:_AudioSource_get_spatialize_m3609701298
BEe:__ZL56Toggle_t2735377061_CustomAttributesCacheGenerator_m_IsOnP21CustomAttributesCache
omb:__ZN20GpuProgramParameters14AddVectorParamEPKcii15ShaderParamTypeiiiP16PropertyNamesSet
uod:__ZN9Scripting19UnityEngineInternal15WebRequestUtils12CleanupProxyEv
Rod:__ZNK12HeaderHelper3GetERKN4core12basic_stringIcNS0_20StringStorageDefaultIcEEEE
O1a:__ZN9InputAxis8TransferI14SafeBinaryReadEEvRT_
T6:__ZNK21ExecutionOrderManager30GetCustomAwakeFromLoadQueueForEPKN5Unity4TypeE
Qnd:__Z27RegisterModule_UnityConnectv
Qsc:__ZZL31RegisterRectTransformPropertiesR22GenericPropertyBindingEN32Wrapper_RectTransformSizeDeltax013GetFloatValueEPv
EXg:_MemoryStream_Expand_m3554752073
FQj:__ZN6il2cpp2vm10Reflection27GetCustomAttributesCacheForEP25Il2CppReflectionParameter
oIf:_ScriptableObject_CreateInstance_m2611081756
Ckf:_ObjectRecord_get_IsInstanceReady_m2304516395
$3e:_InternalEnumerator_1_System_Collections_IEnumerator_get_Current_m1635397542_gshared
jYg:_Path__cctor_m3273994011
zjj:_AnalyticsEventTracker__ctor_m3064238498
Hpk:__ZNSt11logic_errorD2Ev
q5g:_DateTimeUtils_CountRepeat_m3396693018
LTh:_WeakReference_get_Target_m168713953
Svk:_glBindRenderbuffer__wrapper
bP:__ZN10ObjectPoolIN4FMOD12ChannelGroupENS0_13ChannelGroupIEE7SetSizeEi
Kij:_SymmetricTransform_FinalDecrypt_m764004682
q8j:__ZN6il2cpp2os10ThreadImpl33UnregisterCurrentThreadForCleanupEv
PSc:__ZN9Scripting11UnityEngine26ParticleSystemVertexStream9InitProxyEv
ubj:_Parser_ParseGroupingConstruct_m263270497
Ond:__ZN11UnityEngine9Analytics22EventLimitReachedEventC2EjyyRKN4core12basic_stringIcNS2_20StringStorageDefaultIcEEEEb
oSj:__ZN14dense_hash_mapI10KeyWrapperINSt3__24pairIPK9EventInfoP11Il2CppClassEEEj17ReflectionMapHashIS8_ENS9_14EqualsComparerINS1_8equal_toIS8_EEEENS1_9allocatorINS2_IKS9_jEEEEE15set_deleted_keyERSH_
Uqb:__Z14resize_trimmedINSt3__26vectorI17AnimationCurveTplIfE13stl_allocatorIS3_L18MemLabelIdentifier1ELi16EEEEEvRT_j
epc:__Z12GUIDToStringRK9UnityGUID
nMf:_Vector4_op_Division_m264790546
FR:__ZN11SoundHandleC2ERKS_
qv:__ZN17AnimationPlayableC2E18DirectorPlayerType
RMf:_InputField_set_shouldHideMobileInput_m1650743574
OFj:__ZNK6il2cpp5utils11collections13ArrayValueMapIPK10Il2CppType17Il2CppInteropData26InteropDataToTypeConverterNS_8metadata14Il2CppTypeLessENS8_26Il2CppTypeEqualityComparerEE10find_firstERKS5_
$Vg:_FileStream_get_CanSeek_m331583577
wr:__ZNSt3__26__sortIR23DependencySortPredicatePN4core4pairIiP9BehaviourLb0EEEEEvT0_S9_T_
aqf:_DSAParameters_t1885824122_marshal_pinvoke_back
QB:__ZN8Animator22OnGraphTopologyChangedEP8Playablei
poh:_Kernel_MultiplyByDword_m1266935086
Zx:__ZN17AnimationPlayable18DeallocateBindingsEv
Tgi:__Z158RuntimeInvoker_Boolean_t97287965_RuntimeObject_Int32U26_t1369213839_Int32_t2950945753_Int32_t2950945753_RuntimeObject_SByte_t1669577662_ContextU26_t3937453398PFvvEPK10MethodInfoPvPS4_
qsg:_String_Trim_m3384720403
TGa:__ZN14RenderSettings18TransferDeprecatedI14SafeBinaryReadEEvRT_
hli:__Z93RuntimeInvoker_Single_t1397266774_SingleU26_t1922108698_Single_t1397266774_Single_t1397266774PFvvEPK10MethodInfoPvPS4_
x_j:__ZN6il2cpp2vm9Exception27RaiseNullReferenceExceptionERKNS_5utils10StringViewIDsEEP19Il2CppSequencePoint
Afj:_Event__ctor_m526447123
roi:__Z88RuntimeInvoker_RuntimeObject_RuntimeObject_RuntimeObject_RuntimeObject_Int32_t2950945753PFvvEPK10MethodInfoPvPS4_
APh:_Type_ToString_m3975981286
q2:__ZN12TLSAllocatorI14StackAllocatorE8AllocateEji
qoj:_ConsumeSampleFramesNativeFunction_BeginInvoke_m342678987
S7:__ZN16ScriptingManager18GetMonoScriptCacheEi
bVb:__ZN20ArchiveStorageHeader13GetDataOffsetERKNS_6HeaderE
Ibj:_ExpressionAssertion__ctor_m2554412824
lCh:_Enumerator_System_Collections_IEnumerator_get_Current_m2237476582_gshared
npb:__Z18Transfer_BlittableI14SafeBinaryReadLb1EyEvRK29SerializationCommandArgumentsR31RuntimeSerializationCommandInfo
MTh:_WeakReference_Finalize_m2841826116
tMe:_NullReferenceException__ctor_m3076065613
cMc:__ZN8JSONRead8TransferIfEEvRT_PKc17TransferMetaFlagsb
qRf:_LayoutGroup_OnDisable_m3483954898
Sic:__ZN9ShaderLab7Program22ComputeSupportsShadowsEv
W2f:_X509SubjectKeyIdentifierExtension_Decode_m1505409124
_ic:__ZL23AddGpuProgramParametersR20GpuProgramParametersRKNSt3__26vectorIN9ShaderLab20SerializedSubProgram15MatrixParameterENS1_9allocatorIS5_EEEERKNS2_INS4_15VectorParameterENS6_ISB_EEEEiiP16PropertyNamesSet
Iha:__ZN6prcoreL17RemapGenericFloatI18TexFormatARGBFloat17TexFormatRGBAHalfEEvPKNS_9InnerInfoE
wjj:_AnalyticsEventParamListContainer__ctor_m1995104893
Vrg:_String_System_IConvertible_ToUInt16_m2888090399
FQ:__ZN11AudioSource21ApplyCachedParametersE12SoundChannel
jPe:_Assembly_InternalGetType_m3065345470
dOd:_ResourceSet__ctor_m3356376607
$3d:__ZL56_ParameterInfo_t489405856_CustomAttributesCacheGeneratorP21CustomAttributesCache
WVa:__ZN15SerializeTraitsI33EnlightenTerrainChunksInformationE8TransferI14SafeBinaryReadEEvRS0_RT_
Xwc:__ZNK32RendererMaterialAnimationBinding9BindValueER6ObjectRKN11UnityEngine9Animation14GenericBindingERNS3_10BoundCurveE
Ref:_Transform_1_Invoke_m1731820209_gshared
LAj:__ZN6il2cpp2vm5Class11IsInterfaceEPK11Il2CppClass
kPa:__ZL18stbir__support_onef
mrg:_Single_CompareTo_m189772128
RNc:__Z26Transfer_UnityEngineObjectI9JSONWriteLb0EEvRK29SerializationCommandArgumentsR31RuntimeSerializationCommandInfo
o6e:_DefaultComparer_Compare_m4042058291_gshared
QFd:_Image_set_overrideSprite_m3213596394
SMa:__ZNSt3__26vectorIN4core12basic_stringIcNS1_20StringStorageDefaultIcEEEE13stl_allocatorIS5_L18MemLabelIdentifier1ELi16EEE6assignINS_11__wrap_iterIPS5_EEEENS_9enable_ifIXaasr21__is_forward_iteratorIT_EE5valuesr16is_constructibleIS5_NS_15iterator_traitsISF_E9referenceEEE5valueEvE4typeESF_SF_
Wfd:__ZNSt3__27__sort5IRNS_6__lessIN2UI14DepthSortEntryES3_EEPS3_EEjT0_S7_S7_S7_S7_T_
LVg:_FileLoadException_ToString_m2989457882
tnj:_AudioListener_ClearExtensionProperties_m3849891634
LYc:_UNITY_FT_DivFix
zKi:_Array_InternalArray__get_Item_TisDecimal_t2948259380_m3511003792_gshared
UK:__ZL45__ManagedRegistrationHelperFunction_AudioClipPv
Gog:_SecurityElement_IsValidAttributeValue_m948345692
kwc:__ZN14Texture2DArrayC2E10MemLabelId18ObjectCreationMode
Ba:invoke_vdd
vn:FUNCTION_TABLE_fiii
KIe:_TextWriter_Write_m2252948084
izc:__Z19RegisterModule_Corev
R9c:__ZZ29InitializeTextRenderingModulevEN27cleanupAfterLoadRegistrator7ForwardEv
wz:__ZN27AnimationLayerMixerPlayable24ProcessAnimationLayerMixEP33AnimationPlayableEvaluationOutputP35AnimationPlayableEvaluationConstantP32AnimationPlayableEvaluationInputS1_if
rLg:_CCFixed_FromDateTime_m3894190577
j7b:__Z29PluginsIssueRenderingExtEvent26UnityRenderingExtEventTypePv
hgi:__Z116RuntimeInvoker_RuntimeObject_RuntimeObject_Int32_t2950945753_RuntimeObject_RuntimeObject_RuntimeObject_RuntimeObjectPFvvEPK10MethodInfoPvPS4_
hlf:_MessageFormatter_ReadMethodCall_m2327590823
Ovc:__Z14RandomRotationP9Texture2DPhiiii
_ih:_Array_InternalArray__ICollection_Add_TisUInt16_t2177724958_m3981262878_gshared
$7g:_Decimal_GetBits_m453754410
ABh:_HashSet_1_Contains_m3173358704_gshared
qlj:_ToggleEvent__ctor_m834619998
zcg:_PKCS1_Encode_v15_m2077073129
wnb:__ZN10Instancing11DrawAPIArgsC2ERK19ShaderPropertySheetPK8Vector4fS6_S6_i
LGf:_RectOffset_get_left_m1232181034
fYj:__ZNSt3__214__split_bufferIN6il2cpp8metadata18GenericArrayMethodERNS_9allocatorIS3_EEED2Ev
ij:_JS_WebRequest_SetResponseHandler
vzk:_glDeleteProgram__wrapper
wPa:__ZN6prcoreL18BlitFloatToIntegerERK14ImageReferenceRS0_
k7g:_DBNull_System_IConvertible_ToUInt32_m3784627971
xgg:_ClientSessionCache_Add_m964342678
j$:__ZN11UnityEngine15CloudWebService14RestDownloader17OnCompleteContentEv
eMj:__ZN15dense_hashtableINSt3__24pairIK10KeyWrapperINS1_IPK14Il2CppAssemblyP11Il2CppClassEEEjEES9_17ReflectionMapHashIS8_EN14dense_hash_mapIS9_jSD_NS9_14EqualsComparerINS0_8equal_toIS8_EEEENS0_9allocatorISB_EEE9SelectKeyESI_SK_E15insert_noresizeERKSB_
unb:__ZN10Instancing11DrawAPIArgsC2Ev
rKf:_Transform_get_localScale_m129152068
p8g:_DivideByZeroException__ctor_m3496959969
Na:invoke_viffi
yB:__ZN17AnimationPlayable28UpdateInternalStateRecursiveILi1ELb0EEEvPK35AnimationPlayableEvaluationConstant
a5j:__ZN6il2cpp2gcL10CleanupCCWEPvS1_
Qa:invoke_vifff
hyk:_glGetVertexAttribiv__wrapper
Y5h:_Predicate_1_Invoke_m851618236_gshared
AGb:__ZN20LocalFileSystemWebGL6DeleteER13FileEntryDatab
Oe:_emscripten_glDisableVertexAttribArray
Ldh:_Array_InternalArray__ICollection_Remove_TisSingle_t1397266774_m3361324455_gshared
Vm:FUNCTION_TABLE_iiiifiiii
gc:invoke_fifffi
RTh:_Collection_1_System_Collections_IList_Add_m2969482770_gshared
bph:_BitConverterLE_GetBytes_m4130646282
HPb:__ZN4gles23ClearCurrentFramebufferEP7ApiGLESbbbRK10ColorRGBAffi
Sz:__ZN7mecanim12statemachine20CreateStateWorkspaceEjjjRNS_6memory9AllocatorE
P9h:_UnityEvent_1_Invoke_m3604335408_gshared
Ze:_emscripten_glDeleteObjectARB
ftd:_EventSystem_RaycastComparer_m3685368675
oSa:__Z14DecompressDXT3iiiPKjPj
aki:__Z131RuntimeInvoker_Void_t1185182177_RuntimeObject_RuntimeObject_Int64_t3736567304_ObjectU26_t2146539884_SerializationInfoU26_t419328957PFvvEPK10MethodInfoPvPS4_
Rph:_DSAManaged_CreateSignature_m2233977444
yxg:_PKCS12_RemoveCertificate_m1421555398
rZf:_Slider_FindSelectableOnLeft_m1667068522
$ha:__ZN6prcoreL17RemapGenericFloatI17TexFormatRGBAHalf18TexFormatARGBFloatEEvPKNS_9InnerInfoE
$Jc:__Z14GetBuiltinSkini
VUd:_MethodDictionary_get_Item_m1201458851
HW:___cxx_global_var_init_13
WW:___cxx_global_var_init_10
XW:___cxx_global_var_init_11
il:_JS_SystemInfo_GetBrowserVersionString
Q9a:__ZN2UI13RectTransform23VirtualRedirectTransferER14SafeBinaryRead
Egc:__ZNSt3__26vectorIN9ShaderLab20SerializedSubProgramENS_9allocatorIS2_EEE6assignIPS2_EENS_9enable_ifIXaasr21__is_forward_iteratorIT_EE5valuesr16is_constructibleIS2_NS_15iterator_traitsIS9_E9referenceEEE5valueEvE4typeES9_S9_
cQc:__Z18Transfer_BlittableI8JSONReadLb0E8BitFieldEvRK29SerializationCommandArgumentsR31RuntimeSerializationCommandInfo
gog:_SecurityPermission_set_Flags_m1503445204
uBh:_HashSet_1_CopyTo_m2849056227_gshared
rzb:__ZL17Transfer_GUIStyleI18StreamedBinaryReadILb1EELb0EEvRK29SerializationCommandArgumentsR31RuntimeSerializationCommandInfo
DHc:__ZN9Scripting11UnityEngine15ScrollViewState9InitProxyEv
Znh:_ModulusRing_Multiply_m343333088
fte:__ZL76AnimatorTransitionInfo_t2534804151_CustomAttributesCacheGenerator_m_AnyStateP21CustomAttributesCache
yec:__ZN9ShaderLab14SerializedPass8TransferI14SafeBinaryReadEEvRT_
wJc:__Z71Register_UnityEngine_GUILayoutUtility_INTERNAL_CALL_Internal_MoveWindowv
_T:__ZN12AudioManager16SetListenerPauseEb
j4a:__ZNSt3__26vectorIN30RuntimeInitializeOnLoadManager9ClassInfoE13stl_allocatorIS2_L18MemLabelIdentifier13ELi16EEE6assignINS_11__wrap_iterIPS2_EEEENS_9enable_ifIXaasr21__is_forward_iteratorIT_EE5valuesr16is_constructibleIS2_NS_15iterator_traitsISC_E9referenceEEE5valueEvE4typeESC_SC_
aUc:__ZL50__ManagedRegistrationHelperFunction_ContactPoint2DPv
da:invoke_viiiiiiiiiii
ylk:___syscall_ret
z6i:_DeriveBytes_set_Salt_m1400945044
ovd:_PointerEventData_set_worldNormal_m1888481930
qcj:_AnchorInfo__ctor_m46784903
dfg:_CipherSuiteCollection_get_Item_m4188309062
d3i:_SslHandshakeHash_HashFinal_m2573455475
XSd:_SynchronizationAttribute_ReleaseLock_m1030353464
gTj:__ZNSt3__212basic_stringIcNS_11char_traitsIcEENS_9allocatorIcEEE6assignINS_11__wrap_iterIPKcEEEENS_9enable_ifIXaasr21__is_forward_iteratorIT_EE5valuesr38__libcpp_string_gets_noexcept_iteratorISC_EE5valueERS5_E4typeESC_SC_
mid:__Z56Register_UnityEngine_Analytics_CustomEventData_AddDoublev
YXa:__ZN11ChannelInfo8TransferI19StreamedBinaryWriteILb0EEEEvRT_
lak:__ZN4utf88internal13validate_nextIPKcEENS0_9utf_errorERT_S5_Rj
CEe:__ZL53ToggleGroup_t123837990_CustomAttributesCacheGeneratorP21CustomAttributesCache
a4d:__ZL59_PropertyBuilder_t1366136710_CustomAttributesCacheGeneratorP21CustomAttributesCache
HPf:_InputField_CreateCursorVerts_m3585916868
jmc:__Z34Register_UnityEngine_Gradient_Initv
hSd:_Context_ToString_m1073616138
_Ya:__ZN13ScreenManager23SetIsOrientationEnabledE18EnabledOrientationb
LMf:_InputField_EnforceTextHOverflow_m3400115777
eWc:__ZN9Scripting11UnityEngine12TreeInstance9InitProxyEv
S1a:__ZN9InputAxis8TransferI19StreamedBinaryWriteILb0EEEEvRT_
oRg:__Z33il2cpp_codegen_check_sub_overflowxx
ENf:_InputField_get_caretColor_m2973283772
SLi:_Resources_ConvertObjects_TisRuntimeObject_m1486780300_gshared
V9g:_Double_System_IConvertible_ToInt16_m3591921965_AdjustorThunk
E3h:_Comparison_1_Invoke_m2925518770_gshared
twa:__ZN10GameObject23VirtualRedirectTransferER18StreamedBinaryReadILb0EE
tij:_SymmetricTransform__ctor_m2693628991
$He:_ObjectDisposedException__ctor_m1034312941
pg:_glFrontFace
fTf:_MaskUtilities_IsDescendantOrSelf_m2247511982
Gxa:__ZN12BaseRenderer21SetGlobalLayeringDataE18GlobalLayeringDataj
w9c:__Z51Register_UnityEngine_TextGenerator_GetLinesInternalv
qff:_Enumerator_get_Current_m2250080680_AdjustorThunk
Qpg:_SecurityElement__cctor_m3326869319
ejj:_AesManaged_set_Key_m767972181
rQg:_Int16_System_IConvertible_ToBoolean_m1656400658_AdjustorThunk
fEg:_Byte_System_IConvertible_ToInt64_m285584218
qha:__ZN6prcoreL17RemapGenericFloatI17TexFormatRGBFloat18TexFormatRGBAFloatEEvPKNS_9InnerInfoE
tih:_Array_InternalArray__ICollection_Add_TisDictionaryEntry_t3123975638_m665385049_gshared
zhe:__ZL57BootConfigData_t3818279794_CustomAttributesCacheGeneratorP21CustomAttributesCache
eKe:_MissingMemberException__ctor_m2707802176
xwc:__ZN28ReflectionProbeAnchorManager10InitializeEv
Buj:_Canvas_get_renderMode_m841659411
vtg:_String_Join_m2050845953
Pmf:_SerializationInfo_GetValue_m42271953
ES:__ZN9AudioClip11CreateSoundEv
RPa:__ZN29SerializeTraitsForStringTypesIN4core12basic_stringIcNS0_20StringStorageDefaultIcEEEEE8TransferI24GenerateTypeTreeTransferEEvRS4_RT_
CSj:__ZN14dense_hash_mapI10KeyWrapperINSt3__24pairIPK9FieldInfoP11Il2CppClassEEEj17ReflectionMapHashIS8_ENS9_14EqualsComparerINS1_8equal_toIS8_EEEENS1_9allocatorINS2_IKS9_jEEEEEC2EjRKSB_RKSF_
sCf:_PlayerConnection_GetConnectionNativeApi_m3116196780
$Nj:__ZNK15dense_hashtableINSt3__24pairIK10KeyWrapperINS1_IPK10MethodInfoP11Il2CppClassEEEjEES9_17ReflectionMapHashIS8_EN14dense_hash_mapIS9_jSD_NS9_14EqualsComparerINS0_8equal_toIS8_EEEENS0_9allocatorISB_EEE9SelectKeyESI_SK_E13find_positionERSA_
VMb:__ZN13GfxDeviceGLES20CreateComputeProgramEPKhj
cnd:__ZN11UnityEngine7Connect16PersistentValues13RestoreValuesER8JSONRead
nad:__ZN9Scripting11UnityEngine8Tilemaps8TileData9InitProxyEv
eQg:_Guid_BaseToString_m3600006650
zeb:__ZN20ArchiveStorageReader31TryToReadDirectoryFromBlockDataEyPKvj
W0j:__ZN6il2cpp2vmL11GetIdentityEP14Il2CppIUnknown
Ydk:_GC_push_gc_structures
mig:_TlsServerCertificate_ProcessAsTls1_m819212276
DJi:_Dictionary_2_Do_ICollectionCopyTo_TisRuntimeObject_m3942192587_gshared
QKj:__ZN6il2cpp6icalls8mscorlib6SystemL8IsPublicEPK9EventInfo
Nag:_PrimalityTests_RabinMillerTest_m2544317101
S9f:_Kernel_DwordDivMod_m1540317819
jWi:_Enumerator_System_Collections_IEnumerator_get_Current_m1399273671_gshared
fId:_TypeBuilder_GetPropertyImpl_m3104345782
qYa:__ZNSt3__213__stable_sortIRNS_4lessI4PPtrI11SpriteAtlasEEENS_11__wrap_iterIPS4_EEEEvT0_SA_T_NS_15iterator_traitsISA_E15difference_typeEPNSD_10value_typeEi
uTg:_Int64_ToString_m2085073918_AdjustorThunk
Mdf:_Transform_1_Invoke_m4084479750_gshared
YId:_FieldInfo_GetFieldOffset_m1356898082
cuf:_Camera_RaycastTry_m3913529496
Bdc:__ZN10BootConfig4Data14InitFromStringEPPKcjS2_
w3:__ZN8keywords6CreateEPKc
nxj:__ZL7log2_32j
XEf:_Quaternion_Inverse_Injected_m4070500351
S:Math_imul
uXf:_ScrollRect_LateUpdate_m1215231183
vqa:__ZN9Scripting11UnityEngine11ContextMenu9InitProxyEv
Hig:_TlsServerKeyExchange_Update_m453798279
OTa:__ZN11PlayerPrefs6GetIntERKN4core12basic_stringIcNS0_20StringStorageDefaultIcEEEEi
kfg:_CipherSuiteCollection_System_Collections_IList_IndexOf_m1361500977
k_f:_Text_set_fontStyle_m648756124
e9c:__Z45TextGenerator_CUSTOM_INTERNAL_get_rectExtentsP12Il2CppObjectP5RectTIfE
dK:__ZN9Scripting11UnityEngine18AssetBundleRequest12CleanupProxyEv
R4g:_DateTime__ctor_m2135476686_AdjustorThunk
RQc:__ZN13GUIStyleState8TransferI8JSONReadEEvRT_
lU:__ZN11AudioSource12SetAudioClipEP9AudioClip
wHf:_RectTransform_GetLocalCorners_m823861473
fIg:_SynchronizedArrayListWrapper_GetEnumerator_m1579424644
jVf:_Scrollbar_get_value_m760470106
t5:__ZN18ScriptingArguments9AddObjectE18ScriptingObjectPtr
vdd:__Z39CanvasGroup_Get_Custom_PropInteractableP12Il2CppObject
QX:__ZN11UnityEngine15CloudWebService16SessionContainerD2Ev
Fld:__ZL38InitializeUnityConnectScriptingClassesv
T7b:__ZN13ProbeRenderer8ConvolveEbijjb
jij:_GUIUtility_set_systemCopyBuffer_m608712289
bQb:__ZN17GenericDynamicVBOC2ER9GfxDevice13GfxBufferModejj
tKc:__ZZN10GUIManager14InitGUIManagerEvEN41PreUpdateIMGUISendQueuedEventsRegistrator7ForwardEv
Z1f:_ServicePointManager_get_SecurityProtocol_m966397919
CLg:_CCGregorianCalendar_day_from_fixed_m1674702403
iZ:__ZN11UnityEngine15CloudWebService17SessionEventQueue10PurgeItemsEj
w8b:__ZN6Camera16StandaloneRenderENS_10RenderFlagEP6ShaderRKN4core12basic_stringIcNS3_20StringStorageDefaultIcEEEE
A4f:_X509Chain_PrepareForNextCertificate_m3691934993
hwa:__ZN16LevelGameManager23VirtualRedirectTransferER24GenerateTypeTreeTransfer
Lyb:__Z18Transfer_BlittableI18StreamedBinaryReadILb1EELb1EtEvRK29SerializationCommandArgumentsR31RuntimeSerializationCommandInfo
Sue:__ZL58EventType_t3528516131_CustomAttributesCacheGenerator_keyUpP21CustomAttributesCache
h6d:__ZL57X509Certificate_t713131622_CustomAttributesCacheGeneratorP21CustomAttributesCache
XXa:__ZN12BoneWeights48TransferI19StreamedBinaryWriteILb0EEEEvRT_
qib:__ZN9GfxDevice20DeallocRenderSurfaceEP17RenderSurfaceBase
umb:__ZN20GpuProgramParameters36UpdatePrepareValuesMaximumBufferSizeEv
Qlh:_SimpleCollator_GetContraction_m2205549079
FLf:_Vector3__ctor_m1719387948_AdjustorThunk
vbg:_ARC4Managed_GenerateKey_m1607343060
Ijh:_Array_InternalArray__ICollection_CopyTo_TisDecimal_t2948259380_m2749946216_gshared
S3a:__ZN30RuntimeInitializeOnLoadManager23VirtualRedirectTransferER14SafeBinaryRead
wXc:__ZN20TextRenderingPrivate8FontImpl13CharacterInfo8TransferI18StreamedBinaryReadILb0EEEEvRT_
Wvb:__Z29Transfer_Blittable_ArrayFieldI24GenerateTypeTreeTransferfEvRT_R9ArrayInfoRK23StaticTransferFieldInfo
xxf:_UnityEvent_FindMethod_Impl_m2312362624
Z9b:__ZN19CustomRenderTexture9AddParentE4PPtrIS_E
Lqb:__ZN8Gradient8TransferI14SafeBinaryReadEEvRT_
gtf:_Vector3_GetHashCode_m2879461828
sbj:_Parser_ParseSpecial_m1961501104
erg:_Single_System_IConvertible_ToUInt64_m3299129161_AdjustorThunk
RMa:__ZNSt3__26vectorIN4core12basic_stringIcNS1_20StringStorageDefaultIcEEEE13stl_allocatorIS5_L18MemLabelIdentifier1ELi16EEE7reserveEj
MYc:__ZN20TextRenderingPrivate15DynamicFontData36GetFaceForCharacterIfAvailableInFontERKNS_7FontRefERK13dynamic_arrayI4PPtrIN13TextRendering4FontEELj0EEj
E1f:_IPv6Address_AsIPv4Int_m844941024
OOe:_Random__ctor_m3209279193
gjg:_RecordProtocol__cctor_m1280873827
sIh:_StringBuilder__ctor_m3504405255
nPd:_Marshal__cctor_m4007734770
Sck:_GC_new_free_list_inner
Krh:_SymmetricTransform_Random_m2004892672
xck:_GC_err_printf
Iqd:__ZN9Scripting11UnityEngine2XR13InputTracking12CleanupProxyEv
fdg:_RSAManaged_DecryptValue_m1804388365
hXe:_InternalEnumerator_1_System_Collections_IEnumerator_get_Current_m2980550840_AdjustorThunk
oH:__ZN25RuntimeAnimatorController8TransferI14SafeBinaryReadEEvRT_
SQc:__ZN8JSONRead8TransferI10RectOffsetEEvRT_PKc17TransferMetaFlagsb
TY:__ZN9JSONWrite8TransferIN11UnityEngine15CloudWebService14DataErrorEvent15FileErrorDetailEEEvRT_PKc17TransferMetaFlags
kSg:_Int32_Parse_m2087562008
WLd:_MonoProperty_GetAccessors_m412928203
qbi:_TweenRunner_1_Start_m3757154622_gshared
IN:__ZN12SoundManager20RegisterModifiedClipEP10SampleClip
Rif:_RemotingServices_GetClientChannelSinkChain_m1499550585
kPe:_Assembly_FillName_m1660001542
Q3d:__ZL56_EventBuilder_t2558055199_CustomAttributesCacheGeneratorP21CustomAttributesCache
rmg:_SHA384Managed_processBlock_m1272529332
vQ:__ZN11AudioSource4PlayEd
PFg:_Char_ToString_m278452217_AdjustorThunk
rDj:__ZN15dense_hashtableI10KeyWrapperIPK17Il2CppGenericInstES4_N6il2cpp8metadata21Il2CppGenericInstHashEN14dense_hash_setIS4_S7_NS4_14EqualsComparerINS6_24Il2CppGenericInstCompareEEENSt3__29allocatorIS4_EEE8IdentityESB_SE_E13set_empty_keyERKS4_
Jdi:__Z63RuntimeInvoker_Char_t3634460470_Int16_t2552820387_RuntimeObjectPFvvEPK10MethodInfoPvPS4_
J1g:_Convert_ToDouble_m2924063577
kba:__Z17GetCoreModuleSpecv
zEh:_Enumerator_System_Collections_IEnumerator_get_Current_m3594024719_gshared
SQa:__ZN7Cubemap23VirtualRedirectTransferER18StreamedBinaryReadILb0EE
Oqc:__ZNSt3__27__sort4IRNS_6__lessI11KeyframeTplIfES3_EEPS3_EEjT0_S7_S7_S7_T_
h6c:_Read_CVT
kQ:__ZN11AudioSource23VirtualRedirectTransferER19StreamedBinaryWriteILb0EE
Meb:__ZN12FileAccessor4SeekEx10FileOrigin
bt:__ZN9Scripting11UnityEngine25RuntimeAnimatorController12CleanupProxyEv
Jub:__ZL26Transfer_SimpleNativeClassI24GenerateTypeTreeTransfer17AnimationCurveTplIfELb0EEvRK29SerializationCommandArgumentsR31RuntimeSerializationCommandInfo
_0g:_Convert_ToDecimal_m1783778724
xcf:_ShimEnumerator_get_Value_m153531060_gshared
XLg:_DateTimeFormatInfo__ctor_m3106345035
agg:_TlsServerKeyExchange_verifySignature_m3412856769
Rwh:_EqualityComparer_1_System_Collections_IEqualityComparer_GetHashCode_m4137147946_gshared
v$i:_Collection_1_System_Collections_ICollection_CopyTo_m5285659_gshared
Pca:__ZN16LightmapSettings20DidChangeActiveSceneEP10UnitySceneS1_
IHe:__ZL59g_AssemblyU2DCSharp_Assembly_CustomAttributesCacheGeneratorP21CustomAttributesCache
cLj:__ZN6il2cpp5utils9PathUtils8BasenameIcEENSt3__212basic_stringIT_NS3_11char_traitsIS5_EENS3_9allocatorIS5_EEEERKSA_
jjf:_RemotingProxy__cctor_m4096951805
Gt:__ZN9Scripting11UnityEngine10Animations21AnimationClipPlayable9InitProxyEv
wIc:__Z35Register_UnityEngine_Event_get_typev
sna:__ZN9Scripting11UnityEngine9Rendering18GraphicsDeviceType12CleanupProxyEv
E_j:__ZN6il2cpp2vm9Exception23GetInvalidCastExceptionERKNS_5utils10StringViewIDsEE
xtk:_emscripten_glDepthRange__wrapper
vB:__ZN8Animator28BuildControllerPlayableCacheEv
t6:__Z63ThreadAndSerializationSafeCheckGetMonoBehaviourBeingTransferredv
xoa:__ZN9Scripting11UnityEngine12LightmapData9InitProxyEv
PNi:_List_1_set_Item_m4224739467_gshared
uRe:_ConstructorBuilder_get_Name_m2426555260
src:__Z37Register_UnityEngine_Input_GetAxisRawv
Uld:__ZN11UnityEngine7Connect13ConfigHandler13ConfigChangedERKN4core12basic_stringIcNS2_20StringStorageDefaultIcEEEEbbi
tbj:_Parser_ParseCharacterClass_m4285351396
b3g:_Convert_ToSByte_m2653418303
pZg:_SyncHashtable__ctor_m2449935938
iQ:__ZN11AudioSource5ResetEv
Dlg:_RSAPKCS1SignatureFormatter_SetKey_m2935054088
hZb:__ZN12ImageFilters27SetSurfaceUseResolvedBufferEP13RenderTextureb
Lnb:__ZN14SafeBinaryRead21TransferSTLStyleArrayI10vector_setI4PPtrI10MonoScriptENSt3__24lessIS4_EE13stl_allocatorIS4_L18MemLabelIdentifier79ELi16EEEEEvRT_17TransferMetaFlags
wOa:__ZN14Texture2DArray23VirtualRedirectTransferER18StreamedBinaryReadILb0EE
gKh:_UTF7Encoding_GetByteCount_m209415911
H9a:__ZN2UI13RectTransform13AwakeFromLoadE17AwakeFromLoadMode
$dj:_RegularExpression_Compile_m2385682508
D2b:__ZN14qsort_internal30FindAndMovePivotToLastPositionIP20ShadowCasterSortDatai26ShadowCasterSortDataSorterEEvT_S4_T0_T1_
eob:__Z18Transfer_BlittableI14SafeBinaryReadLb1EiEvRK29SerializationCommandArgumentsR31RuntimeSerializationCommandInfo
G4f:_X509ExtensionEnumerator_get_Current_m256207749
HOf:_InputField_MoveTextStart_m1087475594
LKg:_EventArgs__cctor_m1889823314
VBg:_Array_Sort_m182264525
ZQf:_LayoutGroup_set_padding_m282562135
cQe:_Default_IsArrayAssignable_m953489228
NQh:_UInt16_ToString_m355311020_AdjustorThunk
Frf:_RC2__ctor_m1146135664
Fk:_glGetStringi
Oug:_DecoderExceptionFallback_CreateFallbackBuffer_m1133375601
j3j:__ZNK15dense_hashtableI10KeyWrapperIP18Il2CppGenericClassES3_N6il2cpp8metadata22Il2CppGenericClassHashEN14dense_hash_setIS3_S6_NS3_14EqualsComparerINS5_25Il2CppGenericClassCompareEEENSt3__29allocatorIS3_EEE8IdentityESA_SD_E10test_emptyERK30dense_hashtable_const_iteratorIS3_S3_S6_SF_SA_SD_E
A9e:_Enumerator_get_CurrentKey_m889650866_gshared
qD:__ZN8Animator9WriteStepEy
mza:__ZN9Coroutine16SetCurrentMethodE18ScriptingMethodPtr
T8e:_Enumerator_VerifyCurrent_m829026141_gshared
Uzc:__ZN16PropertyAccessorC2Ev
mZi:_Collection_1_ConvertItem_m1743542180_gshared
l9c:__Z38Register_UnityEngine_Font_HasCharacterv
S6b:__Z35IntersectSpherePlaneBoundsOptimizedRKN4math7_float4EPS1_i
Kkg:_RNGCryptoServiceProvider__cctor_m3587754670
Paa:__ZN17TransformInternal21DetachTransformThreadER18TransformHierarchyjj
I5j:__ZN6il2cpp2os5posix15PosixWaitObject13InterruptWaitEv
uca:__Z22CleanupLODGroupManagerPv
sIc:__Z21Event_CUSTOM_PopEventP12Il2CppObject
ol:_glUniform3fv
Pik:__ZNK6il2cpp8metadata24Il2CppGenericInstCompareclERK10KeyWrapperIPK17Il2CppGenericInstES8_
$4f:_X509ChainElement_Set_m655180762
Jxj:_CustomEventData_AddInt32_m548429697
f1b:__ZNK16LightmapSettings31GetRealtimeLightmapDecodeValuesEv
rP:__ZN5audio5mixer12SetSuspendedERNS0_16AudioMixerMemoryEb
R8a:__ZN17PersistentManager21UnloadNonDirtyStreamsEv
Mki:__Z96RuntimeInvoker_Int32_t2950945753_RuntimeObject_Int32_t2950945753_RuntimeObject_Int32_t2950945753PFvvEPK10MethodInfoPvPS4_
Tjj:_AnalyticsEventTracker_OnEnable_m1121905268
Aej:_Uri_get_Parser_m3737125102
Kuj:_Canvas_get_overrideSorting_m2740418462
Jvf:_Debug_LogFormat_m309087137
cEg:_Byte_System_IConvertible_ToInt16_m4136764794_AdjustorThunk
MZa:__ZN12ImageFilters4BlitER17ShaderPassContextP7TextureP13RenderTextureiPK18SharedMaterialDataPKcP6ShaderiNS_9BlitFlagsE11CubemapFaceRK8Vector2fSH_
Tsg:_String_LastIndexOf_m3451222878
q9i:_Mark_get_Index_m3048692661
OEe:__ZL69CanvasScaler_t2767979955_CustomAttributesCacheGenerator_m_ScaleFactorP21CustomAttributesCache
sZ:__ZN11UnityEngine15CloudWebService10RestClientINS0_23WebRequestRestHeaderMapEED2Ev
Ll:_emscripten_glDepthMask
Wjf:_RemotingServices_CreateClientProxy_m3886727610
cSa:__ZN4crnd25static_huffman_data_model22prepare_decoder_tablesEv
ljg:_RecordProtocol_GetMessage_m2086135164
Uca:__Znaj
Vzk:_emscripten_glEnableClientState__wrapper
Pod:__ZN20UnityWebRequestProtoI24UnityWebRequestTransport16AtomicRefCounter14RedirectHelper14ResponseHelper15DownloadHandler13UploadHandler18CertificateHandler12HeaderHelper14AsyncOperationE26Job_ExecuteUnityWebRequestEPS9_
A2:__ZN17MessageIdentifierC2EPKcNS_7OptionsEPKN5Unity4TypeES1_
yBf:_Mesh_SetTriangles_m1523451247
Vqg:_Single_System_IConvertible_ToSByte_m1208276900
vGi:_Array_InternalArray__set_Item_TisVector4_t3319028937_m757305038_gshared
dtc:__ZNSt3__26__treeIPc15compare_tstringIPKcENS_9allocatorIS1_EEE25__emplace_unique_key_argsIS1_JS1_EEENS_4pairINS_15__tree_iteratorIS1_PNS_11__tree_nodeIS1_PvEEiEEbEERKT_DpOT0_
dji:__Z105RuntimeInvoker_Void_t1185182177_RuntimeObject_RuntimeObject_RuntimeObject_RuntimeObject_Int32_t2950945753PFvvEPK10MethodInfoPvPS4_
Zff:_ValueCollection_System_Collections_Generic_ICollectionU3CTValueU3E_Add_m3298059628_gshared
fei:__Z64RuntimeInvoker_RuntimeObject_Int16_t2552820387_Int16_t2552820387PFvvEPK10MethodInfoPvPS4_
OU:__Z55Register_UnityEngine_AudioSource_get_spatializeInternalv
gK:__ZN14SafeBinaryRead8TransferI14ConstantStringEEvRT_PKc17TransferMetaFlags
kXb:__ZNK6Camera16GetStereoEnabledEv
Oni:__Z72RuntimeInvoker_Int32_t2950945753_TimeSpan_t881159249_TimeSpan_t881159249PFvvEPK10MethodInfoPvPS4_
Mjg:_SendRecordAsyncResult_SetComplete_m153213906
DVa:__ZN16LightmapSettings23VirtualRedirectTransferER19StreamedBinaryWriteILb0EE
nwc:__ZN12LightManager15InitializeClassEv
WMh:_WaitHandle__cctor_m4242752477
CLa:__ZN9ShaderLab11shaderprops16GetComputeBufferEPK19ShaderPropertySheetS3_NS_16FastPropertyNameE
Pak:__ZN6il2cpp6icalls8mscorlib6System10Reflection10MethodBase31GetMethodFromHandleInternalTypeEii
o8:__ZN23ManagedAttributeManager35CallManagedGetDefaultExecutionOrderE17ScriptingClassPtr
H5:__ZN18ScriptingArgumentsC2Ev
Ctf:_Vector3_op_Equality_m4231250055
qvk:_emscripten_glBlendFuncSeparate__wrapper
ZVa:__ZN15SerializeTraitsI13dynamic_arrayI7Hash128Lj0EEE19ResizeSTLStyleArrayERS2_i
oVg:_FileSystemInfo__ctor_m3769019897
hLi:_Array_InternalArray__get_Item_TisContentType_t1787303396_m421427711_gshared
JYb:__ZNK25CameraStackRenderingState27GetStereoImageEffectTextureEb
Zqf:_HMACSHA384__ctor_m1677515580
$2i:_RIPEMD160Managed_J_m1336489154
bHc:__ZL52__ManagedRegistrationHelperFunction_PlayableDirectorPv
VHj:__ZN6il2cpp6icalls6System6System3Net7Sockets6Socket7ReceiveEiP11Il2CppArrayiiNS4_11SocketFlagsEPi
to:FUNCTION_TABLE_ii
Hva:__ZN10TagManager8TransferI18StreamedBinaryReadILb0EEEEvRT_
rNc:__Z18Transfer_BlittableI9JSONWriteLb0E8BitFieldEvRK29SerializationCommandArgumentsR31RuntimeSerializationCommandInfo
uXg:_MemoryStream_set_Capacity_m1773624579
nXj:__ZNK15dense_hashtableINSt3__24pairIK10KeyWrapperINS1_IP11Il2CppClassjEEES4_EES6_N6il2cpp8metadata14ArrayClassHashEN14dense_hash_mapIS6_S4_SB_NS6_14EqualsComparerINSA_17ArrayClassCompareEEENS0_9allocatorIS8_EEE9SelectKeyESF_SH_E10test_emptyEj
sfc:__ZNSt3__26vectorIN9ShaderLab20SerializedSubProgram15StructParameterENS_9allocatorIS3_EEE8__appendEj
rb:invoke_diiii
$tk:b47
ks:__ZL57__ManagedRegistrationHelperFunction_AnimationClipPlayablePv
Tpi:__Z95RuntimeInvoker_Void_t1185182177_RuntimeObject_RuntimeObject_SByte_t1669577662_SByte_t1669577662PFvvEPK10MethodInfoPvPS4_
Acc:__Z24CreateDirectoryRecursiveRKN4core12basic_stringIcNS_20StringStorageDefaultIcEEEE
Ptk:b41
Ghc:__ZN9ShaderLab20SerializedSubProgram8TransferI18StreamedBinaryReadILb0EEEEvRT_
Mtk:b40
mQ:__ZN11AudioSource23VirtualRedirectTransferER17RemapPPtrTransfer
bhe:__ZL54ContextMenu_t1295656858_CustomAttributesCacheGeneratorP21CustomAttributesCache
c4:__ZN13RuntimeStaticI21ScalableBufferManagerLb0EE13StaticDestroyEPv
Rbd:__ZN2UI13CanvasManager9AddCanvasEPNS_6CanvasE
CZa:__ZN9Texture3D8TransferI19StreamedBinaryWriteILb0EEEEvRT_
RZb:__ZNK6Camera22CalculateRenderingPathEv
Qtk:b42
MOc:__ZN9JSONWrite8TransferI5RectTIfEEEvRT_PKc17TransferMetaFlags
cF:__ZN11UnityEngine9Animation37SetGenericRootTransformPropertyValuesERKNS0_30AnimatorGenericBindingConstantERKN7mecanim10ValueArrayER9Transformbb
HRb:__Z13ConvertMipmap14GraphicsFormatPKvS_Pviiii
bWa:__ZN28EnlightenRendererInformation8TransferI14SafeBinaryReadEEvRT_
PJ:__ZN9Scripting11UnityEngine2XR5Tango24MeshReconstructionServer9InitProxyEv
ptb:__ZL12InvokeMethodI17RemapPPtrTransferEvRK29SerializationCommandArgumentsR31RuntimeSerializationCommandInfo
C0f:_RemoteCertificateValidationCallback_Invoke_m3086073466
jug:_StringComparer_Compare_m991165676
V3c:_tt_sbit_decoder_load_image
VJa:__Z14IsHalfRTFormat19RenderTextureFormat
gQg:_Guid_ToString_m3279186591
cbi:_U3CStartU3Ec__Iterator0_Dispose_m261027331_gshared
DKc:__ZNSt3__24listIN10GUIManager12SortedScriptE11memory_poolIS2_EE6__sortI13OldSortScriptEENS_15__list_iteratorIS2_PvEESA_SA_jRT_
g0i:_Collection_1_System_Collections_IList_Add_m3364892189_gshared
jOi:_List_1_AddEnumerable_m3500350831_gshared
Mcg:_PrivateKeyInfo_get_PrivateKey_m3647771102
sZj:__ZN6il2cpp6icalls8mscorlib6System9ThreadingL11ThreadStartEPv
kfa:__ZN15DirectorManager12OnSampleTimeEv
MHd:_TypeBuilder_check_not_created_m3652863637
Iwd:_StandaloneInputModule_UpdateModule_m450861257
Y1h:_ReadOnlyCollection_1_System_Collections_IList_Insert_m2928873627_gshared
tyh:_EqualityComparer_1__cctor_m314889309_gshared
Xsa:__ZN12CachedReader10Align4ReadEv
l7i:_X501__cctor_m2428304915
Juj:_Canvas_get_renderOrder_m1489855841
Eei:__Z50RuntimeInvoker_Void_t1185182177_Single_t1397266774PFvvEPK10MethodInfoPvPS4_
Nwg:_X501_ToString_m4186311521
Qfj:_Event_ToString_m1688862299
Gta:__ZNK9Behaviour22GetTypeVirtualInternalEv
Ovf:_Debug_LogErrorFormat_m575266265
BLg:_CCGregorianCalendar_month_from_fixed_m4268992710
qgh:_Array_compare_TisUICharInfo_t75501106_m1310495481_gshared
M7b:__Z21GetScriptingArraySize17ScriptingArrayPtr
UWc:__ZN20TextRenderingPrivate8FontImpl8TransferI14SafeBinaryReadEEvRT_
ola:__ZL51__ManagedRegistrationHelperFunction_HideInInspectorPv
ete:__ZL82AnimatorTransitionInfo_t2534804151_CustomAttributesCacheGenerator_m_NormalizedTimeP21CustomAttributesCache
j0h:_ReadOnlyCollection_1_System_Collections_IList_Clear_m4022532825_gshared
Ktg:_Encoding_get_ASCII_m3595602635
$ib:__ZN9GfxDevice17ImmediateTexCoordEifff
oSe:_DerivedType_GetCustomAttributes_m3536779709
$8d:__ZL93Interlocked_t2273387594_CustomAttributesCacheGenerator_Interlocked_CompareExchange_m388540288P21CustomAttributesCache
UHd:_MethodBase_get_IsAbstract_m428833029
Nr:__ZN13ConstraintJob23ConstraintComponentDataC2ERK18PositionConstraint
ntk:_emscripten_glUniform4f__wrapper
QEh:_Enumerator_MoveNext_m2595190390_AdjustorThunk
Ohh:_Array_InternalArray__IndexOf_TisColor32_t2600501292_m3783551884_gshared
U$b:__ZNK6Camera16GetProjectionFarEv
gr:__Z24InverseTransformRotationRK23TransformAccessReadOnlyRKN4math7_float4E
ATc:__ZN11UnityEngine9Analytics16StartupTimeEvent23SetSplashScreenTimeInfoEyyy
l8i:_X509Chain_Build_m2469702749
pQ:__ZN11AudioSource6UpdateEv
eod:__Z31GetPerformanceReportingSettingsv
_Na:__ZNK14PlayableOutput11DerivesFromE17ScriptingClassPtr
dQa:__ZN7Texture34CreateFileTextureUploadInstructionE18TextureUploadFlagsj
QSd:__ZN25GenericVirtActionInvoker06InvokeEPK10MethodInfoP12Il2CppObject
pWd:__ZL64SerializableAttribute_t1992588303_CustomAttributesCacheGeneratorP21CustomAttributesCache
tfb:__ZN25SingleBlockMemoryFileDataC2E10MemLabelIdPvjb
eG:__ZN8Animator8TransferI14SafeBinaryReadEEvRT_
maa:__Z23AsyncReadForceCloseFileRKN4core12basic_stringIcNS_20StringStorageDefaultIcEEEE
dW:__ZN16BaseVideoTexture19UpdateVideoTexturesEv
VKd:_MonoField_GetValue_m3124733531
q7a:__ZNK16LightmapSettings23HasLightProbeTetrahedraEv
HWa:__ZN6Sprite23VirtualRedirectTransferER19StreamedBinaryWriteILb0EE
Nlc:__ZN2UI13RectTransform12SetAnchorMaxERK8Vector2f
zXj:__ZN14dense_hash_mapI10KeyWrapperIP11Il2CppClassES2_N6il2cpp8metadata16SZArrayClassHashENS3_14EqualsComparerINS5_19SZArrayClassCompareEEENSt3__29allocatorINSA_4pairIKS3_S2_EEEEE13set_empty_keyERSD_
vtd:_EventTrigger_Execute_m2453060771
l3h:_Comparison_1_Invoke_m517083441_gshared
bNj:__ZNK15dense_hashtableINSt3__24pairIK10KeyWrapperINS1_IPK9FieldInfoP11Il2CppClassEEEjEES9_17ReflectionMapHashIS8_EN14dense_hash_mapIS9_jSD_NS9_14EqualsComparerINS0_8equal_toIS8_EEEENS0_9allocatorISB_EEE9SelectKeyESI_SK_E5beginEv
M7j:__ZN6il2cpp2os6Thread15CurrentThreadIdEv
dE:__ZN15SerializeTraitsIN4math4trsXEE8TransferI8BlobSizeEEvRS1_RT_
nPb:__ZN14DataBufferGLES11CopySubDataEPKS_jjj
ee:_emscripten_glVertexPointer
pLj:__ZN6il2cpp2vm7Runtime47RaiseExecutionEngineExceptionIfMethodIsNotFoundEPK10MethodInfo
Y9i:_PatternCompiler_GetMachineFactory_m3758869886
i3b:__Z17GetFrustumPortionPK8Vector3fffPS_
r0j:__ZN15dense_hashtableINSt3__24pairIK10KeyWrapperIP14Il2CppIUnknownEjEES5_N6il2cpp5utils11PointerHashIS3_EEN14dense_hash_mapIS5_jSB_NS5_14EqualsComparerINS0_8equal_toIS4_EEEENS0_9allocatorIS7_EEE9SelectKeyESG_SI_E14squash_deletedEv
Mtd:_EventTrigger_OnCancel_m585099428
ehj:_GUILayoutEntry_ApplyOptions_m1741659338
Dnf:_RuntimeTypeHandle_Equals_m2857439487_AdjustorThunk
xhb:__ZNK9GfxDevice27GetPlatformAdjustedViewportEv
DWf:_ScrollRect_get_rectTransform_m2442061719
dZh:_ReadOnlyCollection_1_System_Collections_Generic_IListU3CTU3E_set_Item_m88350439_gshared
Y8:__ZNSt3__26vectorINS_4pairIiiEE13stl_allocatorIS2_L18MemLabelIdentifier38ELi16EEE6insertENS_11__wrap_iterIPKS2_EEOS2_
Xea:__ZNSt3__26__treeINS_12__value_typeIPvsEENS_19__map_value_compareIS2_S3_NS_4lessIS2_EELb1EEE13stl_allocatorIS3_L18MemLabelIdentifier86ELi16EEE25__emplace_unique_key_argsIS2_JNS_4pairIS2_sEEEEENSD_INS_15__tree_iteratorIS3_PNS_11__tree_nodeIS3_S2_EEiEEbEERKT_DpOT0_
Qkj:_StandardEventPayload_IsRequiredDataValid_m361738930
iod:__GLOBAL__sub_I_artifacts_WebGL_codegenerator_0_cpp_6966
Gcj:_Reference_Compile_m4195878675
alk:_InputBuffer_remove_onCommandSent_m3139499669
C$h:_ReadOnlyCollection_1_System_Collections_ICollection_CopyTo_m2672196987_gshared
Xzc:__ZN16StreamedResource8TransferI24GenerateTypeTreeTransferEEvRT_
XGf:_RectTransform_get_anchorMin_m2928307238
_Fg:_ArrayList__ctor_m3828927650
dDa:__ZN10Matrix3x3f15InvertTransposeEv
qhj:_GUILayoutGroup_SetHorizontal_m996475327
hhj:_GUILayoutEntry__cctor_m663865902
FWb:__Z11IsBatchmodev
tDh:_Enumerator_System_Collections_IEnumerator_get_Current_m713684915_gshared
Rrb:__Z29Transfer_Blittable_ArrayFieldI14SafeBinaryRead8Vector3fEvRT_R9ArrayInfoRK23StaticTransferFieldInfo
JXc:__ZN20TextRenderingPrivate8FontImpl18ResetCachedTextureEv
TJj:__ZN6il2cpp6icalls8mscorlib6SystemL16GetFieldFromTypeINS_5utils10functional6FilterINSt3__212basic_stringIcNS7_11char_traitsIcEENS7_9allocatorIcEEEENS4_13VmStringUtils21CaseSensitiveComparerEEEEEP21Il2CppReflectionFieldP11Il2CppClassSK_iRKT_
Z2f:_X509KeyUsageExtension_Decode_m3150759625
Adk:_GC_print_finalization_stats
Xhj:_GUITargetAttribute_GetGUITargetAttrValue_m2954410352
qmc:__Z53Register_UnityEngine_Behaviour_get_isActiveAndEnabledv
bCg:_SimpleEnumerator_get_Current_m72361444
Iq:__ZNSt3__26vectorIN4core12basic_stringIcNS1_20StringStorageDefaultIcEEEENS_9allocatorIS5_EEE8__appendEj
oW:__ZN13ProduceHelperI10SampleClipLb0EE7ProduceE10MemLabelId18ObjectCreationMode
C2a:__ZN26PlayerSettingsSplashScreen8TransferI17RemapPPtrTransferEEvRT_
Voh:_ASN1_set_Value_m2803403806
_Jj:__ZN6il2cpp6icalls8mscorlib6SystemL17CollectTypeFieldsINS_5utils10functional10TrueFilterEEEvP11Il2CppClassPKS7_iRNSt3__26vectorIP9FieldInfoNSB_9allocatorISE_EEEERKT_
lnc:__Z13GetTagManagerv
Fzg:_Hashtable__ctor_m1815022027
FKh:_UTF8Encoding_GetChars_m1433288684
bF:__ZN11UnityEngine9Animation37HasGenericRootTransformPropertyValuesERKNS0_30AnimatorGenericBindingConstantEb
OX:__ZN11UnityEngine15CloudWebService17CloudJobSchedulerD0Ev
qWe:_ArrayReadOnlyList_1_Contains_m381552673_gshared
gTc:__ZN11UnityEngine9Analytics26PerformanceReportingConfig13ConfigChangedERKN4core12basic_stringIcNS2_20StringStorageDefaultIcEEEER8JSONRead
Aei:__Z96RuntimeInvoker_Boolean_t97287965_RuntimeObject_RuntimeObject_Int32_t2950945753_Int32_t2950945753PFvvEPK10MethodInfoPvPS4_
Tgh:_Array_IndexOf_TisUICharInfo_t75501106_m3198896198_gshared
Uad:__ZNK2UI11CanvasGroup22GetTypeVirtualInternalEv
Chg:_Context_get_Current_m2853615040
OKc:__Z21CleanupGlobalGUIStatev
vPh:_Type_IsContextfulImpl_m3693603908
lEh:_Enumerator_VerifyState_m2873941769_gshared
mBb:__Z18Transfer_BlittableI18StreamedBinaryReadILb0EELb1EN4math12int3_storageEEvRK29SerializationCommandArgumentsR31RuntimeSerializationCommandInfo
XTb:__ZN22VertexDeclarationCache5ClearEv
ipf:_CspParameters__ctor_m3852972821
Qac:__ZN17PersistentManager12SetPathRemapERKN4core12basic_stringIcNS0_20StringStorageDefaultIcEEEES6_
Ny:__Z27ProcessRootMotionEmptyMixerP35AnimationPlayableEvaluationConstantP32AnimationPlayableEvaluationInputP33AnimationPlayableEvaluationOutput
P4b:__ZN6Camera24PrepareCullingParametersERK23CameraCullingParameters13RenderingPathR11CullResults
_4b:__Z20CullReflectionProbesR8JobFenceRK22SceneCullingParametersRK23ReflectionProbesContextPKjjPjS9_
e6a:__ZN19RuntimeSceneManager22EndIntegrateMainThreadEP10UnitySceneNS_11LoadingModeE
fIi:_Array_Sort_TisUICharInfo_t75501106_m3474449559_gshared
zwg:_Buffer_BlockCopy_m2884209081
rtb:__Z26Transfer_UnityEngineObjectI17RemapPPtrTransferLb0EEvRK29SerializationCommandArgumentsR31RuntimeSerializationCommandInfo
Vaj:_QuickSearch_GetShiftDistance_m2542665852
HKi:_Array_InternalArray__get_Item_TisCustomAttributeTypedArgument_t2723150157_m2639399822_gshared
hnh:_BigInteger_GenerateRandom_m3141592944
Nvb:__Z29Transfer_Blittable_ArrayFieldI24GenerateTypeTreeTransfer4AABBEvRT_R9ArrayInfoRK23StaticTransferFieldInfo
AHc:__ZN9Scripting11UnityEngine12StylePainter12CleanupProxyEv
P8f:_Interval_Contains_m1454846757
VDd:_Graphic_CacheCanvas_m1120385152
mI:__ZN26AnimatorOverrideController15InitializeClassEv
EHc:__ZN9Scripting11UnityEngine15ScrollViewState12CleanupProxyEv
UNf:_InputField_set_contentType_m1277230266
ulk:_emscripten_GetProcAddress
Ca:invoke_fiiifii
Pmk:_modff
bIa:__ZN20SphericalHarmonicsL219AddDirectionalLightERKN4math7_float3ERKNS0_7_float4E
bfa:__Z26ScheduleJobForEachInternalR8JobFencePFvPvjES1_iPFvS1_E11JobPriority
bWb:__ZZ23InitPlayerLoopCallbacksvEN41PostLateUpdateProfilerEndFrameRegistrator7ForwardEv
Rjc:__ZN9Scripting18RaiseMonoExceptionEPKcz
Tyc:__ZN10GameObject17WillHandleMessageERK17MessageIdentifier
Oog:_StrongNamePublicKeyBlob_Equals_m3655422942
Lpg:_SecurityContext__ctor_m1730177197
Ovj:_RectTransformUtility_GetTransposed_m3952754222
Ywc:__ZN9ShaderLab16FastPropertyName15InitBy28BitHashEj
jNi:_List_1_System_Collections_IList_set_Item_m4182383657_gshared
Ihi:__Z96RuntimeInvoker_Void_t1185182177_Int32_t2950945753_Single_t1397266774_RuntimeObject_RuntimeObjectPFvvEPK10MethodInfoPvPS4_
B8e:_Enumerator_System_Collections_IDictionaryEnumerator_get_Key_m195047678_AdjustorThunk
Iuj:_Canvas_get_pixelPerfect_m333060872
B$a:__ZN17PackedFloatVector12UnpackFloatsEPfiiii
VB:__ZN17AnimationPlayable28UpdateInternalStateRecursiveILi3ELb0EEEvPK35AnimationPlayableEvaluationConstant
WMb:__ZN13GfxDeviceGLES21DestroyComputeProgramER12ObjectHandleI18ComputeProgram_TagPvE
jeh:_Enumerable_Any_TisRuntimeObject_m3853239423_gshared
saj:_PatternCompiler_EmitIfDefined_m2075050865
Q7g:_Decimal_System_IConvertible_ToInt64_m1446427516_AdjustorThunk
yca:__ZN17UniqueIDGenerator16DestroyPureIndexEj
oMe:_NotImplementedException__ctor_m3095902440
C8:__ZL21AppendNestedClassName17ScriptingClassPtrRN4core17string_with_labelILi1EEE
$ec:__ZN14SafeBinaryRead21TransferSTLStyleArrayINSt3__26vectorIN9ShaderLab20SerializedSubProgram12UAVParameterENS1_9allocatorIS5_EEEEEEvRT_17TransferMetaFlags
XXj:__ZN6il2cpp8metadata13ArrayMetadata20SetupArrayInterfacesEP11Il2CppClassRKNS_2os12FastAutoLockE
_Nf:_InputField_set_inputType_m424695295
LY:__ZN24TextDOMTransferWriteBaseI9JSONWriteE12PushMetaFlagEi
GPc:__Z18Transfer_BlittableI8JSONReadLb1E10ColorRGBAfEvRK29SerializationCommandArgumentsR31RuntimeSerializationCommandInfo
kia:__ZN6prcoreL26RemapGenericIntegerToFloatI17TexFormatARGB888815TexFormatRFloatEEvPKNS_9InnerInfoE
sJj:__ZN6il2cpp2vm10ThreadPool10InitializeEv
FQi:_List_1__ctor_m808270210_gshared
qTj:__ZN6il2cpp2vm17TypeNameParseInfoD2Ev
hBh:_PrimeHelper_ToPrime_m3704362632_gshared
cN:__ZN4FMOD7Channel7setModeEj
y7g:_Decimal_System_IConvertible_ToType_m2919262279
BLf:_Vector2_get_right_m1027081661
AUa:__ZNK8Renderer8GetLayerEv
rYg:_Stream_Close_m771352034
x6e:__ZN21InterfaceFuncInvoker1Ii19TimeSpan_t881159249E6InvokeEjP11Il2CppClassP12Il2CppObjectS0_
yHa:__ZN12FlareManager11DeleteFlareEi
b$b:__ZNK6Camera20GetReplacementShaderEv
CTi:_List_1_System_Collections_IList_Remove_m4226673807_gshared
Thk:__ZNSt3__26__treeINS_12__value_typeINS_12basic_stringIcNS_11char_traitsIcEENS_9allocatorIcEEEEPFvvEEENS_19__map_value_compareIS7_SA_NS_4lessIS7_EELb1EEENS5_ISA_EEE4findIS7_EENS_15__tree_iteratorISA_PNS_11__tree_nodeISA_PvEEiEERKT_
aPa:__ZL23stbir__calculate_memoryP11stbir__info
Z7f:_Interpreter_Close_m126356671
jVc:__ZN9Scripting11UnityEngine14SphereCollider12CleanupProxyEv
WZa:__ZNK6Camera18GetRenderRectangleEv
A3j:__ZN6il2cpp8metadata15GenericMetadata7InflateEPK19Il2CppGenericMethodPK20Il2CppGenericContext
TSc:__ZN9Scripting11UnityEngine22ParticleCollisionEvent9InitProxyEv
mYa:__ZN13sorted_vectorIN4core12basic_stringIcNS0_20StringStorageDefaultIcEEEENSt3__24lessIS4_EE13stl_allocatorIS4_L18MemLabelIdentifier81ELi16EEE4findIS4_EENS5_11__wrap_iterIPS4_EERKT_
Qxc:__Z13RegisterClassI30RuntimeInitializeOnLoadManagerEvPKc
kbj:_Parser_HandleExplicitNumericGroups_m1412234891
fLi:_Array_InternalArray__get_Item_TisRaycastHit2D_t2279581989_m2440275162_gshared
CQe:_CustomAttributeNamedArgument_Equals_m1414002036
lQc:__ZL26Transfer_SimpleNativeClassI8JSONRead10RectOffsetLb1EEvRK29SerializationCommandArgumentsR31RuntimeSerializationCommandInfo
Ddd:__Z44CanvasRenderer_CUSTOM_INTERNAL_CALL_SetColorP12Il2CppObjectRK10ColorRGBAf
lDa:__Z26TransformVerticesInnerLoopILb1ELb1ELb1EEvPhRK10Matrix4x4fRK10Matrix3x3fjPKhiS8_ii25GfxTransformVerticesFlagsj
ICh:_Enumerator_System_Collections_IEnumerator_Reset_m959124362_AdjustorThunk
i_b:__ZNK20DynamicPropertySheet18FindQueuedPropertyEN9ShaderLab16FastPropertyNameEN19ShaderPropertySheet12PropertyTypeE
ibh:_Enum_ToObject_m121831801
iGd:_Image_get_hasBorder_m3423344180
Rhd:__Z48UnityAnalyticsHandler_CUSTOM_SendCustomEventNameP12Il2CppObjectP12Il2CppString
Tpc:__ZN9Transform16SetLocalRotationERK11Quaternionf
Wla:__ZL49__ManagedRegistrationHelperFunction_CommandBufferPv
bXb:__ZN13RenderManager37RenderCamerasWithScriptableRenderLoopEi
gNh:_TimeSpan__ctor_m3689759052
xMb:__ZN13GfxDeviceGLES22ReleaseThreadOwnershipEv
XDi:__Z37RuntimeInvoker_Enumerator_t3123848928PFvvEPK10MethodInfoPvPS4_
f4j:__ZN6il2cpp2os19ReleaseSocketHandleEj
tV:__ZN11AudioModule16GetDSPSampleRateEv
sNf:_InputField_get_characterValidation_m4196664041
yOh:_Type_get_Attributes_m58528356
xyf:_SpriteBone_t303320096_marshal_pinvoke
Swg:_Array_GetUpperBound_m4018715963
U8i:_X509Store__ctor_m2736551756
fsc:__Z13RegisterClassI9TextAssetEvPKc
B5j:__ZN6il2cpp2os5posix15PosixWaitObjectC2ENS2_4TypeE
gZb:__ZN6Camera21PostMultiCustomRenderENS_10RenderFlagEb
NEi:_Array_InternalArray__Insert_TisMonoResource_t4103430009_m1997865927_gshared
Jmg:_SHA512Managed_HashFinal_m2173184560
xSb:__ZN12_GLOBAL__N_112UploadImagesEP7ApiGLESjji14GraphicsFormatPKhjS2_iiii16TextureUsageModePh
kJb:__ZN23ShaderVariantCollection13WarmupShadersEv
ftc:__ZN13ProduceHelperI9TransformLb0EE7ProduceE10MemLabelId18ObjectCreationMode
j8:__Z25GetCommonScriptingClassesv
O6a:__Z27scripting_gc_collect_unsafei
mcg:_MD5SHA1_HashFinal_m4115488658
yV:__ZN11AudioModule20SuspendVideoTexturesEv
vih:_Array_InternalArray__ICollection_Add_TisKeyValuePair_2_t71524366_m3468275433_gshared
Ead:__ZN9Scripting11UnityEngine9CSSLayout6Native9InitProxyEv
DU:__Z59Register_UnityEngine_AudioExtensionManager_GetAudioListenerv
dvb:__Z26Transfer_UnityEngineObjectI24GenerateTypeTreeTransferLb0EEvRK29SerializationCommandArgumentsR31RuntimeSerializationCommandInfo
H1g:_Convert_ToDouble_m278900635
P0c:_UNITY_FT_GlyphLoader_CheckPoints
awf:_DebugLogHandler_LogException_m302830419
oPf:_InputField_LineDownCharacterPosition_m2798128425
E9e:_Enumerator_System_Collections_IDictionaryEnumerator_get_Value_m684446183_AdjustorThunk
GHa:__ZN15SharedLightData7PrecalcEv
Uxa:__ZN10Matrix4x4fmLERKS_
JFf:_Vector2__ctor_m3970636864
nxa:__ZN17TransformInternal12InitLocalTRSE15TransformAccessRKN4math7_float3ERKNS1_7_float4ES4_
Gyb:__Z35Transfer_Blittable_FixedBufferFieldI18StreamedBinaryReadILb1EEsEvRK29SerializationCommandArgumentsR31RuntimeSerializationCommandInfo
Gbh:_Environment_InternalGetFolderPath_m468390978
Ekd:__ZN11UnityEngine15PlatformWrapper18GetOperatingSystemEv
uqg:_SecurityFrame_ToString_m339310712
WZd:__ZL62ParamArrayAttribute_t3664765590_CustomAttributesCacheGeneratorP21CustomAttributesCache
PQc:__ZN8GUIStyle8TransferI8JSONReadEEvRT_
jxd:_TouchInputModule_ProcessTouchPress_m3504077560
qYf:_Selectable_IsInteractable_m2611421038
t0c:_FT_MSB
xxk:_emscripten_glReadPixels__wrapper
yBh:_HashSet_1_Add_m1971460364_gshared
fik:__ZN6il2cpp6icalls8mscorlib4Mono8Security12Cryptography18KeyPairPersistence10_CanSecureEP12Il2CppString
Ach:_Array_InternalArray__ICollection_Contains_TisParameterModifier_t1461694466_m1000453323_gshared
qth:_Dictionary_2_System_Collections_ICollection_CopyTo_m4047192178_gshared
MLj:__ZN6il2cpp2os4File11GetFileStatERKNSt3__212basic_stringIcNS2_11char_traitsIcEENS2_9allocatorIcEEEEPNS0_8FileStatEPi
rhd:__ZN14UnityAnalytics22HandleCustomEventLimitERN11UnityEngine9Analytics15UserCustomEventE
etc:__ZN9TransformC2E10MemLabelId18ObjectCreationMode
aLb:__ZN13GfxDeviceGLES14SetRasterStateEPK17DeviceRasterState
pPe:_Assembly_ToString_m2053237013
HAf:_Vector4_Equals_m1779210055
E2c:_otv_Coverage_get_count
RMd:_ParameterModifier_t1461694466_marshal_pinvoke_back
lsa:__ZN14SafeBinaryRead11EndTransferEv
Ezh:_EqualityComparer_1__cctor_m2741186979_gshared
RQ:__ZN20SoundChannelInstance19set3DMinMaxDistanceEff
_ah:_Enum_System_IConvertible_ToUInt16_m4216751959
dTb:__ZN21UniformBufferTFMethod13MapBoneBufferEj
Xkk:_StringExtension_Anagram_m968226828
Qkh:_Array_InternalArray__Insert_TisInt32_t2950945753_m4073217122_gshared
Nkg:_RNGCryptoServiceProvider_RngClose_m3915778345
d_g:_SortedList_Remove_m2784369438
ORa:__ZN4crnd12crn_unpacker10unpack_dxnEPPhjjj
W8:__ZN14SerializedFileD2Ev
lIc:__Z30Event_Get_Custom_PropModifiersP12Il2CppObject
uw:__ZN7mecanim9animation16CreateClipOutputEPKNS0_4ClipERNS_6memory9AllocatorE
VTf:_RawImage_get_mainTexture_m2396337033
YLj:__ZN6il2cpp2vm10Reflection17GetAssemblyObjectEPK14Il2CppAssembly
ADb:__ZNSt3__218__stable_sort_moveIRN10vector_mapI17ScriptingClassPtrPKN5Unity4TypeENS_4lessIS2_EENS_9allocatorINS_4pairIS2_S6_EEEEE13value_compareENS_11__wrap_iterIPSB_EEEEvT0_SJ_T_NS_15iterator_traitsISJ_E15difference_typeEPNSM_10value_typeE
Qdc:__ZN6Shader21AwakeFromLoadThreadedEv
uha:__ZN6prcoreL17RemapGenericFloatI17TexFormatRGBFloat17TexFormatRGBAHalfEEvPKNS_9InnerInfoE
cnh:_BigInteger__ctor_m3991350270
_oc:__Z58Register_UnityEngine_PlayerConnectionInternal_PollInternalv
pLf:_Vector2_GetHashCode_m3916089713_AdjustorThunk
ujk:__ZN6il2cpp2os9SemaphoreC2Eii
Rpb:__ZNSt3__26vectorI8MonoPPtr13stl_allocatorIS1_L18MemLabelIdentifier1ELi16EEE8__appendEj
JZb:__ZN14qsort_internal30FindAndMovePivotToLastPositionIP17RODataReplacementi19ROSorterReplacementEEvT_S4_T0_T1_
oTb:__ZN15UniformTFMethod20IsBoneCountSupportedEi
OSh:_UnauthorizedAccessException__ctor_m246605039
Wvc:__Z12BuildTextureIA4_tPFvP9Texture2DPS0_iiiiEES2_PKcii13TextureFormatRKT0_17TextureColorSpaceb
Krk:dynCall_viidi
dbf:_KeyCollection__ctor_m1356492051_gshared
S5:__ZN24ScriptingMethodFiltering17FilterOnSignatureENS_18MethodSearchFilterE
lhd:__ZNSt3__26__treeINS_12__value_typeIN4core12basic_stringIcNS2_20StringStorageDefaultIcEEEEN11UnityEngine9Analytics15UserCustomEvent11CustomValueEEENS_19__map_value_compareIS6_SB_NS_4lessIS6_EELb1EEE13stl_allocatorISB_L18MemLabelIdentifier6ELi16EEE7destroyEPNS_11__tree_nodeISB_PvEE
R$c:_cf2_arrstack_finalize
J7i:_X509Certificate_VerifySignature_m3538124832
vYg:_StreamAsyncResult_SetComplete_m1102187093
Fuc:__ZN13MonoBehaviour19HandleNotificationsEPviR11MessageData
GGf:_RectOffset_Init_m2028508611
Vjk:__ZN6il2cpp2os9EventImpl5ResetEv
Ddg:_Alert__ctor_m3135936936
KSg:_Int64_System_IConvertible_ToInt32_m772105781
D4i:_TlsClientSettings__ctor_m3220697265
ZPj:__ZNK15dense_hashtableINSt3__24pairIK10KeyWrapperINS1_IPK9EventInfoP11Il2CppClassEEEjEES9_17ReflectionMapHashIS8_EN14dense_hash_mapIS9_jSD_NS9_14EqualsComparerINS0_8equal_toIS8_EEEENS0_9allocatorISB_EEE9SelectKeyESI_SK_E23find_position_with_hashERSA_j
Wqd:__ZL45__ManagedRegistrationHelperFunction_SubsystemPv
Gsh:_Dictionary_2_make_pair_m2250450206_gshared
dIh:_ForwardingDecoder_GetChars_m4228908854
s8f:_InterpreterFactory_get_GroupCount_m2226373271
ruk:b53
ouk:b50
puk:b51
uuk:b56
vuk:b57
suk:b54
tuk:b55
Gs:__ZL45__ManagedRegistrationHelperFunction_HumanBonePv
Ylh:_SimpleCollator_IsSafe_m310268646
Mxg:_X509Certificate_get_RawData_m2387471414
Zvk:_glDetachShader__wrapper
iCg:_ArrayTypeMismatchException__ctor_m3375008173
Mcf:_Transform_1_BeginInvoke_m1757796657_gshared
Ooa:__ZN9Scripting11UnityEngine7Hash12812CleanupProxyEv
Wtc:__ZN10GameObject12CleanupClassEv
zhb:__ZN9GfxDevice25SetShaderPropertiesSharedERK19ShaderPropertySheet
Bnd:__ZN11UnityEngine7Connect20RemoteConfigSettingsC2ERKN4core12basic_stringIcNS2_20StringStorageDefaultIcEEEEPFvPS1_E18ScriptingObjectPtr
Xxd:_BaseMeshEffect_get_graphic_m1852367505
SIg:_CaseInsensitiveHashCodeProvider_GetHashCode_m2168170016
Tkb:__ZN18AsyncUploadManager19AsyncResourceUploadER9GfxDeviceii9TextureID
Upa:__ZN9Scripting11UnityEngine12Experimental18GlobalIllumination11LightDataGI12CleanupProxyEv
Auc:__ZL25InitializeDefaultMaterialv
YGd:_PropertyBuilder_GetCustomAttributes_m3798356764
VMd:_PropertyInfo_get_MemberType_m2794839864
Fkj:_EventTrigger_RemoveRule_m1596811726
x7e:_Comparer_1_System_Collections_IComparer_Compare_m4179495191_gshared
Z7a:__ZN17PersistentManager12UnloadStreamERKN4core12basic_stringIcNS0_20StringStorageDefaultIcEEEEb
kfb:__ZN10MemoryFile4ReadEyyPvPy
kFi:_Array_InternalArray__Insert_TisUICharInfo_t75501106_m2924156520_gshared
lih:_MonoProperty_GetterAdapterFrame_TisRuntimeObject_TisRuntimeObject_m458718082_gshared
CHi:_Array_Sort_TisInt32_t2950945753_TisInt32_t2950945753_m3955828611_gshared
vVj:_il2cpp_unity_liveness_calculation_from_statics
yxi:__Z70RuntimeInvoker_Boolean_t97287965_CharU26_t1697032762_Int16_t2552820387PFvvEPK10MethodInfoPvPS4_
eA:__ZNK26AnimatorControllerPlayable11DerivesFromE17ScriptingClassPtr
N4e:_InternalEnumerator_1_System_Collections_IEnumerator_get_Current_m2649471526_gshared
mVa:__ZN8Renderer8TransferI17RemapPPtrTransferEEvRT_
Z7b:__ZN13RenderTexture16SetSRGBReadWriteEb
xPa:__ZN6prcore16BlitFuncInfoSIMD19BlitFuncExecuteSIMDEPKNS_9InnerInfoEPKv
Wod:__ZN20UnityWebRequestProtoI24UnityWebRequestTransport16AtomicRefCounter14RedirectHelper14ResponseHelper15DownloadHandler13UploadHandler18CertificateHandler12HeaderHelper14AsyncOperationE9DoRequestEv
x8e:_Enumerator_System_Collections_IDictionaryEnumerator_get_Entry_m522483686_gshared
$qh:_PrivateKeyInfo_RemoveLeadingZero_m3921889925
PLh:_Thread_get_CurrentContext_m1695017876
j8b:__Z24LookRotationToQuaternionRK8Vector3fS1_P11Quaternionf
h8b:__ZN16ReflectionProbes9GetCameraEv
V2b:__Z23CalculateLightOcclusionRK17LightProbeContextRK29LightProbeSamplingCoordinatesi
Vic:__ZL18IsGpuProgramUsable20ShaderGpuProgramTypePK6Shader
scd:__ZN2UI6Canvas17SetSortingLayerIDEi
y5j:__ZN6il2cpp2vm11MethodStack23CleanupForCurrentThreadEv
q4g:_Convert_ToUInt64_m388601487
MFa:__ZN20TierGraphicsSettings8TransferI24GenerateTypeTreeTransferEEvRT_
UEj:__ZN15dense_hashtableINSt3__24pairIK10KeyWrapperIN6il2cpp5utils13dynamic_arrayIPK10Il2CppTypeLj4EEEEPFvvEEESA_NS3_8metadata19Il2CppSignatureHashEN14dense_hash_mapISA_SD_SG_NSA_14EqualsComparerINSF_22Il2CppSignatureCompareEEENS0_9allocatorISE_EEE9SelectKeyESK_SM_E16reset_thresholdsEv
MJf:_TouchScreenKeyboard_get_text_m1797464608
nNa:__ZN18UnityPropertySheet8TransferI19StreamedBinaryWriteILb0EEEEvRT_
ct:__ZN9Scripting11UnityEngine27AnimatorControllerParameter9InitProxyEv
$fa:__ZNSt3__26__treeINS_12__value_typeIiN11TypeManager18TypeCallbackStructEEENS_19__map_value_compareIiS4_NS_4lessIiEELb1EEENS_9allocatorIS4_EEE7destroyEPNS_11__tree_nodeIS4_PvEE
mBa:__ZN9ShaderLab32FindBestMatchingShaderKeywordSetERK16ShaderKeywordSetRK13dynamic_arrayIS0_Lj0EEPS5_
yzc:__ZNK14PlayableOutput23GetSourcePlayableUnsafeEv
zjd:__ZN11UnityEngine7Connect17XRDeviceInfoEventD0Ev
f5d:__ZL60SoapTypeAttribute_t1750930817_CustomAttributesCacheGeneratorP21CustomAttributesCache
WPe:_Binder_ConvertArgs_m2124461494
odc:__ZN21UnityDefaultAllocatorI17LowLevelAllocatorE10DeallocateEPv
$xk:b86
KH:__ZN15PackedIntVector8TransferI14SafeBinaryReadEEvRT_
DLf:_Vector3__ctor_m3353183577_AdjustorThunk
rZe:_InternalEnumerator_1_System_Collections_IEnumerator_get_Current_m1514266661_gshared
lcg:_MD5SHA1_Initialize_m675470944
gjh:_Array_InternalArray__ICollection_Add_TisKeyframe_t4206410242_m442111799_gshared
fRi:_List_1_CheckMatch_m3263549496_gshared
IEf:_PropertyNameUtils_PropertyNameFromString_Injected_m1259736140
jT:__ZN13AudioListener8DoUpdateEv
lLc:__ZN5Unity9rapidjson13GenericReaderINS0_4UTF8IcEES3_13JSONAllocatorE9ParseTrueILj1ENS0_25GenericInsituStringStreamIS3_EENS0_15GenericDocumentIS3_S4_S4_EEEEvRT0_RT1_
NJe:__Z13bankers_roundd
r2a:__ZN14SafeBinaryRead8TransferI5RectTIfEEEvRT_PKc17TransferMetaFlags
qi:_emscripten_glGenFramebuffers
Wfa:__ZN17BaseObjectManager16StaticInitializeEPv
Ona:__ZN9Scripting11UnityEngine9Profiling8Profiler12CleanupProxyEv
HNc:__Z18Transfer_BlittableI9JSONWriteLb0EyEvRK29SerializationCommandArgumentsR31RuntimeSerializationCommandInfo
zKa:__ZN13RenderTexture15ThreadedCleanupEv
L3f:_X509BasicConstraintsExtension__ctor_m3721156175
tQa:__ZN12CubemapArray23VirtualRedirectTransferER14SafeBinaryRead
xw:__ZN21AnimationClipPlayable16ProcessHumanPassEPK35AnimationPlayableEvaluationConstantPK32AnimationPlayableEvaluationInputP33AnimationPlayableEvaluationOutput
QUg:_Path_GetFileName_m1354558116
LDc:__Z51Register_UnityEngine_QualitySettings_set_vSyncCountv
Wuk:_emscripten_glUniform3i__wrapper
tmh:_SimpleCollator_IsPrefix_m3581642267
oGf:_Rect_Contains_m1232228501_AdjustorThunk
Rlc:__Z43RectTransform_CUSTOM_INTERNAL_set_sizeDeltaP12Il2CppObjectRK13Vector2fIcall
TSg:_Int64_System_IConvertible_ToType_m3223988955_AdjustorThunk
m1j:__ZN15dense_hashtableINSt3__24pairIK10KeyWrapperINS1_IPKcS4_EEEiEES6_24NamespaceAndNamePairHashN14dense_hash_mapIS6_iS9_NS6_14EqualsComparerI26NamespaceAndNamePairEqualsEENS0_9allocatorIS8_EEE9SelectKeyESD_SF_E6insertERKS8_
$ta:__ZN24GenerateTypeTreeTransfer18BeginArrayTransferEPKcS1_Ri17TransferMetaFlags
dLi:_Array_InternalArray__get_Item_TisPlayableBinding_t354260709_m3837494573_gshared
pm:___syscall51
Ctg:_String_CreateString_m4016935005
H9i:_MatchCollection_get_FullList_m1829231879
tm:___syscall54
_Ag:_Array_GetValue_m2528415604
zHf:_Transform_INTERNAL_CALL_TransformPoint_m4261269221
cQg:_Guid_AppendShort_m791023083
BRi:_List_1__ctor_m4212503576_gshared
t7c:_ft_var_get_item_delta
DIg:_BitArrayEnumerator_MoveNext_m3806676766
Q0c:_cff_builder_add_point1
v2j:__ZN6il2cpp2vm5Image21GetCachedResourceDataEPK11Il2CppImageRKNSt3__212basic_stringIcNS5_11char_traitsIcEENS5_9allocatorIcEEEE
zob:__Z18Transfer_BlittableI14SafeBinaryReadLb0E10ColorRGBAfEvRK29SerializationCommandArgumentsR31RuntimeSerializationCommandInfo
za:invoke_iiiiiiiiii
sU:__ZN11AudioSource25GetNumExtensionPropertiesEv
skh:_Array_InternalArray__ICollection_CopyTo_TisUILineInfo_t4195266810_m104406798_gshared
Msc:__ZZL31RegisterRectTransformPropertiesR22GenericPropertyBindingEN32Wrapper_RectTransformAnchorMaxx013GetFloatValueEPv
Pvf:_Debug_LogErrorFormat_m3558239521
RDd:_Graphic_get_canvas_m3320066409
NOf:_InputField_ActivateInputFieldInternal_m3360893886
m2i:_RijndaelManagedTransform__ctor_m1033522223
wcc:__ZN10FileSystem19SetCurrentDirectoryERKN4core12basic_stringIcNS0_20StringStorageDefaultIcEEEE
Zuf:_Component_get_gameObject_m442555142
QJe:_Math_Log_m2526073084
ltc:__ZN23TransformChangeDispatch24RemovePermanentInterestsE15TransformAccessPKN5Unity4TypeE
LEc:__Z47Register_UnityEngine_Coroutine_ReleaseCoroutinev
CL:__ZN15AudioReverbZone13SetFMODValuesEv
b7:__ZN14SafeBinaryRead4InitERK16TypeTreeIteratorxx24TransferInstructionFlags10MemLabelId
H2:__ZL19StaticDestroyShaderPv
$d:_glRenderbufferStorageMultisample
qB:__ZN23AnimationPlayableOutput17SetTargetAnimatorEP8Animator
l0b:__ZN22MotionVectorRenderLoopD2Ev
esf:_Debug_LogException_m2207318968
$se:__ZL76AnimatorTransitionInfo_t2534804151_CustomAttributesCacheGenerator_m_FullPathP21CustomAttributesCache
pih:_Array_InternalArray__ICollection_Add_TisClientCertificateType_t1004704908_m2622721177_gshared
TH:__ZN17PackedFloatVector8TransferI18StreamedBinaryReadILb0EEEEvRT_
TQa:__ZN7Cubemap23VirtualRedirectTransferER17RemapPPtrTransfer
PGc:__Z37Register_UnityEngine_Screen_get_widthv
Gxj:_UnityAnalyticsHandler_SendCustomEvent_m1223269116
Wej:_Uri_get_Authority_m3816772302
Jkc:__ZN22BlockMemoryCacheWriter11GetPathNameEv
lag:_BigInteger_op_Division_m3713793389
FJf:_Touch_get_position_m3109777936
ZLd:_ParameterInfo__ctor_m3269320476
M6f:_X509SubjectKeyIdentifierExtension_FromHexChars_m3244835916
frg:_Single_CompareTo_m2785801815
aSh:_UInt64_System_IConvertible_ToInt32_m949522652_AdjustorThunk
s6i:_PKCS12_MAC_m3355614022
Yo:stackAlloc
wfb:__ZN25SingleBlockMemoryFileData4LockEPPv
Byk:_glProgramParameteri__wrapper
Vnc:__Z32RectOffset_Get_Custom_PropBottomP12Il2CppObject
Lvf:_Debug_LogError_m2850623458
Upj:__ZL24UnresolvedVirtualCall_79P12Il2CppObjectPK10MethodInfo
dec:__ZNSt3__26__treeINS_12__value_typeIN4core12basic_stringIcNS2_20StringStorageDefaultIcEEEE4PPtrI7TextureEEENS_19__map_value_compareIS6_SA_NS_4lessIS6_EELb1EEENS_9allocatorISA_EEE7destroyEPNS_11__tree_nodeISA_PvEE
qni:__Z69RuntimeInvoker_UInt64_t4134040092_Int32_t2950945753_SByte_t1669577662PFvvEPK10MethodInfoPvPS4_
$mk:_stat
tBa:__ZN9ShaderLab10SubProgram7CompileEv
RGd:_PropertyBuilder_get_CanRead_m3783190070
a9:__ZN14SerializedFile14SerializedTypeD2Ev
Hpa:__ZN9Scripting11UnityEngine12Experimental9Playables21TexturePlayableOutput9InitProxyEv
cfg:_CipherSuiteCollection_System_Collections_IList_get_Item_m2175128671
kya:__ZN6CameraD2Ev
iFc:__Z50Register_UnityEngine_Camera_get_pixelRect_Injectedv
la:invoke_iiiiiiiiiiii
t5g:_DateTime_System_IConvertible_ToType_m1242864300_AdjustorThunk
X3e:_InternalEnumerator_1_get_Current_m2446410893_AdjustorThunk
XCa:__Z29CalculateDefaultChannelsToAdd17ShaderChannelMaskS_
RBg:_Array_Sort_m870838517
bUb:__ZNSt3__26__treeI20DeviceBlendStateGLES14MemoryCompLessI16DeviceBlendStateENS_9allocatorIS1_EEE7destroyEPNS_11__tree_nodeIS1_PvEE
svj:_CanvasRenderer_SetMaterial_m633746949
LP:__ZN10AudioMixer12RebindOutputEv
LXj:__ZNK15dense_hashtableINSt3__24pairIK10KeyWrapperIP11Il2CppClassES4_EES5_N6il2cpp8metadata16SZArrayClassHashEN14dense_hash_mapIS5_S4_SA_NS5_14EqualsComparerINS9_19SZArrayClassCompareEEENS0_9allocatorIS7_EEE9SelectKeyESE_SG_E5beginEv
RRf:_LayoutRebuilder_PerformLayoutControl_m4241054021
Zzj:__ZN6il2cpp2vm17SetupFieldsLockedEP11Il2CppClassRKNS_2os12FastAutoLockE
Zrf:_AnimationCurve__ctor_m1565662948
eQ:__ZN11AudioSourceD0Ev
YQb:__ZN18GlslGpuProgramGLES13SwitchProgramEj
NUb:__ZN20ArchiveStorageReaderC2E10MemLabelId
_di:__Z132RuntimeInvoker_Int32_t2950945753_RuntimeObject_Int32_t2950945753_Int32_t2950945753_RuntimeObject_Int32_t2950945753_Int32_t2950945753PFvvEPK10MethodInfoPvPS4_
egb:__ZN16MemoryFileSystem4NameEv
zDc:__Z13SetCopyBufferRKN4core12basic_stringIcNS_20StringStorageDefaultIcEEEE
W4i:_TlsException__ctor_m818940807
Wxg:_X509CertificateEnumerator_System_Collections_IEnumerator_get_Current_m418791713
Dgd:__ZN14UnityAnalyticsD2Ev
Kmc:__Z42ScriptingGetComponentsOfTypeFromGameObjectRK26ScriptingGetComponentsArgs
mne:__ZL73ArgumentCache_t2187958399_CustomAttributesCacheGenerator_m_ObjectArgumentP21CustomAttributesCache
_se:__ZL65AnimatorTransitionInfo_t2534804151_CustomAttributesCacheGeneratorP21CustomAttributesCache
KIi:_Array_swap_TisRaycastResult_t3360306849_TisRaycastResult_t3360306849_m3400922624_gshared
qVc:__ZN9Scripting11UnityEngine21ControllerColliderHit9InitProxyEv
hpf:_CspParameters__ctor_m2741097571
KNa:__ZNSt3__27__sort4IRPFbRKNS_4pairIN9ShaderLab16FastPropertyNameEN18UnityPropertySheet11UnityTexEnvEEES8_EPS6_EEjT0_SD_SD_SD_T_
P$c:_cf2_hintmap_build
mJf:_Texture_get_width_m888163864
ymc:__Z11StringToIntRKN4core16basic_string_refIcEE
M8c:_Line_Up
ge:_emscripten_glBufferSubData
etg:_String_ReplaceUnchecked_m1381393810
C6e:_DefaultComparer_Compare_m3278268937_gshared
Sp:__Z17CalculateGlobalRS23TransformAccessReadOnly
u9c:__Z56Register_UnityEngine_TextGenerator_GetCharactersInternalv
Egk:__ZNSt3__210__list_impIPN6il2cpp5utils10MemoryPool6RegionENS_9allocatorIS5_EEE5clearEv
gGb:__ZNK25PathNamePersistentManager24PathIDToPathNameInternalEi
$bb:__ZNK12HandlerChain7ToLocalERK13FileEntryDataRN4core12basic_stringIcNS3_20StringStorageDefaultIcEEEERyS9_
V8a:__ZN22MemoryCacherReadBlocks14LockCacheBlockEjPPhS1_
eTj:__ZN6il2cpp2vm14TypeNameParser17ParseAssemblyNameEv
TZa:__ZNK9GfxDevice26GetSinglePassStereoEyeMaskEv
Zvf:_DebugLogHandler_Internal_Log_m4175774469
qak:__ZN4utf88internal15increase_safelyIPKcEENS0_9utf_errorERT_S5_
TFg:_CharEnumerator_get_Current_m525608209
Osd:__Z21ArrayElementTypeCheckP11Il2CppArrayPv
Hxk:_emscripten_glTexSubImage2D__wrapper
sWa:__ZN18StreamedBinaryReadILb0EE21TransferSTLStyleArrayI13dynamic_arrayI33EnlightenTerrainChunksInformationLj0EEEEvRT_17TransferMetaFlags
F$d:__ZL69DebuggerBrowsableAttribute_t1026244177_CustomAttributesCacheGeneratorP21CustomAttributesCache
ula:__ZL48__ManagedRegistrationHelperFunction_LightmapDataPv
Tok:__ZNSt3__212basic_stringIcNS_11char_traitsIcEENS_9allocatorIcEEE6appendEjc
qDb:__Z13TransferFieldI18StreamedBinaryReadILb0EELb0E16Converter_StringEvRK23StaticTransferFieldInfoR31RuntimeSerializationCommandInfoRT1_
mdd:__Z42Register_UnityEngine_Canvas_get_rootCanvasv
Opb:__Z14resize_trimmedINSt3__26vectorI8MonoPPtr13stl_allocatorIS2_L18MemLabelIdentifier1ELi16EEEEEvRT_j
Pe:_TTF_RenderText_Solid
hHh:_List_1__ctor_m3947764094_gshared
MXc:__ZN20TextRenderingPrivate21TextMeshGeneratorImpl5FlushEv
Ndj:_Parser_IsIgnorePatternWhitespace_m2107132682
ohd:__ZN14UnityAnalytics15Internal_CreateE18ScriptingObjectPtr
K0f:_HttpRequestCreator_Create_m400548686
Cnd:__ZN11UnityEngine7Connect16PersistentValuesC2Ev
u1h:_ReadOnlyCollection_1_System_Collections_IList_Insert_m134149130_gshared
lNc:__Z18Transfer_BlittableI9JSONWriteLb0E5RectTIiEEvRK29SerializationCommandArgumentsR31RuntimeSerializationCommandInfo
gnh:_BigInteger_get_Rng_m4216817480
qdh:_Array_InternalArray__ICollection_Remove_TisDateTime_t3738529785_m2250893026_gshared
bRb:__Z15IsIEEE754Format14GraphicsFormat
x9:__ZL12CreateStringPjR13dynamic_arrayIcLj0EEPKc
wtb:__Z19TransferField_ArrayI17RemapPPtrTransfer27Converter_UnityEngineObjectEvRK23StaticTransferFieldInfoR31RuntimeSerializationCommandInfoRT0_
CJg:_KeyNotFoundException__ctor_m541499307
Oeh:_SetPropertyUtility_SetStruct_TisSpriteState_t1362986479_m665096788_gshared
uei:__Z61RuntimeInvoker_Single_t1397266774_RuntimeObject_RuntimeObjectPFvvEPK10MethodInfoPvPS4_
wdh:_Array_InternalArray__ICollection_Remove_TisIntPtr_t_m3807208150_gshared
fqi:__Z71RuntimeInvoker_Void_t1185182177_Vector3_t3722313464_Vector3_t3722313464PFvvEPK10MethodInfoPvPS4_
v0e:_InternalEnumerator_1_get_Current_m2316281569_AdjustorThunk
E0g:_DateTime__ctor_m1095105629
bMb:__ZN13GfxDeviceGLES15UploadTexture2DE9TextureID16TextureDimensionPKhiii14GraphicsFormati18TextureUploadFlags16TextureUsageMode
Cfj:_Event_Cleanup_m2477919477
CO:__ZN4FMOD6System9createDSPEP20FMOD_DSP_DESCRIPTIONPPNS_3DSPE
q9d:__ZL87Thread_t2300836069_CustomAttributesCacheGenerator_Thread_GetCompressedStack_m2923422412P21CustomAttributesCache
nkg:_SslClientStream_get_ClientCertificates_m998716871
MM:__ZN4FMOD8ChannelI11EndCallbackEv
JJc:__ZN8GUIStyle14SetDefaultFontEPN13TextRendering4FontE
uTa:__ZN15QualitySettings23VirtualRedirectTransferER24GenerateTypeTreeTransfer
Elf:_ObjectReader_ReadValue_m3145979203
eK:__ZN9Scripting11UnityEngine24AssetBundleCreateRequest9InitProxyEv
Myd:_CanvasScaler_OnDisable_m3424669401
xEc:__Z59Register_UnityEngine_MonoBehaviour_Internal_CancelInvokeAllv
tDe:__ZL68Scrollbar_t1494447233_CustomAttributesCacheGenerator_m_NumberOfStepsP21CustomAttributesCache
hDj:__ZN30dense_hashtable_const_iteratorINSt3__24pairIK10KeyWrapperIPK19Il2CppGenericMethodEPK26Il2CppGenericMethodIndicesEES6_N6il2cpp8metadata23Il2CppGenericMethodHashEN14dense_hash_mapIS6_SA_SE_NS6_14EqualsComparerINSD_26Il2CppGenericMethodCompareEEENS0_9allocatorISB_EEE9SelectKeyESI_SK_EppEv
KYc:_UNITY_FT_Request_Metrics
h0j:__ZN6il2cpp6icalls8mscorlib6System10Reflection10MonoMethod29get_IsGenericMethodDefinitionEP22Il2CppReflectionMethod
QWj:__ZN6il2cpp2vm6Thread21AllocThreadStaticDataEi
bEa:__ZL12CopyChannelsj17ShaderChannelMaskRA4_K10StreamInfoRA12_K11ChannelInfoPKhS3_S7_Ph
YPe:_Default_SelectMethod_m469311730
ezf:_Input_get_mousePosition_m1616496925
A9j:__ZN30dense_hashtable_const_iteratorINSt3__24pairIK10KeyWrapperIPK19Il2CppGenericMethodEP10MethodInfoEES6_N6il2cpp8metadata23Il2CppGenericMethodHashEN14dense_hash_mapIS6_S9_SD_NS6_14EqualsComparerINSC_26Il2CppGenericMethodCompareEEENS0_9allocatorISA_EEE9SelectKeyESH_SJ_EppEv
LRh:_UInt32_ToString_m2066897296_AdjustorThunk
A9a:__ZN24GenerateTypeTreeTransfer19TransferSTLStyleMapINSt3__23mapI4PPtrI6ShaderEN4core12basic_stringIcNS6_20StringStorageDefaultIcEEEENS1_4lessIS5_EENS1_9allocatorINS1_4pairIKS5_SA_EEEEEEEEvRT_17TransferMetaFlags
TJg:_Enumerator_Reset_m4274366540
KMc:__Z18Transfer_BlittableI9JSONWriteLb0E8Vector3fEvRK29SerializationCommandArgumentsR31RuntimeSerializationCommandInfo
Of:_emscripten_glUniform4i
FCf:_PlayerConnection_RegisterDisconnection_m2618599213
_e:_emscripten_glUniform4f
wj:___unlock
w4i:_TlsCipherSuite_ComputeServerRecordMAC_m3941098609
O1c:_otv_validate
Sac:__ZN13sorted_vectorINSt3__24pairIN4core12basic_stringIcNS2_20StringStorageDefaultIcEEEES6_EEN10vector_mapIS6_S6_27compare_tstring_insensitiveIS6_E13stl_allocatorIS7_L18MemLabelIdentifier38ELi16EEE13value_compareESD_E9erase_oneIS6_EEjRKT_
cog:_X509Certificate_Equals_m3784196370
lVi:_List_1__ctor_m3376067838_gshared
PQ:__ZN20SoundChannelInstance19setReverbPropertiesEP29FMOD_REVERB_CHANNELPROPERTIES
rEh:_Enumerator_MoveNext_m1446151600_gshared
Slg:_SHA1Internal_ProcessFinalBlock_m1403775421
NWi:_Queue_1_System_Collections_ICollection_CopyTo_m3452613063_gshared
Dqc:__Z40Register_UnityEngine_Transform_IsChildOfv
Qif:_RemotingServices_GetOrCreateClientIdentity_m648299611
Z5e:_InternalEnumerator_1_get_Current_m2356858238_AdjustorThunk
Loc:__Z45Register_UnityEngine_Display_GetSystemExtImplv
prh:_RSAManaged_ImportParameters_m1844641996
E8e:_Enumerator_System_Collections_IDictionaryEnumerator_get_Value_m3325938730_AdjustorThunk
yx:__ZN7mecanim9animation23TransformValuesFromClipEiiiRKNS_10ValueArrayERKNS0_10ClipOutputERKNS0_12ClipBindingsERS1_RNS_14ValueArrayMaskEb
gFa:__ZN14SafeBinaryRead21TransferSTLStyleArrayI13dynamic_arrayI21PlatformShaderDefinesLj0EEEEvRT_17TransferMetaFlags
rUc:__GLOBAL__sub_I_Runtime_Dynamics_0_cpp
ugf:_ValueCollection_System_Collections_ICollection_get_SyncRoot_m1114275063_gshared
kxj:__ZL17log2withScale_128yyi
UPg:_Guid_Equals_m1866984197
Kgd:__ZN14UnityAnalytics19ConfigChangedStaticEPS_RKN4core12basic_stringIcNS1_20StringStorageDefaultIcEEEER8JSONReadb
LOe:_PlatformNotSupportedException__ctor_m1787918017
Lda:__ZN13RuntimeStaticI15DirectorManagerLb0EE16StaticInitializeEPv
q_h:_ReadOnlyCollection_1_System_Collections_ICollection_CopyTo_m2643246984_gshared
r1a:__ZN11TimeManager6UpdateEv
hFh:_Enumerator_System_Collections_IEnumerator_get_Current_m209407522_gshared
Fyd:_CanvasScaler_get_fallbackScreenDPI_m2811935689
Er:__ZNK16ParentConstraint18GetTranslationAxisEv
YLg:_DateTimeFormatInfo_ReadOnly_m890935083
LQf:_LayoutElement_set_preferredHeight_m1999633022
gnk:_fflush
h7a:__ZN17LightProbeContext4InitERK16LightmapSettingsRK14RenderSettings
K3b:__ZN18DeferredRenderLoop14RenderLightingER21ActiveLightingContextP13RenderTexture9TextureIDPS3_iRK8Vector4fRK14LightingLayersR10MinMaxAABBb12ObjectHandleI17RenderSurface_TagP17RenderSurfaceBaseE
hIf:_SceneManager_Internal_ActiveSceneChanged_m3676176255
U9g:_Double_System_IConvertible_ToInt16_m3591921965
bZa:__ZN9Texture3DD2Ev
rUh:_Collection_1_set_Item_m4280581817_gshared
U$g:_Convert_ToChar_m2796006345
jFi:_Array_InternalArray__Insert_TisContentType_t1787303396_m3566390691_gshared
Wba:__ZN5CacheD2Ev
hHg:_ArrayListWrapper_GetEnumerator_m2336495952
p6b:__Z34ProcessIndexListIsNodeVisibleStep2RK22SceneCullingParametersPK9SceneNodePK4AABBR9IndexList
_Db:__ZN10MonoScriptD2Ev
moa:__ZN9Scripting11UnityEngine10Networking16PlayerConnection16PlayerConnection12CleanupProxyEv
HTb:__ZN19ConstantBuffersGLES8UpdateCBE5CbKeyPKvj
Qmj:_AudioSource_get_spatializeInternal_m2117549793
crc:__Z39Input_CUSTOM_INTERNAL_get_mousePositionP8Vector3f
Zlf:_SerializationCallbacks_GetMethodsByAttribute_m2095490433
s4c:_tt_cmap13_char_next
Bye:__ZL117EventSystem_t1003666588_CustomAttributesCacheGenerator_EventSystem_t1003666588____lastSelectedGameObject_PropertyInfoP21CustomAttributesCache
xWb:__ZN9ShaderLab4Pass16SetupPassOptionsEv
ch:_JS_Sound_ReleaseInstance
ZVj:_il2cpp_type_equals
wPg:_Guid_CheckArray_m921056615
gRd:_ConfigHandler_ReadLifetine_m208994800
Y9e:_Enumerator_System_Collections_IDictionaryEnumerator_get_Entry_m3417028588_AdjustorThunk
IYj:__ZN6il2cpp6icalls8mscorlib6System7Runtime15InteropServices7Marshal19copy_from_unmanagedEiiP11Il2CppArrayi
_Ph:_UInt16_System_IConvertible_ToByte_m3185614807_AdjustorThunk
UFf:_Rect_get_max_m350137314_AdjustorThunk
Dm:FUNCTION_TABLE_diddi
f_j:__ZN6il2cpp6icalls8mscorlib6System5Array8FastCopyEP11Il2CppArrayiS5_ii
jbd:__ZNK2UI14CanvasRenderer22GetTypeVirtualInternalEv
ioc:__Z42Register_UnityEngine_RectOffset_get_bottomv
Jmk:_newlocale
Drb:__ZN9BoundsInt8TransferI14SafeBinaryReadEEvRT_
C$b:__Z20DoDeferredRenderLoopRK17RenderLoopContextR13dynamic_arrayI16RenderObjectDataLj0EES5_RK11CullResultsRP13RenderTextureSB_Pb
Kvk:_emscripten_glUniform1f__wrapper
Pqk:dynCall_di
o6a:__ZN21EnlightenSceneMapping6AppendEiRKS_
Kwf:_BaseInvokableCall_AllowInvoke_m878393606
sMc:__Z28RegisterModule_JSONSerializev
$id:__ZThn1168_N18UnityConnectClientD1Ev
_Tc:__ZL57__ManagedRegistrationHelperFunction_CachedContactPoints2DPv
W9a:__ZN2UI13RectTransform8TransferI14SafeBinaryReadEEvRT_
DNc:__Z35Transfer_Blittable_FixedBufferFieldI9JSONWriteaEvRK29SerializationCommandArgumentsR31RuntimeSerializationCommandInfo
Zsf:_Behaviour_get_enabled_m753527255
gpc:__Z20IsHumanControllingUsv
s1:__ZNK20DynamicHeapAllocatorI17LowLevelAllocatorE10GetPtrSizeEPKv
g0d:__ZL51TextInfo_t3810425522_CustomAttributesCacheGeneratorP21CustomAttributesCache
tmc:__ZN10systeminfo21GetPersistentDataPathEv
_id:__ZThn1168_N18UnityConnectClient18OnAdsIdRequestDoneERKN4core12basic_stringIcNS0_20StringStorageDefaultIcEEEEbS6_
ALb:__ZN13GfxDeviceGLES17DestroyGpuProgramEPK10GpuProgram
hGi:_Array_InternalArray__set_Item_TisRaycastResult_t3360306849_m730888808_gshared
Ynb:__Z44InitializeTransferFunctionScriptingTraitsForI18StreamedBinaryReadILb0EEEvR31TransferFunctionScriptingTraits
W1b:__ZNSt3__218__insertion_sort_3IR23CompareReflectionProbesP31RuntimeReflectionProbeBlendInfoEEvT0_S5_T_
Gtb:__ZN12NativeBufferI27Converter_SimpleNativeClassI8GradientEE15SetupForWritingER9ArrayInfo
Onh:_Kernel_RightShift_m2207393597
Gga:__ZNSt3__213__stable_sortIRNS_4lessIN4core12basic_stringIcNS2_20StringStorageDefaultIcEEEEEENS_11__wrap_iterIPS6_EEEEvT0_SC_T_NS_15iterator_traitsISC_E15difference_typeEPNSF_10value_typeEi
rGe:__ZL48Shadow_t773074319_CustomAttributesCacheGeneratorP21CustomAttributesCache
K2:__ZN12_GLOBAL__N_113StaticDestroyEPv
cJc:__ZNK8GUIStyle4DrawER8GUIStateRK5RectTIfER10GUIContentbbbb
uAk:_glUnmapBuffer__wrapper
kRc:__ZN8JSONRead21TransferSTLStyleArrayINSt3__26vectorI8Gradient13stl_allocatorIS3_L18MemLabelIdentifier1ELi16EEEEEEvRT_17TransferMetaFlags
s3a:__ZNSt3__218__insertion_sort_3IRNS_6__lessINS_4pairIPKN5Unity4TypeE7Hash128EES8_EEPS8_EEvT0_SC_T_
QNf:_InputField_set_onValueChanged_m3658917578
ovb:__ZN10RectOffset8TransferI24GenerateTypeTreeTransferEEvRT_
bUg:_BinaryReader__ctor_m2266204403
$pa:__ZN9Scripting11UnityEngine6Events14UnityEventBase9InitProxyEv
_Ch:_Enumerator_VerifyState_m3047769867_AdjustorThunk
Aub:__Z18Transfer_BlittableI24GenerateTypeTreeTransferLb1E5RectTIiEEvRK29SerializationCommandArgumentsR31RuntimeSerializationCommandInfo
P9i:_Enumerator_System_Collections_IEnumerator_Reset_m24787251
ubd:__ZN2UI13CanvasManager19RemoveDirtyRendererEPNS_6CanvasEPNS_14CanvasRendererE
Llk:_isspace
Njf:_BinaryFormatter__ctor_m2620705134
qkd:__ZN11UnityEngine15PlatformWrapper25GetGraphicsRendererStringEv
YJh:_UTF7Encoding_InternalGetBytes_m797138468
Hsc:__ZZL31RegisterRectTransformPropertiesR22GenericPropertyBindingEN39Wrapper_RectTransformAnchoredPositiony113SetFloatValueEPvf
W$:__ZN11UnityEngine15CloudWebService17WebFileDownloaderINS0_20WebRequestRestClientENS0_23WebRequestRestHeaderMapEED2Ev
Nb:invoke_vi
tyg:_SmallXmlParser_HandleWhitespaces_m549588711
Lb:invoke_vd
Gya:__ZNK6Camera19GetStereoViewMatrixE15StereoscopicEye
D9i:_Regex_get_RightToLeft_m2317867572
xaa:__ZNK10GameObject8IsActiveEv
GGc:__Z34Component_Get_Custom_PropTransformP12Il2CppObject
Owe:__ZL67g_UnityEngine_PhysicsModule_Assembly_CustomAttributesCacheGeneratorP21CustomAttributesCache
PQb:__ZN18GfxFramebufferGLES23SetupDefaultFramebufferEPP17RenderSurfaceBaseS2_N2gl6HandleILNS3_10ObjectTypeE9EEE
wBd:_DefaultControls_CreateDropdown_m3286664171
XYa:__ZN13ScreenManager18RequestOrientationE17ScreenOrientation
wAj:__ZN6il2cpp2vm5Class12SetupMethodsEP11Il2CppClass
_Bc:__Z39DeleteLastPathNameComponentWithAnySlashRKN4core12basic_stringIcNS_20StringStorageDefaultIcEEEE
rKc:__ZN10GUIManager14InitGUIManagerEv
AQh:_UInt16_Equals_m642257745
AAg:_Array_System_Collections_IList_IndexOf_m3301661616
zPe:_AssemblyFileVersionAttribute__ctor_m3720707642
tOd:_RuntimeResourceSet_CloneDisposableObjectIfPossible_m2725520898
NJc:__Z37Register_UnityEngine_GUIStyle_Cleanupv
Ka:invoke_iiifii
sFc:__Z26Mesh_CUSTOM_SetIndicesImplP12Il2CppObjecti16GfxPrimitiveTypeP11Il2CppArrayihi
GYf:_SliderEvent__ctor_m3149452941
Exg:_DeriveBytes__cctor_m1212925033
fEd:_Graphic_OnDisable_m1097930217
KKj:__ZN6il2cpp6icalls8mscorlib6System8MonoType13IsPointerImplEP20Il2CppReflectionType
Pi:_emscripten_glFramebufferRenderbuffer
S4b:__ZN19CullingGroupManager17CullAndSendEventsERK22SceneCullingParametersiRK13CullingOutputRK8JobFence
_wa:__ZN9Transform30EnsureTransformHierarchyExistsEv
vOh:_Type_FilterName_impl_m2651733559
MV:__ZN11AudioModule26SetDefaultMicrophoneDriverEPv
xpc:__Z46Register_UnityEngine_Application_get_isPlayingv
bDc:__ZN13MonoBehaviour13StopCoroutineEPKc
Eac:__ZNSt3__26vectorINS_4pairIN4core12basic_stringIcNS2_20StringStorageDefaultIcEEEEPK17MessageIdentifierEENS_9allocatorISA_EEE12__move_rangeEPSA_SE_SE_
KZb:__ZN14qsort_internal17MedianOfThreeSwapIP17RODataReplacement19ROSorterReplacementEEvT_S4_S4_T0_
esg:_String_Split_m3646115398
KGf:_RectOffset_ToString_m2007443979
mzj:__ZNK15dense_hashtableINSt3__24pairIK10KeyWrapperIPK22Il2CppGenericParameterEP11Il2CppClassEES6_N6il2cpp5utils11PointerHashIS4_EEN14dense_hash_mapIS6_S9_SE_NS6_14EqualsComparerINS0_8equal_toIS5_EEEENS0_9allocatorISA_EEE9SelectKeyESJ_SL_E3endEv
Cvb:__Z29Transfer_Blittable_ArrayFieldI24GenerateTypeTreeTransfer11ColorRGBA32EvRT_R9ArrayInfoRK23StaticTransferFieldInfo
Fdb:__ZN17ArchiveFileSystem10ToAbsoluteEPKc
Mxc:__Z13RegisterClassI11PreloadDataEvPKc
aFc:__Z35Camera_CUSTOM_RaycastTry2D_InjectedP12Il2CppObjectRK3Rayfi
ald:__ZN19UnityConnectService15GetPlayerUserIdEv
Ehh:_Array_InternalArray__IndexOf_TisSByte_t1669577662_m4156538463_gshared
DC:__ZN7mecanim6CRCKeyENS_7eStringE
noc:__ZL12SetPrefValueRKN4core12basic_stringIcNS_20StringStorageDefaultIcEEEERK9PrefValue
gac:__Z21GetBackgroundJobQueuev
GZa:__ZN19ShaderPropertySheet20ReservePropertyCountEj
Y9j:__ZN6il2cpp5utils11StringUtils6PrintfEPKcz
$Xj:__ZNSt3__26vectorIN6il2cpp8metadata18GenericArrayMethodENS_9allocatorIS3_EEE7reserveEj
TNa:__ZN15NameToObjectMapI6ShaderNSt3__23mapI4PPtrIS0_EN4core12basic_stringIcNS5_20StringStorageDefaultIcEEEENS1_4lessIS4_EENS1_9allocatorINS1_4pairIKS4_S9_EEEEEENS1_8multimapIS9_S4_NSA_IS9_EENSC_INSD_IKS9_S4_EEEEEEE4FindERSK_
QPa:__ZN24GenerateTypeTreeTransfer21TransferResourceImageE19ActiveResourceImagePKcR13StreamingInfoPvjiPKN5Unity4TypeE
sIi:_Array_Sort_TisVector3_t3722313464_m1030213405_gshared
M3j:__ZN6il2cpp2vm6Object5CloneEP12Il2CppObject
dik:__ZN6il2cpp6icalls8mscorlib6System9Threading5Mutex20CreateMutex_internalEbP12Il2CppStringPb
Ume:__ZL47Time_t2420636075_CustomAttributesCacheGeneratorP21CustomAttributesCache
lvf:_Coroutine_Finalize_m1957108547
rij:_KeyBuilder_Key_m2503211157
sGa:__ZNSt3__212__deque_baseI18ReflectionProbeJobNS_9allocatorIS1_EEED2Ev
YB:__ZN11UnityEngine9Animation27DestroyAnimationSetBindingsEPNS0_20AnimationSetBindingsERN7mecanim6memory9AllocatorE
Rec:__ZN15dense_hashtableINSt3__24pairIKiN4core17string_with_labelILi1EEEEEi18SInt32HashFunctionN14dense_hash_mapIiS5_S7_NS0_8equal_toIiEE13stl_allocatorIS6_L18MemLabelIdentifier1ELi16EEE9SelectKeyESA_SD_E13set_empty_keyERKS6_
avf:_Component_GetComponentInChildren_m388868270
JAh:_GenericEqualityComparer_1_Equals_m1705889345_gshared
uI:__ZN8Animator12CleanupClassEv
A0f:_FtpWebRequest__cctor_m699542155
SDg:_Byte_System_IConvertible_ToBoolean_m2888023769
R2j:__GLOBAL__sub_I_GenericMetadata_cpp
z$f:_NameObjectCollectionBase_GetEnumerator_m3677320185
P5b:__Z24CalculateSpotLightBoundsffRK10Matrix4x4fR15SpotLightBounds
BJa:__ZNK13RenderTexture21GetShadowSamplingModeEv
DX:__ZN23CloudWebServicesManager23VirtualRedirectTransferER14SafeBinaryRead
Cxg:_PKCS12_AddCertificate_m3857004455
vkf:_WellKnownClientTypeEntry_ToString_m1119458503
nFb:__Z19ShouldTransferFieldR32SerializationCommandQueueBuilder17ScriptingClassPtriR18TransferField_InfoRK20CoreScriptingClasses
zEc:__Z48Register_UnityEngine_MonoBehaviour_InvokeDelayedv
vpg:_SecurityElement_IsValidText_m1346599242
jnb:__ZN26SinglePassStereoSupportExt21SetStereoMatrixCommonE21MonoOrStereoscopicEye24BuiltinShaderMatrixParamRK10Matrix4x4f
mP:__ZN5audio5mixer22UpdateAudioMixerMemoryERKNS0_18AudioMixerConstantERNS0_16AudioMixerMemoryEfPN4FMOD6SystemEf
JVc:__ZL21InitializeCachedStripPv
qsh:_Dictionary_2_System_Collections_Generic_ICollectionU3CSystem_Collections_Generic_KeyValuePairU3CTKeyU2CTValueU3EU3E_Add_m3652125112_gshared
y9b:__ZN19CustomRenderTexture16GetRenderTextureEv
vZj:__ZN6il2cpp6icalls8mscorlib6System9Threading6Thread23GetCachedCurrentCultureEP12Il2CppThread
Jxa:__ZNK6Camera22GetWorldToCameraMatrixEv
o5j:__ZN6il2cpp2vm12GenericClass11IsValueTypeEP18Il2CppGenericClass
Cdc:__ZN13ScreenManager24SetIsFullscreenImmediateEb
zEb:__ZN13MonoBehaviour7SetNameEPKc
UUd:_MethodDictionary_IsOverridenKey_m946843558
oWg:_FileStream_BeginRead_m2419864669
fbi:_U3CStartU3Ec__Iterator0_MoveNext_m4270440387_gshared
DEj:__ZN10KeyWrapperIN6il2cpp5utils13dynamic_arrayIPK10Il2CppTypeLj4EEEEC2ERKS7_
zJb:__ZN17InstancingBatcher22FindCBUpperBoundKonstsEv
Lgd:__ZN11UnityEngine9Analytics15AnalyticsConfig13ConfigChangedERKN4core12basic_stringIcNS2_20StringStorageDefaultIcEEEER8JSONRead
h6a:__ZN18AwakeFromLoadQueue5ClearEv
LWg:_FileStream_SetLength_m99749826
j4b:__ZNSt3__27__sort5IR15ReflProbeSorterPP15ReflectionProbeEEjT0_S6_S6_S6_S6_T_
Aea:__ZN8Playable10DisconnectEPS_i
vk:_glGenTransformFeedbacks
t5a:__ZN13LoadOperationD2Ev
MQg:_Int16_System_IConvertible_ToType_m3672347013
_yg:_AttrListImpl_GetValue_m3657391095
qIb:__Z21PlayerStartFirstSceneb
SVi:_List_1_CheckIndex_m3933537097_gshared
LNa:__ZNSt3__27__sort5IRPFbRKNS_4pairIN9ShaderLab16FastPropertyNameEN18UnityPropertySheet11UnityTexEnvEEES8_EPS6_EEjT0_SD_SD_SD_SD_T_
TOb:__ZNK7ApiGLES18GetExtensionStringEv
sVi:_List_1_System_Collections_IList_IndexOf_m2444653486_gshared
Lvk:_emscripten_glVertexAttrib1f__wrapper
Bbb:__ZNK12HandlerChain4SizeERK13FileEntryData
Wo:FUNCTION_TABLE_iiiiiiiii
GTc:__ZN11UnityEngine9Analytics18RenderingInfoEvent13SetFrameStatsERK13dynamic_arrayIjLj0EEjjj
S_h:_ReadOnlyCollection_1_System_Collections_Generic_ICollectionU3CTU3E_Remove_m4177779688_gshared
lra:__ZN9Scripting11UnityEngine14AnimationCurve9InitProxyEv
xFg:_Char_IsLetter_m3996985877
IWi:_Queue_1_Peek_m2302800625_gshared
UXd:__ZL51Delegate_t1188392813_CustomAttributesCacheGeneratorP21CustomAttributesCache
$ck:_GC_allochblk
z6a:__Z15UnloadGameScenev
lkh:_Array_InternalArray__ICollection_CopyTo_TisKeyframe_t4206410242_m2132255743_gshared
pAk:_glCheckFramebufferStatus__wrapper
NFd:_Image__ctor_m2551076292
nhf:_Dictionary_2_System_Collections_ICollection_CopyTo_m3143696177_gshared
tgi:__Z103RuntimeInvoker_Void_t1185182177_Int32_t2950945753_Int32_t2950945753_Int32_t2950945753_SByte_t1669577662PFvvEPK10MethodInfoPvPS4_
TGc:__Z36Renderer_Get_Custom_PropSortingOrderP12Il2CppObject
tNj:__ZNK15dense_hashtableINSt3__24pairIK10KeyWrapperIPK10Il2CppTypeEjEES6_N6il2cpp8metadata14Il2CppTypeHashEN14dense_hash_mapIS6_jSB_NS6_14EqualsComparerINSA_26Il2CppTypeEqualityComparerEEENS0_9allocatorIS8_EEE9SelectKeyESF_SH_E13find_positionERS7_
rJa:__ZN7Texture5ResetEv
aub:__Z18Transfer_BlittableI24GenerateTypeTreeTransferLb0E8Vector2fEvRK29SerializationCommandArgumentsR31RuntimeSerializationCommandInfo
aSd:_Context_get_HasDynamicSinks_m3952434387
gIh:_Latin1Encoding_GetByteCount_m1145650505
Rtb:__Z18Transfer_BlittableI24GenerateTypeTreeTransferLb1EhEvRK29SerializationCommandArgumentsR31RuntimeSerializationCommandInfo
wTe:_GenericTypeParameterBuilder_GetPropertyImpl_m2584778600
SAb:__Z13TransferFieldI18StreamedBinaryReadILb1EELb0E16Converter_StringEvRK23StaticTransferFieldInfoR31RuntimeSerializationCommandInfoRT1_
mDc:__ZNK16TypeTreeIterator10ByteOffsetEv
grk:dynCall_iiifii
kda:__ZnwjRKSt9nothrow_t
QF:__ZN8Animator11ClearObjectEv
Wzg:_ApplicationException__ctor_m2557611022
sMa:__ZN14SafeBinaryRead19TransferSTLStyleMapINSt3__23mapI39DeprecatedFastPropertyNameSerializationN18UnityPropertySheet11UnityTexEnvENS1_4lessIS3_EENS1_9allocatorINS1_4pairIKS3_S5_EEEEEEEEvRT_17TransferMetaFlags
BEc:__Z45Register_UnityEngine_MonoBehaviour_IsInvokingv
ZSi:_List_1_CheckMatch_m579516778_gshared
Vwb:__ZL26Transfer_SimpleNativeClassI19StreamedBinaryWriteILb0EE17AnimationCurveTplIfELb0EEvRK29SerializationCommandArgumentsR31RuntimeSerializationCommandInfo
JIb:__Z43GiveManagedDebuggerChanceToAttachIfRequiredv
ODg:_Buffer_ByteLengthInternal_m1388208719
Mjh:_Array_InternalArray__ICollection_CopyTo_TisInt64_t3736567304_m2845057751_gshared
iDc:__Z35UnregisterSerializationCacheBuilderPFv17ScriptingClassPtrR23CachedSerializationDataRbE
c8:__ZNSt3__26__treeINS_12__value_typeIPKc18ScriptingMethodPtrEENS_19__map_value_compareIS3_S5_14CStringCompareLb1EEE13stl_allocatorIS5_L18MemLabelIdentifier1ELi16EEE25__emplace_unique_key_argsIS3_JRKNS_21piecewise_construct_tENS_5tupleIJOS3_EEENSH_IJEEEEEENS_4pairINS_15__tree_iteratorIS5_PNS_11__tree_nodeIS5_PvEEiEEbEERKT_DpOT0_
XSg:_Int64_System_IConvertible_ToUInt32_m109903525_AdjustorThunk
bBa:__Z30GetBuiltinVectorParamArraySize24BuiltinShaderVectorParam
m_d:__ZL67DecimalConstantAttribute_t1976047975_CustomAttributesCacheGeneratorP21CustomAttributesCache
hla:__ZL46__ManagedRegistrationHelperFunction_SpriteBonePv
WEc:__Z36Camera_CUSTOM_get_pixelRect_InjectedP12Il2CppObjectR5RectTIfE
kJa:__ZN13RenderTextureC2E10MemLabelId18ObjectCreationMode
aRg:_Int32_GetFormatException_m519586683
x8d:__ZL46StringBuilder_t_CustomAttributesCacheGeneratorP21CustomAttributesCache
kGc:__Z60Register_UnityEngine_ScriptableObject_CreateScriptableObjectv
mLi:_Array_InternalArray__get_Item_TisVector2_t2156229523_m2502961026_gshared
SUa:__ZN21RendererUpdateManager11AddRendererER8Renderer
Hob:__Z35Transfer_Blittable_FixedBufferFieldI14SafeBinaryReadsEvRK29SerializationCommandArgumentsR31RuntimeSerializationCommandInfo
Z$g:_Convert_ToDateTime_m3802186295
Z9j:__ZN6il2cpp5utils11StringUtils11Utf16ToUtf8EPKDs
q5a:__ZN18StreamedBinaryReadILb0EE21TransferSTLStyleArrayINSt3__26vectorIN15ResourceManager10DependencyE13stl_allocatorIS5_L18MemLabelIdentifier52ELi16EEEEEEvRT_17TransferMetaFlags
tSh:_UInt64_CompareTo_m1614517204_AdjustorThunk
Fkd:__ZN11UnityEngine15PlatformWrapper20IsRootedOrJailbrokenEv
jWb:__ZZ23InitPlayerLoopCallbacksvEN52PreLateUpdateScriptRunBehaviourLateUpdateRegistrator7ForwardEv
q6b:__Z33IntersectAABBPlaneBoundsOptimizedRK4AABBPKN4math7_float4Ei
Ohb:__ZN9GfxDevice19EndGeometryJobFrameEv
mgj:_GUILayoutUtility_Layout_m1159951704
TMf:_InputField_get_shouldActivateOnSelect_m3055465770
Ltb:__ZN27Converter_SimpleNativeClassI17AnimationCurveTplIfEE17ScriptingToNativeER18ScriptingObjectPtrPS1_
uOh:_Type__cctor_m2371893800
Qik:__ZN6il2cpp8metadata24Il2CppGenericInstCompare7CompareERK10KeyWrapperIPK17Il2CppGenericInstES8_
eDj:__ZNK15dense_hashtableINSt3__24pairIK10KeyWrapperIPK19Il2CppGenericMethodEPK26Il2CppGenericMethodIndicesEES6_N6il2cpp8metadata23Il2CppGenericMethodHashEN14dense_hash_mapIS6_SA_SE_NS6_14EqualsComparerINSD_26Il2CppGenericMethodCompareEEENS0_9allocatorISB_EEE9SelectKeyESI_SK_E5beginEv
Rtd:_ExecuteEvents_Execute_m3049310229
Hv:__ZN27AnimationLayerMixerPlayable21UpdateLayerParametersEv
dne:__ZL84Object_t631007953_CustomAttributesCacheGenerator_Object_DestroyImmediate_m2288369078P21CustomAttributesCache
yoa:__ZN9Scripting11UnityEngine12LightmapData12CleanupProxyEv
ry:__ZN7mecanim9animation16CopyMotionOutputEPKNS0_18AnimationNodeStateEPS1_bbRKNS_6bitsetILj83EEE
Gqc:__ZNK17AnimationCurveTplIfE8EvaluateEfPNS0_5CacheE
oVb:__Z31ManagerContextInitializeClassesv
$_h:_ReadOnlyCollection_1_System_Collections_IList_Contains_m2650112051_gshared
Wbh:_Array_get_swapper_TisVector3_t3722313464_m1221246401_gshared
mZc:_UNITY_FT_List_Finalize
W_b:__Z20LightAttenuateApproxRKfS0_
D7:__ZN9Scripting30SetCachedPtrOnScriptingWrapperE18ScriptingObjectPtrP6Object
$x:__ZN17AnimationPlayable17SetInternalWeightEf
f8f:_RepeatContext_get_IsMinimum_m3640286252
rmf:_ObjectRecord_ChainFixup_m1889316362
NHa:__ZN18BlockRangeInternal16PopLastNodeIndexEP10BlockRangeji
Obk:__ZN6il2cpp2vm13CachedCCWBaseINS0_13ManagedObjectEE6AddRefEv
cxd:_TouchInputModule_UpdateModule_m2582897964
b$a:__ZN4MeshD0Ev
Aqd:__ZL42RequestRecreateEyeTexturesBeforeNextUpdatev
sAa:__ZNK6Camera20IsCurrentlyRenderingEv
xx:__ZN21AnimationClipPlayable23ProcessRootMotionNoClipEPK35AnimationPlayableEvaluationConstantPK32AnimationPlayableEvaluationInputP33AnimationPlayableEvaluationOutput
Udd:__Z36CanvasRenderer_CUSTOM_SetPopMaterialP12Il2CppObjectS0_i
KNc:__Z18Transfer_BlittableI9JSONWriteLb0EdEvRK29SerializationCommandArgumentsR31RuntimeSerializationCommandInfo
x2c:_otv_u_O_O_u_O_O
Sya:__ZN6Camera8TransferI19StreamedBinaryWriteILb0EEEEvRT_
g7g:_DBNull_System_IConvertible_ToSByte_m3533624679
uEa:__ZThn252_N31CanvasBatchIntermediateRenderer14OnAssetDeletedEv
emk:_wctomb
nFg:_Char_CompareTo_m42489266
BAi:__Z67RuntimeInvoker_Void_t1185182177_Int32_t2950945753_Double_t594665363PFvvEPK10MethodInfoPvPS4_
Doc:__Z27Camera_CUSTOM_GetAllCamerasP11Il2CppArray
Uc:___cxa_rethrow
KMd:_ParameterInfo_GetCustomAttributes_m2376494592
oPc:__Z18Transfer_BlittableI8JSONReadLb1EhEvRK29SerializationCommandArgumentsR31RuntimeSerializationCommandInfo
ZDd:_Graphic_get_canvasRenderer_m315509948
y$i:_Collection_1_System_Collections_IList_Contains_m3397768605_gshared
hNg:_CultureInfo_construct_internal_locale_from_name_m3254739477
Sjg:_RSASslSignatureDeformatter_VerifySignature_m1061897602
U8b:__ZN13MonoBehaviour8SetClassE17ScriptingClassPtr18ScriptingObjectPtr
Drf:_RandomNumberGenerator_Create_m4162970280
LEi:_Array_InternalArray__Insert_TisLabelFixup_t858502054_m171542753_gshared
r5e:_InternalEnumerator_1_System_Collections_IEnumerator_get_Current_m3539708496_AdjustorThunk
hcb:__ZN20LocalFileSystemPosix4ReadER13FileEntryDatayyPvPy
L2b:__ZNSt3__211__sift_downIRN23ForwardShaderRenderLoop18RenderObjectSorterILb0EEEP21ForwardRenderPassDataEEvT0_S7_T_NS_15iterator_traitsIS7_E15difference_typeES7_
fog:_SecurityPermission__ctor_m1462427327
ssk:dynCall_iiiiiiffiiiiiiiiiffffiiii
PEb:__ZN13MonoBehaviour5DoGUIENS_13GUILayoutTypeEii
iQd:_ChannelData_get_ClientProviders_m594662942
yI:__ZZN8Animator15InitializeClassEvEN43FunctorImpl_438kDidModifyAnimatorController4CallEPviR11MessageData
Uaj:_QuickSearch_GetChar_m1297698557
Cua:__ZNK12TLSAllocatorI14StackAllocatorE8ContainsEPKv
u1a:__ZN11TimeManager8TransferI18StreamedBinaryReadILb0EEEEvRT_
K_b:__ZL8AddLightRK12ActiveLightsRK8Vector3fiR13dynamic_arrayI11CulledLightLj0EE
k0g:_DateTime__ParseEnum_m253019513
_3g:_Convert_ToUInt32_m2194577773
o$a:__ZN14BlendShapeData8TransferI14SafeBinaryReadEEvRT_
kKg:_Hashtable_Remove_m4032631466
Iph:_DSAManaged_GenerateKeyPair_m2236915969
zPa:__ZN7Texture25ReloadFromStorageIfNeededEPvb
$gh:_Array_InternalArray__IndexOf_TisBoolean_t97287965_m1161209222_gshared
ICj:__ZNK15dense_hashtableINSt3__24pairIK10KeyWrapperIP9FieldInfoEiEES5_N6il2cpp5utils11PointerHashIS3_EEN14dense_hash_mapIS5_iSB_NS5_14EqualsComparerINS0_8equal_toIS4_EEEENS0_9allocatorIS7_EEE9SelectKeyESG_SI_E3endEv
aHc:__GLOBAL__sub_I_artifacts_WebGL_codegenerator_0_cpp_2794
rqa:__ZN9Scripting11UnityEngine12CullingGroup9InitProxyEv
VHg:_SynchronizedArrayListWrapper_Clear_m2191301493
S6c:_Update_Max
Ytg:_String_CreateString_m780602784
o_j:__ZN6il2cpp6icalls8mscorlib6SystemL15ThrowNoWideningEv
_pc:__ZNK23TransformChangeDispatch24GetChangeMaskForInterestENS_12InterestTypeE
dqc:__Z45Transform_CUSTOM_INTERNAL_CALL_TransformPointP12Il2CppObjectRK8Vector3fRS1_
FTe:_GenericTypeParameterBuilder_InvokeMember_m1647304778
KFd:_HorizontalOrVerticalLayoutGroup_set_childControlWidth_m3261460516
KMa:__ZNSt3__26__treeINS_12__value_typeI39DeprecatedFastPropertyNameSerializationfEENS_19__map_value_compareIS2_S3_NS_4lessIS2_EELb1EEENS_9allocatorIS3_EEE7destroyEPNS_11__tree_nodeIS3_PvEE
S4c:_tt_cmap4_char_index
Lxd:_AspectRatioFitter_GetParentSize_m3159144324
rqg:_SecurityFrame_get_Assembly_m2874566710
hWi:_Enumerator_System_Collections_IEnumerator_Reset_m1487823313_gshared
Lbb:__ZNK12HandlerChain8IsHiddenERK13FileEntryData
Jgb:__ZNSt3__26__treeINS_12__value_typeIN4core12basic_stringIcNS2_20StringStorageDefaultIcEEEEPN16MemoryFileSystem4NodeEEENS_19__map_value_compareIS6_SA_NS_4lessIS6_EELb1EEE13stl_allocatorISA_L18MemLabelIdentifier55ELi16EEE25__emplace_unique_key_argsIS6_JNS_4pairIKS6_S9_EEEEENSK_INS_15__tree_iteratorISA_PNS_11__tree_nodeISA_PvEEiEEbEERKT_DpOT0_
$sb:__ZL26Transfer_SimpleNativeClassI17RemapPPtrTransfer10RectOffsetLb0EEvRK29SerializationCommandArgumentsR31RuntimeSerializationCommandInfo
uSg:_Int32_ToString_m2507389746_AdjustorThunk
I2g:_Decimal_op_Explicit_m438967917
Awj:_AnimatorControllerPlayable_SetHandle_m2260644454_AdjustorThunk
ggc:__ZNSt3__26vectorIN9ShaderLab20SerializedSubProgram13BufferBindingENS_9allocatorIS3_EEEC2ERKS6_
KNf:_InputField_set_selectionColor_m2084640295
ZAa:__ZNK9ShaderLab20ShaderBlendStateDesc15ToGfxBlendStateEPK19ShaderPropertySheetS3_R13GfxBlendState
Aaf:_Enumerator_System_Collections_IEnumerator_get_Current_m1747693366_AdjustorThunk
BB:__ZN11UnityEngine9AnimationL22GenericBindingCallbackEPvS1_i
ME:__ZN12_GLOBAL__N_121ProcessAnimationBeginER35AnimationPlayableEvaluationConstantR32AnimationPlayableEvaluationInputR33AnimationPlayableEvaluationOutput
Mjc:__ZN9ShaderLab9IntShaderC2Ev
RKj:__ZN6il2cpp6icalls8mscorlib6SystemL9IsPrivateEPK9EventInfo
khk:__ZN6il2cpp6icalls8mscorlib6System10Reflection4Emit11TypeBuilder20setup_internal_classEP27Il2CppReflectionTypeBuilderS7_
xhh:_Array_InternalArray__IndexOf_TisILTokenInfo_t2325775114_m2602704009_gshared
Utd:_ExecuteEvents_Execute_m3613826831
XIh:_StringBuilder_AppendFormat_m3255666490
IOe:_OverflowException__ctor_m4029085969
HKc:__ZN13GUIStateScope3EndER16GUIKeyboardStateR8GUIStatePN5IMGUI19NamedKeyControlListE
vId:_TypeBuilder_GetGenericArguments_m2872156836
Yyj:__ZN13Il2CppHashMapIPK22Il2CppGenericParameterP11Il2CppClassN6il2cpp5utils11PointerHashIS1_EENSt3__28equal_toIS2_EENS9_9allocatorINS9_4pairIK10KeyWrapperIS2_ES4_EEEEEC2EjRKS8_RKSB_
GQc:__ZN8JSONRead21TransferSTLStyleArrayI31ArrayOfManagedObjectsTransfererEEvRT_17TransferMetaFlags
Vcb:__Z15CreateDirectoryRKN4core12basic_stringIcNS_20StringStorageDefaultIcEEEE
I0a:__Z21CalculateGlobalMatrix23TransformAccessReadOnly
wId:_TypeBuilder_GetGenericTypeDefinition_m1632720438
ich:_Array_InternalArray__ICollection_Contains_TisLink_t544317964_m163190451_gshared
F6g:_DateTimeOffset_System_IComparable_CompareTo_m176229495_AdjustorThunk
Qzf:_ManagedStreamHelpers_ValidateLoadFromStream_m580138133
c3a:__ZNK13BuildSettings22GetTypeVirtualInternalEv
Nkc:__ZN13MonoBehaviour20SetScriptingDataFromERKS_
O8h:__ZN30GenericInterfaceActionInvoker1I17Scene_t2348375561E6InvokeEPK10MethodInfoP12Il2CppObjectS0_
_Ti:_List_1_CheckIndex_m2250397830_gshared
Usg:_String_LastIndexOf_m578673845
CCf:_PlayerEditorConnectionEvents_UnregisterManagedCallback_m400366024
yjc:__ZN9ShaderLab20SerializedSubProgram14ConstantBufferC2EOS1_
z:tempBigIntI
E8f:_Interval_get_Empty_m3617514670
lPe:_Assembly_GetName_m981771927
Pz:__ZN7mecanim12statemachine24CreateStateMachineOutputEPKNS0_20StateMachineConstantEjRNS_6memory9AllocatorE
m5j:__ZN6il2cpp2vm12GenericClass8GetClassEP18Il2CppGenericClass
iib:__ZNK9GfxDevice27GetActiveRenderSurfaceWidthEv
pAe:__ZL114StandaloneInputModule_t2760469101_CustomAttributesCacheGenerator_StandaloneInputModule_ForceAutoSelect_m2837047882P21CustomAttributesCache
skd:__ZN11UnityEngine15PlatformWrapper28GetCleanGraphicsFixedVersionEv
kTf:_MaskableGraphic_RecalculateClipping_m1772937317
oJe:_UnmanagedMemoryStream_SetLength_m3752964620
D3i:_SslStreamBase_RaiseLocalPrivateKeySelection_m4112368540
RTj:__ZN6il2cpp2vm4Type7GetTypeEPK10Il2CppType
_Yc:_open_face_PS_from_sfnt_stream
b0e:_InternalEnumerator_1_get_Current_m165106323_AdjustorThunk
LJh:_UTF32Encoding_GetByteCount_m3610769032
oV:__ZN11AudioModule16SetListenerPauseEb
cXb:__Z16FindCameraStacksRKNSt3__24listI4PPtrI6CameraENS_9allocatorIS3_EEEERNS_6vectorI11CameraStackNS4_ISA_EEEE
M9i:_MatchCollection_CopyTo_m3807326147
MVa:__ZN10GISettings8TransferI14SafeBinaryReadEEvRT_
sn:FUNCTION_TABLE_vifff
srf:_MD5CryptoServiceProvider__ctor_m3271163125
V9b:__ZN19CustomRenderTexture12ClearGPUDataEv
XPg:_Guid_Equals_m3683678873
AJa:__ZN13RenderTexture13ApplySettingsEv
olf:_ObjectReader_RegisterObject_m1853376334
_Ue:_ModuleBuilderTokenGenerator_GetToken_m2588853565
gDg:_Boolean_System_IConvertible_ToDecimal_m3176932461_AdjustorThunk
p2b:__ZNSt3__26__treeINS_12__value_typeIi17ShadowCachingDataEENS_19__map_value_compareIiS3_NS_4lessIiEELb1EEE13stl_allocatorIS3_L18MemLabelIdentifier66ELi16EEE25__emplace_unique_key_argsIiJNS_4pairIiS2_EEEEENSD_INS_15__tree_iteratorIS3_PNS_11__tree_nodeIS3_PvEEiEEbEERKT_DpOT0_
Te:_JS_Sound_SetListenerPosition
ln:FUNCTION_TABLE_fiffi
Cdd:__Z55Register_UnityEngine_CanvasGroup_get_ignoreParentGroupsv
V_h:_ReadOnlyCollection_1_System_Collections_Generic_IListU3CTU3E_set_Item_m711370667_gshared
O0a:__ZN12EventManager11RemoveEventEP10EventEntryPFvPvS2_iES2_
hQe:_Default_check_arguments_with_score_m3467814020
vxk:_glGetActiveUniform__wrapper
fZg:_StreamWriter_LowLevelWrite_m1081676583
N8a:__ZNK8Material16MarkDependenciesER27GarbageCollectorThreadState
NYf:_Slider_set_handleRect_m1101657556
S6g:_DateTimeOffset_ToString_m3985341516_AdjustorThunk
NNc:__ZL17Transfer_GUIStyleI9JSONWriteLb0EEvRK29SerializationCommandArgumentsR31RuntimeSerializationCommandInfo
R$b:__Z28GetHaloVertexPositionsStereoP8Vector3fRKS_S2_f
iia:__ZN6prcoreL27StretchGenericFloatBilinearI15TexFormatRGHalfEEvPKNS_9InnerInfoE
mH:__Z16return_effectiveRK21AnimationClipOverride
N$b:__ZN9DepthPass7PrepareER6CameraRK13dynamic_arrayI16RenderObjectDataLj0EERK15RenderNodeQueueRK17ShaderReplaceDatab
Xoa:__ZN9Scripting11UnityEngine12Experimental3U2D10SpriteBone9InitProxyEv
OKa:__ZNK15PlayableMethods18InvokePrepareFrameER18ScriptingObjectPtrRK9HPlayableP18ScriptingFrameData
pH:__ZN14SafeBinaryRead21TransferSTLStyleArrayI13dynamic_arrayI21AnimationClipOverrideLj0EEEEvRT_17TransferMetaFlags
mW:__Z13RegisterClassI12AudioManagerEvPKc
yBb:__Z18Transfer_BlittableI18StreamedBinaryReadILb0EELb1E9BoundsIntEvRK29SerializationCommandArgumentsR31RuntimeSerializationCommandInfo
uEe:__ZL71SpriteState_t1362986479_CustomAttributesCacheGenerator_m_DisabledSpriteP21CustomAttributesCache
$ld:__ZN22BaseUnityConnectClient28UpdateConfigFromServerStaticEPv
z3f:_PublicKey_DecodeDSA_m3490622362
Jpc:__Z49Register_UnityEngine_Resources_GetBuiltinResourcev
lPh:_Type_GetMethod_m1479779718
F4c:_tt_cmap10_char_index
b4i:_TlsException__ctor_m3242533711
_gc:__ZN15SerializeTraitsINSt3__24pairIN4core12basic_stringIcNS2_20StringStorageDefaultIcEEEE4PPtrI7TextureEEEE8TransferI24GenerateTypeTreeTransferEEvRSA_RT_
KZg:_SortedList__ctor_m3676552745
Azj:__ZN15dense_hashtableINSt3__24pairIK10KeyWrapperIPK22Il2CppGenericParameterEP11Il2CppClassEES6_N6il2cpp5utils11PointerHashIS4_EEN14dense_hash_mapIS6_S9_SE_NS6_14EqualsComparerINS0_8equal_toIS5_EEEENS0_9allocatorISA_EEE9SelectKeyESJ_SL_E3endEv
AU:__ZN11AudioSource24ClearExtensionPropertiesE12PropertyName
cic:__ZN9ShaderLab22SerializedBindChannels8TransferI19StreamedBinaryWriteILb0EEEEvRT_
mrb:__ZN15SerializeTraitsI5RectTIiEE8TransferI14SafeBinaryReadEEvRS1_RT_
uJc:__ZN5IMGUI20MoveWindowFromLayoutER8GUIStateiRK5RectTIfE
DZc:_UNITY_FT_Stream_ReadUShort
rMa:__ZNSt3__26__treeINS_12__value_typeIN4core12basic_stringIcNS2_20StringStorageDefaultIcEEEES6_EENS_19__map_value_compareIS6_S7_NS_4lessIS6_EELb1EEE13stl_allocatorIS7_L18MemLabelIdentifier1ELi16EEE7destroyEPNS_11__tree_nodeIS7_PvEE
LPb:__Z13IsDepthFormat14GraphicsFormat
x2a:__ZN12AspectRatios8TransferI24GenerateTypeTreeTransferEEvRT_
qLe:_MonoType_GetFields_m4176012508
J4g:_CurrentSystemTimeZone_GetTimeZoneData_m2641861607
Jf:_emscripten_glUniform1fv
Sxh:_EqualityComparer_1_System_Collections_IEqualityComparer_GetHashCode_m3423304513_gshared
Nzj:__ZN6il2cpp2vm5Class13GetArrayClassEP11Il2CppClassj
wwd:_StandaloneInputModule_set_inputActionsPerSecond_m4057208843
BIb:__ZN19RuntimeSceneManager18LoadSceneAsyncIntoER10UnitySceneRKN4core12basic_stringIcNS2_20StringStorageDefaultIcEEEENS_11LoadingModeEb
gNc:__Z35Transfer_Blittable_FixedBufferFieldI9JSONWritetEvRK29SerializationCommandArgumentsR31RuntimeSerializationCommandInfo
XKc:__ZN11IMGUIModule12AddGUIScriptER8ListNodeI13MonoBehaviourE
lb:invoke_difi
jgj:_GUILayoutUtility_BeginWindow_m2240221150
qwk:_glDeleteSamplers__wrapper
Mca:__ZL50StaticRegisterSceneLoadedCallback_LightmapSettingsPv
N_f:_HybridDictionary_set_Item_m2997363718
Nm:FUNCTION_TABLE_iiffi
P5e:_InternalEnumerator_1_get_Current_m1477715453_AdjustorThunk
lSh:_UInt64_System_IConvertible_ToUInt32_m2784653358
vPb:__ZN21GLESGpuProgramApplier11ApplyVectorERKN20GpuProgramParameters14ValueParameterEPK8Vector4ft
X4b:__Z17PrepareSceneNodesP11CullResults
Nnf:_SByte_System_IConvertible_ToDecimal_m2548745278
v_c:_cff_size_done
z5b:__ZN29ExtractProjectionPlanesHelperILb1EE5ApplyERK10Matrix4x4fP5Plane
vbk:__ZN6il2cpp6icalls8mscorlib6System7Convert17Base64ToByteArrayEPDsib
ouc:__ZN13ProduceHelperI7CubemapLb0EE7ProduceE10MemLabelId18ObjectCreationMode
lac:__ZN6Camera34UpdatePreviousViewProjectionMatrixEv
OLa:__ZN9ShaderLab11ShaderState25RemoveUnsupportedProgramsEPK6Shader
V8c:__Z28Font_Get_Custom_PropMaterialP12Il2CppObject
hAf:_Mathf_Abs_m3281243566
oIe:_SynchronizedWriter_WriteLine_m1552352268
Nmc:__Z26scripting_class_has_parent17ScriptingClassPtrS_
yba:__ZN13RuntimeStaticI21AssetReferenceStorageLb0EE16StaticInitializeEPv
BRg:_Int32_System_IConvertible_ToByte_m3832391412_AdjustorThunk
TU:__Z71Register_UnityEngine_AudioSource_INTERNAL_CALL_ClearExtensionPropertiesv
AF:__ZNK8Animator20IsInMatchTargetStateEv
P1e:_InternalEnumerator_1_System_Collections_IEnumerator_get_Current_m4088805473_gshared
koa:__ZN9Scripting11UnityEngine5Plane12CleanupProxyEv
qJc:__Z36Register_UnityEngine_GUI_set_changedv
iSd:_Context_GetServerContextSinkChain_m3154465897
chj:_GUIStyle_get_fixedHeight_m2868324709
Qie:__ZL48Mathf_t3464937446_CustomAttributesCacheGeneratorP21CustomAttributesCache
thk:__GLOBAL__sub_I_Il2CppCodeRegistration_cpp
kz:__ZN27AnimationLayerMixerPlayable18SetInputConnectionEP8Playablei
Vy:__ZN7mecanim28TransformValueArrayBlendNodeEiiiRKNS_10ValueArrayERKNS_14ValueArrayMaskERS0_RS3_RNS_16ValueArrayWeightEf
SFh:_List_1_GetIndex_m3112872964_gshared
_Bd:_Dropdown_set_value_m1048320169
Txj:_CustomEventData_Finalize_m1724721833
VFa:__ZN20TierGraphicsSettings8TransferI18StreamedBinaryReadILb0EEEEvRT_
_Rg:_Int32_System_IConvertible_ToUInt64_m2502338186_AdjustorThunk
Gfa:__Z33CleanupCubemapGPUUtilityMaterialsPv
UFc:__Z43Register_UnityEngine_Material_EnableKeywordv
axj:__ZL9rshift128PyS_
wRg:_Int16_ToString_m2072232391_AdjustorThunk
UDh:_Enumerator_VerifyState_m169680537_AdjustorThunk
vSj:__ZN14dense_hash_mapI10KeyWrapperINSt3__24pairIPK12PropertyInfoP11Il2CppClassEEEj17ReflectionMapHashIS8_ENS9_14EqualsComparerINS1_8equal_toIS8_EEEENS1_9allocatorINS2_IKS9_jEEEEE13set_empty_keyERSH_
gk:_glRenderbufferStorage
Drc:__Z45Register_UnityEngine_Input_get_touchSupportedv
wkd:__ZN11UnityEngine15PlatformWrapper28GetTextureFormatSupportFlagsEv
l3c:_sfnt_is_postscript
ujf:_RemotingConfiguration_RegisterWellKnownClientType_m1237674062
Fra:__ZN9Scripting5Unity11Collections8LowLevel6Unsafe42NativeDisableUnsafePtrRestrictionAttribute9InitProxyEv
lej:_Uri_EscapeString_m3864445955
d$c:_cf2_setError
eXa:__ZN14SafeBinaryRead21TransferSTLStyleArrayI13dynamic_arrayI12BoneWeights4Lj16EEEEvRT_17TransferMetaFlags
KVb:__ZZ23InitPlayerLoopCallbacksvEN35PreUpdateSendMouseEventsRegistrator7ForwardEv
tAa:__ZNK6Camera25GetNormalizedViewportRectEP13RenderTextureb
$Bd:_Dropdown_Awake_m3140021404
Zg:_glDisable
qqk:_llvm_ctlz_i64
Fb:invoke_vffff
tLf:_Vector2_get_sqrMagnitude_m837837635
sak:__ZN6il2cpp5utils11StringUtils15StringDuplicateEPKDsj
acj:_Regex_Match_m4145799399
Tx:__ZN17AnimationPlayable17ProcessRootMotionEP35AnimationPlayableEvaluationConstantP32AnimationPlayableEvaluationInputP33AnimationPlayableEvaluationOutput
Zsg:_String_IsNullOrEmpty_m2969720369
quj:_TextGenerator_GetPreferredHeight_m3514897836
rnh:_BigInteger_LowestSetBit_m3082714978
fBk:b118
gBk:b119
ZWb:__ZNK8Material12GetPassCountEv
jlg:_RSAParameters_t1728406613_marshal_pinvoke
N8f:_Interval_IsDisjoint_m1532171337_AdjustorThunk
$Ak:b112
cqk:_bitshift64Ashr
bBk:b114
cBk:b115
dBk:b116
eBk:b117
vrk:dynCall_diii
kSf:_LayoutUtility_GetFlexibleWidth_m22831835
bXe:_ArrayReadOnlyList_1_ReadOnlyError_m865416608_gshared
R6b:__Z18AddGroupToWorkloadR26BlockRangeBalancedWorkloadjR13dynamic_arrayI10BlockRangeLj0EERS1_IjLj0EE
bJg:_CollectionBase_System_Collections_IList_get_Item_m3743372945
ZRa:__ZN4crnd12crn_unpacker22decode_alpha_endpointsEv
BWi:_Queue_1__ctor_m2068090025_gshared
n6b:__Z23CullDynamicObjectsUmbraPK4AABBPKN5Umbra15OcclusionBufferER9IndexList
C3i:_SslStreamBase_RaiseRemoteCertificateValidation2_m2908038766
T4c:_tt_cmap4_char_next
rAd:_ColorTween_set_startColor_m2562993758_AdjustorThunk
vdi:__Z50RuntimeInvoker_Boolean_t97287965_Int16_t2552820387PFvvEPK10MethodInfoPvPS4_
gea:__ZN17DirectorFrameTime14ResetDSPValuesEv
t1g:_Convert_ToDecimal_m1233667008
Mmd:__ZN22UnityAnalyticsSettings10SetEnabledEb
OM:__ZN4FMOD7Channel11setPositionEjj
Rh:_glBindSampler
eek:_GC_reclaim_block
Ueg:_ClientContext_get_ClientHelloProtocol_m1654639078
Vh:_glGetVertexAttribiv
tff:_Enumerator_System_Collections_IEnumerator_get_Current_m1975949486_gshared
taj:_PatternCompiler_EmitSub_m193323684
Wad:__ZN2UI11CanvasGroup23VirtualRedirectTransferER18StreamedBinaryReadILb0EE
Lra:__ZN9Scripting5Unity11Collections8LowLevel6Unsafe49NativeContainerSupportsDeferredConvertListToArray9InitProxyEv
TQc:__ZN8JSONRead8TransferIbEEvRT_PKc17TransferMetaFlagsb
aOh:_TimeSpan_ToString_m1128692466
ajj:_AesManaged_CreateEncryptor_m2294080233
Mfj:_Event_GetHashCode_m3559153592
vIh:_StringBuilder__ctor_m2367297767
Jck:_GC_promote_black_lists
cNg:_CultureInfo_construct_datetime_format_m1928121315
HRc:__Z29Transfer_Blittable_ArrayFieldI8JSONRead8Vector4fEvRT_R9ArrayInfoRK23StaticTransferFieldInfo
Rn:FUNCTION_TABLE_vf
wLe:_Binder_GetDerivedLevel_m3216810447
oo:FUNCTION_TABLE_vd
qo:FUNCTION_TABLE_vi
p3:__ZN13RuntimeStaticI37UnityShaderCompilerExtPluginConfigureLb0EE16StaticInitializeEPv
YIh:_StringBuilder_AppendFormat_m2403596038
eqf:_DSASignatureDeformatter_SetHashAlgorithm_m3186995552
uYh:_ReadOnlyCollection_1_System_Collections_Generic_ICollectionU3CTU3E_Clear_m2772202961_gshared
oJh:_UnicodeEncoding_GetString_m332467280
kJ:__ZNK8Animator17HasBoundPlayablesEv
oOd:_ResourceSet_ReadResources_m3663669011
JLh:_SynchronizationContext_SetSynchronizationContext_m1249070039
NTi:_List_1_AddEnumerable_m1267044261_gshared
Ohi:__Z99RuntimeInvoker_Void_t1185182177_RuntimeObject_Int32_t2950945753_SByte_t1669577662_SByte_t1669577662PFvvEPK10MethodInfoPvPS4_
hLj:__ZN6il2cpp2vm7Runtime9SetConfigEPKc
ELc:__ZN5Unity9rapidjson12PrettyWriterI16TempBufferWriterNS0_4UTF8IcEES4_13JSONAllocatorE10StartArrayEv
ora:__ZN9Scripting11UnityEngine16AndroidJNIHelper12CleanupProxyEv
ta:invoke_iiifiii
mHf:_RectTransform_INTERNAL_get_pivot_m2970933031
G8h:_UnityAction_1_Invoke_m927447181_gshared
z_j:__ZN6il2cpp2vm9Exception11FromNameMsgEPK11Il2CppImagePKcS6_S6_
dn:FUNCTION_TABLE_fiiifii
II:__ZN10HumanTrait15InitializeClassEv
gfa:__Z14GetTimeManagerv
Uuf:_Color32_op_Implicit_m213813866
RGf:_RectOffset_set_top_m713260669
Apd:__ZN19TransportJavaScript7CleanupEv
fpc:__Z12GUIDToStringRK9UnityGUIDPc
Zba:__ZN15FileSystemEntry4LockE12FileLockModeP12FileAccessor
Gma:__ZN9Scripting11UnityEngine10Vector3Int12CleanupProxyEv
bzk:_emscripten_glDrawArrays__wrapper
bbj:_Parser__ctor_m3200411199
hSg:_Int32_Equals_m2976157357
zsi:__Z110RuntimeInvoker_Int32_t2950945753_Int32_t2950945753_Int32_t2950945753_Int32U26_t1369213839_Int32U26_t1369213839PFvvEPK10MethodInfoPvPS4_
zQ:__ZN11AudioSource22UnmuteActiveVideoSinksEv
V4i:_TlsException__ctor_m3717683709
pak:__ZN4utf88internal20is_overlong_sequenceIiEEbjT_
cEj:__ZN6il2cpp2vm13MetadataCache8RegisterEPK22Il2CppCodeRegistrationPK26Il2CppMetadataRegistrationPK20Il2CppCodeGenOptions
Hmc:__Z41Register_UnityEngine_Cursor_get_lockStatev
VQj:__ZN14dense_hash_mapI10KeyWrapperIPK14Il2CppAssemblyEPK22Il2CppMonoAssemblyNameN6il2cpp5utils11PointerHashIS2_EENS4_14EqualsComparerINSt3__28equal_toIS3_EEEENSD_9allocatorINSD_4pairIKS4_S7_EEEEE13set_empty_keyERSJ_
hLa:__ZL20InitializeGUIShadersv
RPg:_Guid_CompareTo_m243656946
hxc:__Z20DestroyObjectDelayedP6Objectf
m1:__ZN20DynamicHeapAllocatorI17LowLevelAllocatorED0Ev
pid:__ZL56__ManagedRegistrationHelperFunction_AnalyticsSessionInfoPv
Yxc:__ZN11TimeManagerC2E10MemLabelId18ObjectCreationMode
o_b:__ZN9DepthPassD2Ev
qM:__ZN11AudioFilter6GetDSPEv
ilg:_RSACryptoServiceProvider_OnKeyGenerated_m863837376
IVf:_Scrollbar_OnDrag_m4289602768
j6:__ZN19RuntimeSceneManager14CanUnloadSceneEP10UnityScene
r_b:__Z22ExtractRenderNodeQueueRK11CullResults15ExtractionFlagsR15RenderNodeQueue
iP:__ZN24AudioScriptBufferManagerC2Ev
mTc:__ZN11UnityEngine9Analytics18SceneLoadTimeEvent12ToJsonStringER9JSONWrite
nYc:__ZNSt3__26vectorIh13stl_allocatorIhL18MemLabelIdentifier1ELi16EEE8__appendEj
T3e:_InternalEnumerator_1_System_Collections_IEnumerator_get_Current_m3854084659_AdjustorThunk
ZLc:__ZN8JSONRead32GetValueForKeyWithNameConversionEPKN5Unity9rapidjson12GenericValueINS1_4UTF8IcEE13JSONAllocatorEEPKc
eWe:_U3CGetEnumeratorU3Ec__Iterator0_System_Collections_IEnumerator_get_Current_m283764921_gshared
JLg:_CultureInfo_get_IcuName_m2258611679
FMc:__Z18Transfer_BlittableI9JSONWriteLb0EfEvRK29SerializationCommandArgumentsR31RuntimeSerializationCommandInfo
QJa:__Z21GetAsyncUploadManagerv
Hj:_emscripten_glDetachShader
r_a:__ZN17GenericDynamicVBO20ReleaseChunkInternalERK21DynamicVBOChunkHandlejj
dad:__ZL27CleanupModule_TextRenderingv
Fmk:_fmodl
Erh:_SymmetricTransform_OFB_m3842617151
GIb:__ZN19RuntimeSceneManager11CreateSceneEv
xuf:_Color__ctor_m286683560
aaj:_PatternCompiler_Emit_m1540115729
c3c:_ps_get_standard_strings
N1b:__Z27SetupBakedOcclusionForLightbRK15SharedLightDataR17ShaderPassContext
QEf:_PropertyName_op_Implicit_m1633828199
pik:__ZN6il2cpp2os5Mutex6UnlockEv
svg:_EncoderFallbackException__ctor_m1051987327
znh:_BigInteger_ToString_m3278248272
A7g:_Decimal_System_IConvertible_ToBoolean_m1123794670
Eyi:__Z98RuntimeInvoker_Int32_t2950945753_RaycastResult_t3360306849_RaycastResult_t3360306849_RuntimeObjectPFvvEPK10MethodInfoPvPS4_
vSf:_Mask__ctor_m1269055150
y9d:__ZL99WaitHandle_t1743403487_CustomAttributesCacheGenerator_WaitHandle_t1743403487____Handle_PropertyInfoP21CustomAttributesCache
y2f:_WebRequest_AddPrefix_m3187775913
GXb:__Z18RenderImageFiltersR10RenderLoopb
Ndd:__Z43CanvasRenderer_Get_Custom_PropMaterialCountP12Il2CppObject
X1b:__ZNSt3__227__insertion_sort_incompleteIR23CompareReflectionProbesP31RuntimeReflectionProbeBlendInfoEEbT0_S5_T_
rQi:_List_1_Remove_m1457733883_gshared
h0g:_DateTime_IsLetter_m156019844
Lzb:__ZN18StreamedBinaryReadILb1EE21TransferSTLStyleArrayI13dynamic_arrayIdLj0EEEEvRT_17TransferMetaFlags
vKd:_MonoEventInfo_GetEventInfo_m873645389
bcg:_MD4Managed_Encode_m386285215
jca:__ZN10InputEventD2Ev
lod:__ZN22UnityWebRequestManagerD2Ev
Rfj:_Event_get_character_m1666742088
AHb:__Z20SetPlayerPauseDirect11PlayerPause
kmk:_isalpha
T$g:_Convert_ToChar_m1442101407
Xsc:__ZZL31RegisterRectTransformPropertiesR22GenericPropertyBindingEN28Wrapper_RectTransformPivoty113SetFloatValueEPvf
U6g:_DateTimeOffset_get_Offset_m2040541042_AdjustorThunk
dJj:__ZN6il2cpp2vmL17IsSocketAsyncCallEP14Il2CppDelegate
mZg:_Slot_t3975888750_marshal_pinvoke_back
Gak:__ZN6il2cpp2vm6String6NewLenEPKcj
XPf:_Selectable_get_image_m1928917691
jGb:__ZN17PersistentManager9AddStreamEv
$k:_time
gAd:_ContentSizeFitter_set_verticalFit_m1831566876
Gng:_TripleDESCryptoServiceProvider_CreateDecryptor_m740960117
Jui:__Z122RuntimeInvoker_Void_t1185182177_Color_t2555686324_Single_t1397266774_SByte_t1669577662_SByte_t1669577662_SByte_t1669577662PFvvEPK10MethodInfoPvPS4_
aAf:_Material_EnableKeyword_m329692301
S$c:_cf2_stack_free
Cmg:_SHA512Managed_HashCore_m2377807474
gTg:_Int64_Parse_m3309897583
uMg:_CompareInfo_IndexOf_m667936183
Ex:__ZN7mecanim9animation19EvaluateFloatValuesEPKNS0_18ClipMuscleConstantEPKNS_18ValueArrayConstantEPKNS0_12ClipBindingsEPKNS0_10ClipOutputEPNS0_18AnimationNodeStateEfbb
TF:__ZN8Animator31ClearInternalControllerPlayableEv
NTb:__ZN26SinglePassStereoSupportExt18AfterSetViewMatrixEv
etf:_Bounds__ctor_m1937678907_AdjustorThunk
GIf:_SetupCoroutine_InvokeMember_m2661944898
jBh:_HashSet_1__ctor_m620629637_gshared
Fwa:__ZN10GameObject8TransferI24GenerateTypeTreeTransferEEvRT_
IMj:__ZN15dense_hashtableINSt3__24pairIK10KeyWrapperINS1_IPK9FieldInfoP11Il2CppClassEEEjEES9_17ReflectionMapHashIS8_EN14dense_hash_mapIS9_jSD_NS9_14EqualsComparerINS0_8equal_toIS8_EEEENS0_9allocatorISB_EEE9SelectKeyESI_SK_E4findERSA_
IHg:_SimpleEnumerator_MoveNext_m3113120129
FIb:__ZN13LoadOperationC2E10MemLabelId
YMf:_InputField_SendOnValueChanged_m2560301445
hYb:__ZN13RenderTexture19SetAutoGenerateMipsEb
hIa:__Z20GetTextureFormatInfo13TextureFormat
e0f:_TypeConverterAttribute_Equals_m1580461255
ldg:_RSAManaged_ToXmlString_m2369501989
sA:__ZN26AnimatorControllerPlayable8GetFloatEiRf
_7g:_Decimal_System_IConvertible_ToUInt64_m1323635232_AdjustorThunk
vUd:_LogicalCallContext__ctor_m1263247987
m5g:_DateTime_System_IConvertible_ToSingle_m2193708681_AdjustorThunk
HDb:__ZNK35ScriptingManagedObjectProxyRegistry11InitProxiesEv
hbd:__ZN2UI14CanvasRenderer13AwakeFromLoadE17AwakeFromLoadMode
YWd:__ZL64String_t_CustomAttributesCacheGenerator_String_Split_m3580120853P21CustomAttributesCache
Hgk:__ZN6il2cpp5utils10MemoryPool6MallocEj
HM:__ZN11SoundHandle8InstanceD2Ev
_Nd:_ResourceEnumerator_Reset_m3754276504
Ofa:__ZN31CanvasBatchIntermediateRenderer13StaticDestroyEPv
xOb:__ZNSt3__26__treeI17DeviceRasterState14MemoryCompLessIS1_ENS_9allocatorIS1_EEE25__emplace_unique_key_argsIS1_JS1_EEENS_4pairINS_15__tree_iteratorIS1_PNS_11__tree_nodeIS1_PvEEiEEbEERKT_DpOT0_
sza:__Z26scripting_method_get_class18ScriptingMethodPtr
Pwk:_emscripten_glBindProgramARB__wrapper
iGi:_Array_InternalArray__set_Item_TisPlayerLoopSystem_t105772105_m93492520_gshared
Emc:__Z41Register_UnityEngine_CullingGroup_Disposev
xaj:_PatternCompiler_EmitRepeat_m697083858
RQa:__ZN7Cubemap23VirtualRedirectTransferER19StreamedBinaryWriteILb0EE
sLj:__ZN6il2cpp2vm7Runtime47RaiseExecutionEngineExceptionIfMethodIsNotFoundEPK10MethodInfoPK19Il2CppGenericMethod
wu:__Z14FindAvatarRootPKN7mecanim8skeleton8SkeletonEPKjR9Transformb
Heb:__ZN25MultiBlocksMemoryFileData5WriteEyyPKv
CNd:_ResourceReader_Read7BitEncodedInt_m3568166465
sph:_BlockProcessor_Core_m2138791525
cvj:_CanvasGroup_set_alpha_m4032573
KAg:_Array_get_LongLength_m978104875
qQb:__ZL17ProgramUniform2fvPK7ApiGLESjiihPKv
Uxk:b83
jYc:__ZN20TextRenderingPrivate8FontImpl21HasCharacterInTextureEjijfPj
EKf:_Transform_SetAsFirstSibling_m253439912
v5g:_DateTime_System_IConvertible_ToUInt16_m4182197229_AdjustorThunk
F8f:_Interval_get_IsDiscontiguous_m3016063288
E3i:_SslStreamBase_get_CheckCertRevocationStatus_m2739906607
Gnk:_htonl
TNb:__Z20GetBufferManagerGLESv
Txk:b82
uCb:__ZN18StreamedBinaryReadILb0EE21TransferSTLStyleArrayI31ArrayOfManagedObjectsTransfererEEvRT_17TransferMetaFlags
ila:__ZL60__ManagedRegistrationHelperFunction_FailedToLoadScriptObjectPv
RPc:__Z18Transfer_BlittableI8JSONReadLb0EtEvRK29SerializationCommandArgumentsR31RuntimeSerializationCommandInfo
_6:__Z16GenerateTypeTreeRK6ObjectR8TypeTree24TransferInstructionFlags
mNg:_CultureInfo_CreateCulture_m1493441763
yng:_TripleDES_IsWeakKey_m2147489852
eB:__ZN34AnimationStateMachineMixerPlayable13EndTransitionEv
BL:__ZN12AudioManager21FixMasterGroupRoutingEv
UZa:__ZNK19ShaderPropertySheet11HasPropertyERKN9ShaderLab16FastPropertyNameE
Ork:dynCall_viffffii
Bxi:__Z81RuntimeInvoker_Boolean_t97287965_NavigationU26_t1807167253_Navigation_t3049316579PFvvEPK10MethodInfoPvPS4_
Uyk:_emscripten_glUniform1fv__wrapper
xab:__ZN2UI13RectTransform19SetAnchoredPositionERK8Vector2f
rFd:_GridLayoutGroup_SetLayoutHorizontal_m2838109254
yBd:_Dropdown_RefreshShownValue_m2806045241
Cob:__Z18Transfer_BlittableI14SafeBinaryReadLb1E4AABBEvRK29SerializationCommandArgumentsR31RuntimeSerializationCommandInfo
L5j:__ZN6il2cpp6icalls8mscorlib6System4Enum12get_hashcodeEP12Il2CppObject
Hfk:_GC_set_no_dls
Bzd:_ColorBlock_set_normalColor_m254595671_AdjustorThunk
hkk:__ZN6il2cpp8metadata26Il2CppGenericMethodCompare6EqualsEPK19Il2CppGenericMethodS4_
M2e:_InternalEnumerator_1_get_Current_m1007906068_gshared
Bqa:__ZN9Scripting11UnityEngine7Color329InitProxyEv
Ngd:__ZN11UnityEngine9Analytics15AnalyticsConfig12EventsConfig8TransferI8JSONReadEEvRT_
KHg:_SimpleEnumerator_Reset_m1520014659
RS:__ZN9AudioClip7WWWOpenEPKciPjPPvS4_
tob:__Z18Transfer_BlittableI14SafeBinaryReadLb0E8Vector2fEvRK29SerializationCommandArgumentsR31RuntimeSerializationCommandInfo
Vgg:_Context_set_ProtocolNegotiated_m2904861662
n1j:__ZN15dense_hashtableINSt3__24pairIK10KeyWrapperINS1_IPKcS4_EEEiEES6_24NamespaceAndNamePairHashN14dense_hash_mapIS6_iS9_NS6_14EqualsComparerI26NamespaceAndNamePairEqualsEENS0_9allocatorIS8_EEE9SelectKeyESD_SF_E12resize_deltaEjj
Bsj:__ZL25UnresolvedVirtualCall_222P12Il2CppObjectfPK10MethodInfo
Iif:_RemotingServices_GetRemoteObject_m2117098022
tvj:_CanvasRenderer_SetTexture_m1600559835
UTh:_Collection_1_System_Collections_IList_IndexOf_m4256072926_gshared
xrc:__Z53Register_UnityEngine_Input_INTERNAL_get_mousePositionv
LNb:__ZN7ApiGLES12DrawElementsE16GfxPrimitiveTypePKvjjjj
Vqh:_EncryptedPrivateKeyInfo_get_Salt_m3453455261
m0g:_DateTime__ParseNumber_m1240316250
oSc:__ZN8JSONRead21TransferSTLStyleArrayI13dynamic_arrayIfLj0EEEEvRT_17TransferMetaFlags
Yqg:_Single_System_IConvertible_ToSingle_m1939829239_AdjustorThunk
SC:__ZN11UnityEngine9Animation31SetHumanTransformPropertyValuesERKNS0_21AvatarBindingConstantERKN7mecanim8skeleton13SkeletonPoseTIN4math4trsXEEEby
O0:__GLOBAL__sub_I_Runtime_Utilities_6_cpp
a$e:_InternalEnumerator_1_get_Current_m3839250771_gshared
QMg:_CultureInfo_get_TextInfo_m2342840448
ed:_SDL_GetTicks
dgd:__ZN2UI14CanvasRenderer11SyncCullingENS0_8SyncFlagE
EOj:__ZN15dense_hashtableINSt3__24pairIK10KeyWrapperINS1_IPK11Il2CppImageP11Il2CppClassEEEjEES9_17ReflectionMapHashIS8_EN14dense_hash_mapIS9_jSD_NS9_14EqualsComparerINS0_8equal_toIS8_EEEENS0_9allocatorISB_EEE9SelectKeyESI_SK_E6insertERKSB_
nD:__ZN8Animator24SortJobsBasedOnHierarchyERK13dynamic_arrayINS_11AnimatorJobELj0EERS0_IS2_Lj0EE
uu:__Z16AppendPathToHashRKN7mecanim5crc32EPKc
S5b:__Z21CreateShadowCullerJobP30CreateUmbraShadowCullerJobData
b0h:_ReadOnlyCollection_1_System_Collections_Generic_ICollectionU3CTU3E_Remove_m4072504734_gshared
iQb:__ZL18ProgramUniform2uivPK7ApiGLESjiihPKv
kyd:_U3COnFinishSubmitU3Ec__Iterator0_MoveNext_m2729496168
uyk:_glUniform4iv__wrapper
A2b:__Z33GenerateShadowCasterPartsSortDataRK16ShadowCasterDatajRK15RenderNodeQueueRKNSt3__26vectorI20ShadowCasterPartData13stl_allocatorIS7_L18MemLabelIdentifier2ELi16EEEERK10Matrix4x4fRjP20ShadowCasterSortData
ZVb:__ZZ23InitPlayerLoopCallbacksvEN51PostLateUpdateTriggerEndOfFrameCallbacksRegistrator7ForwardEv
FNh:_TimeSpan_Compare_m753151303
Rhb:__ZN9GfxDevice16DynamicBatchMeshERK10Matrix4x4fPKhjjPKtj26GfxTransformVerticesParams25GfxTransformVerticesFlagsj
Brb:__Z29Transfer_Blittable_ArrayFieldI14SafeBinaryRead9BoundsIntEvRT_R9ArrayInfoRK23StaticTransferFieldInfo
Z_c:_cf2_computeDarkening
fwj:_AnimationLayerMixerPlayable__ctor_m860721801_AdjustorThunk
OLd:_MonoPropertyInfo_get_property_info_m1599555644
Dpf:_DESTransform_CipherFunct_m3527261721
ddk:_GC_expand_hp_inner
w3j:__ZNK15dense_hashtableI10KeyWrapperIP18Il2CppGenericClassES3_N6il2cpp8metadata22Il2CppGenericClassHashEN14dense_hash_setIS3_S6_NS3_14EqualsComparerINS5_25Il2CppGenericClassCompareEEENSt3__29allocatorIS3_EEE8IdentityESA_SD_E12test_deletedEj
OGc:__Z25Screen_Get_Custom_PropDpiv
Bxf:_UnityEventBase_RebuildPersistentCallsIfNeeded_m216788690
eak:__ZN4utf812find_invalidIPKcEET_S3_S3_
ZOf:_InputField_OnEndDrag_m4127187089
C2h:_ReadOnlyCollection_1_System_Collections_IList_RemoveAt_m2555465054_gshared
j_d:__ZL72RuntimeCompatibilityAttribute_t1169614002_CustomAttributesCacheGeneratorP21CustomAttributesCache
H5b:__Z59ProcessShadowCasterNodeVisibilityAndCullWithoutUmbra_KernelILN17CullingParameters9LayerCullE2ELi8EEvR9IndexListRK22SceneCullingParametersPK9SceneNodePK4AABBjjPKN4math7_float4E
j9g:_StackFrame__ctor_m343464319
HZ:__ZN11UnityEngine15CloudWebService20WebRequestRestClient7PrepareEv
WKd:_MonoField_CheckGeneric_m453069507
YXc:__ZN20TextRenderingPrivate19NativeTextGenerator23FixLineHorizontalOffsetEiii
JQe:_CustomAttributeNamedArgument_ToString_m1488801416_AdjustorThunk
vCb:__Z19TransferField_ArrayI18StreamedBinaryReadILb0EE27Converter_UnityEngineObjectEvRK23StaticTransferFieldInfoR31RuntimeSerializationCommandInfoRT0_
Clf:_ObjectReader_ReadArrayOfString_m3550800559
oKe:_MonoCustomAttrs_GetCustomAttributesInternal_m648304078
wC:__ZN7mecanim9animation19DestroyAnimationSetEPNS0_12AnimationSetERNS_6memory9AllocatorE
ppa:__ZN9Scripting11UnityEngine12Experimental9Rendering16CameraProperties9InitProxyEv
Rfb:__ZN16MemoryFileSystem4OpenER13FileEntryData14FilePermission16FileAutoBehavior
pMg:_CompareInfo_GetSortKey_m1915852346
w7c:_ft_var_load_avar
zfa:__ZN13RuntimeStaticI13RendererSceneLb0EE13StaticDestroyEPv
l6e:_DefaultComparer_Compare_m1297750557_gshared
sfg:_CipherSuiteCollection_get_Item_m3790183696
Iub:__Z18Transfer_BlittableI24GenerateTypeTreeTransferLb1E12PropertyNameEvRK29SerializationCommandArgumentsR31RuntimeSerializationCommandInfo
Elj:_Toggle_OnEnable_m1421694809
k3a:__ZN14SafeBinaryRead21TransferSTLStyleArrayI10vector_mapIPKN5Unity4TypeE7Hash128NSt3__24lessIS5_EENS7_9allocatorINS7_4pairIS5_S6_EEEEEEEvRT_17TransferMetaFlags
QS:__ZN9AudioClip18GetQueuedAudioDataEPPvj
T9c:__ZN20TextRenderingPrivate21TextMeshGeneratorImpl14GarbageCollectEv
Vjc:__ZNK9Texture2D17CheckHasPixelDataEv
wwb:__Z18Transfer_BlittableI19StreamedBinaryWriteILb0EELb0E9BoundsIntEvRK29SerializationCommandArgumentsR31RuntimeSerializationCommandInfo
_Zb:__Z18SetShadowsKeywordsR17ShaderPassContext9LightType10ShadowType16ShadowProjectionbb
vEd:_Graphic_GetPixelAdjustedRect_m3729397999
uSj:__ZN14dense_hash_mapI10KeyWrapperINSt3__24pairIPK12PropertyInfoP11Il2CppClassEEEj17ReflectionMapHashIS8_ENS9_14EqualsComparerINS1_8equal_toIS8_EEEENS1_9allocatorINS2_IKS9_jEEEEEC2EjRKSB_RKSF_
Suc:__ZN17CollisionMeshDataC2Ev
Ohf:_Dictionary_2_ToTValue_m692436965_gshared
pPd:_Marshal_Copy_m1222846562
vjc:__ZL24FindBelongingStructParamRPKcRNSt3__26vectorIN9ShaderLab20SerializedSubProgram14ConstantBufferENS2_9allocatorIS6_EEEE
x_g:_Stack_Resize_m3124769495
aWb:__ZZ23InitPlayerLoopCallbacksvEN47PostLateUpdateMemoryFrameMaintenanceRegistrator7ForwardEv
NNb:__ZN7ApiGLES20SetVertexArrayAttribEjj12VertexFormathjPKv
Qdk:_GC_push_next_marked
K7a:__ZN18IDCollectorFunctor18GenerateInstanceIDEi17TransferMetaFlags
vLi:_GameObject_GetComponent_TisRuntimeObject_m2049753423_gshared
Stj:_TextGenerationSettings_Equals_m3618607189_AdjustorThunk
D$f:_NameObjectCollectionBase_BaseAdd_m3437748750
YOh:_Type_internal_from_handle_m3156085815
OEj:__ZN15dense_hashtableINSt3__24pairIK10KeyWrapperIN6il2cpp5utils13dynamic_arrayIPK10Il2CppTypeLj4EEEEPFvvEEESA_NS3_8metadata19Il2CppSignatureHashEN14dense_hash_mapISA_SD_SG_NSA_14EqualsComparerINSF_22Il2CppSignatureCompareEEENS0_9allocatorISE_EEE9SelectKeyESK_SM_E12maybe_shrinkEv
i_h:_ReadOnlyCollection_1_System_Collections_Generic_ICollectionU3CTU3E_Add_m69722965_gshared
nG:__ZN8Animator8TransferI19StreamedBinaryWriteILb0EEEEvRT_
qaa:__ZNSt3__27__sort4IRNS_6__lessI14ObjectLoadDataS2_EEPS2_EEjT0_S6_S6_S6_T_
FYb:__ZNK25CameraStackRenderingState16GetCurrentCameraEv
rna:__ZN9Scripting11UnityEngine9Rendering18GraphicsDeviceType9InitProxyEv
pzc:__Z22PlayableValidityChecksRK9HPlayableb
H4a:__ZN15ResourceManagerD2Ev
Hoc:__Z41Register_UnityEngine_Camera_GetAllCamerasv
Rwf:_InvokableCall__ctor_m2158562079
Mbj:_Assertion__ctor_m2128950829
tmd:__ZN28PerformanceReportingSettings8TransferI14SafeBinaryReadEEvRT_
b9a:__ZN15CacheWriterBase18GetAddressOfMemoryEv
ZPc:__Z18Transfer_BlittableI8JSONReadLb1E5RectTIiEEvRK29SerializationCommandArgumentsR31RuntimeSerializationCommandInfo
jZj:__ZN6il2cpp2vm22EmbeddedResourceRecordC2ERKS1_
pJb:__ZL20DrawVBOChunkWithPassP6ShaderPN9ShaderLab4PassER17ShaderPassContextR10DynamicVBORK21DynamicVBOChunkHandle
K_i:_Collection_1__ctor_m825528237_gshared
MQa:__ZN9Texture2D13AwakeFromLoadE17AwakeFromLoadMode
dJa:__ZN4core8hash_mapIPK17RenderSurfaceBaseP13RenderTexture19PointerHashFunctionIS3_ENSt3__28equal_toIS3_EEE6insertERKS3_RKS5_
Ceh:_SetPropertyUtility_SetStruct_TisColorBlock_t2139031574_m1748367426_gshared
nCf:_PlayerConnection_get_instance_m1750121257
R3j:__ZN6il2cpp2vm3RCW14QueryInterfaceILb0EEEP14Il2CppIUnknownP15Il2CppComObjectRK10Il2CppGuid
lJi:_Dictionary_2_Do_CopyTo_TisRuntimeObject_TisRuntimeObject_m2341992100_gshared
f8i:_X509Store_get_Certificates_m56224934
dha:__ZN6prcoreL17RemapGenericFloatI15TexFormatRFloat18TexFormatARGBFloatEEvPKNS_9InnerInfoE
jki:__Z85RuntimeInvoker_Void_t1185182177_Int64_t3736567304_Int32_t2950945753_Int64_t3736567304PFvvEPK10MethodInfoPvPS4_
neg:_CipherSuite__ctor_m2440635082
nlg:_RSAPKCS1KeyExchangeFormatter_SetRSAKey_m1477802943
hpg:_EvidenceEnumerator_get_Current_m1264365535
xnd:__ZN11UnityEngine15PlatformWrapper20GetPlayerPrefsUInt64ERKN4core12basic_stringIcNS1_20StringStorageDefaultIcEEEEy
oPd:_Marshal_copy_from_unmanaged_m2834266824
$rk:dynCall_iiiifii
a2b:__ZN20ReflectionProbeCacheC2ER13BatchRendererR15RenderLoopStats
iGf:_Rect_set_xMax_m1720695099_AdjustorThunk
Ymi:__Z59RuntimeInvoker_Int32_t2950945753_DateTimeOffset_t3229287507PFvvEPK10MethodInfoPvPS4_
ccb:__ZNK12HandlerChain6ExistsERK13FileEntryData
_Va:__ZN15SerializeTraitsI13dynamic_arrayI26EnlightenSystemInformationLj0EEE19ResizeSTLStyleArrayERS2_i
mLg:_Calendar__ctor_m106290643
NAc:__ZNSt3__26vectorIj13stl_allocatorIjL18MemLabelIdentifier1ELi16EEE6assignIPKjEENS_9enable_ifIXaasr21__is_forward_iteratorIT_EE5valuesr16is_constructibleIjNS_15iterator_traitsIS9_E9referenceEEE5valueEvE4typeES9_S9_
E1a:__ZN12InputManager23VirtualRedirectTransferER24GenerateTypeTreeTransfer
Hab:__ZN9Transform23VirtualRedirectTransferER24GenerateTypeTreeTransfer
mKc:__ZN12GUIClipState10BeginOnGUIER10InputEvent
Boi:__Z87RuntimeInvoker_RuntimeObject_Byte_t1134296376_RuntimeObject_RuntimeObject_RuntimeObjectPFvvEPK10MethodInfoPvPS4_
Yfg:_HandshakeMessage_Process_m810828609
T5c:_UNITY_tt_size_ready_bytecode
ocg:_MD5SHA1_CreateSignature_m3583449066
JWc:__ZN13TextRendering4FontD2Ev
NZc:_UNITY_FT_Stream_Open
A6h:__ZN28GenericInterfaceFuncInvoker1Ib20UIVertex_t4057497605E6InvokeEPK10MethodInfoP12Il2CppObjectS0_
Lvb:__Z29Transfer_Blittable_ArrayFieldI24GenerateTypeTreeTransfer9BoundsIntEvRT_R9ArrayInfoRK23StaticTransferFieldInfo
bFd:_GraphicRegistry__cctor_m1805310505
jtf:_Bounds_Equals_m3920299735
EEa:__ZN8keywords18KeywordSetToStringERK16ShaderKeywordSetRN4core12basic_stringIcNS3_20StringStorageDefaultIcEEEE
VTe:_GenericTypeParameterBuilder_GetGenericArguments_m2988765390
mLb:__ZN13GfxDeviceGLES26UpdateViewProjectionMatrixEv
tji:__Z77RuntimeInvoker_Void_t1185182177_Int64_t3736567304_ResourceInfoU26_t1611441338PFvvEPK10MethodInfoPvPS4_
YFh:_List_1_CheckCollection_m1717250693_gshared
ZTc:__GLOBAL__sub_I_artifacts_WebGL_codegenerator_0_cpp_4204
zzi:__Z53RuntimeInvoker_Int32_t2950945753_Keyframe_t4206410242PFvvEPK10MethodInfoPvPS4_
nL:__ZN4FMOD3DSP12setParameterEif
LGb:__ZN13MemoryManager16StaticInitializeEv
SMg:_CultureInfo_Equals_m1360976324
kf:___cxa_free_exception
Bne:__ZL69PersistentCall_t3407714124_CustomAttributesCacheGenerator_m_CallStateP21CustomAttributesCache
xN:__ZN4FMOD22FakeModChannelCallbackEPv
zpa:__ZN9Scripting11UnityEngine12Experimental10PlayerLoop14PostLateUpdate9InitProxyEv
qf:_emscripten_glValidateProgram
yCa:__ZN4Mesh10CreateMeshEv
lR:__ZN4FMOD7SystemI11createSoundEPKcjP22FMOD_CREATESOUNDEXINFOPPNS_5SoundE
dLh:_NativeEventCalls_ResetEvent_internal_m885886540
X5g:_DateTime_CompareTo_m3889078633
A$c:_cf2_stack_clear
wMe:_NumberFormatter_set_CurrentCulture_m1358228087
F$j:__ZN6il2cpp6icalls8mscorlib6System4Type27get_IsGenericTypeDefinitionEP20Il2CppReflectionType
_7b:__ZN7Texture13SetAnisoLevelEi
UX:__ZNSt3__26__treeINS_12__value_typeIN4core12basic_stringIcNS2_20StringStorageDefaultIcEEEEjEENS_19__map_value_compareIS6_S7_NS_4lessIS6_EELb1EEE13stl_allocatorIS7_L18MemLabelIdentifier88ELi16EEE7destroyEPNS_11__tree_nodeIS7_PvEE
Alb:__ZN19EndOfFrameCallbacks7EnqueueEP18EndOfFrameCallbackb
tzf:_Input_set_compositionCursorPos_m1909373301
zWa:__ZN15SerializeTraitsI13dynamic_arrayI31EnlightenSystemAtlasInformationLj0EEE8TransferI19StreamedBinaryWriteILb0EEEEvRS2_RT_
$Sc:__ZN27PerformanceReportingManager23VirtualRedirectTransferER24GenerateTypeTreeTransfer
uZc:_raccess_guess_vfat
ili:__Z78RuntimeInvoker_IntPtr_t_SByte_t1669577662_RuntimeObject_BooleanU26_t4125257963PFvvEPK10MethodInfoPvPS4_
Tcd:__Z44Canvas_CUSTOM_GetETC1SupportedCanvasMaterialv
YHa:__ZN11HaloManager10UpdateHaloEiR9Transform11ColorRGBA32fjP6Object
z8g:_Decimal_decimalSetExponent_m3707787243
P3:__ZN33InstancedMeshIntermediateRenderer13StaticDestroyEPv
Hld:__ZN28UnityConnectScriptingClasses35RemoteSettingsBeforeFetchFromServerEP21ScriptingExceptionPtr
n0j:__ZN14dense_hash_mapI10KeyWrapperIP14Il2CppIUnknownEjN6il2cpp5utils11PointerHashIS1_EENS3_14EqualsComparerINSt3__28equal_toIS2_EEEENS9_9allocatorINS9_4pairIKS3_jEEEEE13set_empty_keyERSF_
Blb:__ZN15dense_hashtableINSt3__24pairIK9TextureIDiEES2_14GfxGenericHashIS2_EN14GfxDoubleCacheIS2_iS6_NS0_8equal_toIS2_EEN31GfxDoubleCacheConcurrencyPolicy11LocklessGetE42GfxDoubleCacheDefaultEmptyDeletedGeneratorIS2_EE9SelectKeyES9_13stl_allocatorIS4_L18MemLabelIdentifier24ELi16EEE12resize_deltaEjj
vAa:__Z21DestroyShadowMapCacheP14ShadowMapCache
Oz:__ZN7mecanim9animation25CreateControllerWorkspaceEPKNS0_18ControllerConstantERNS_6memory9AllocatorE
JKi:_Array_InternalArray__get_Item_TisLabelFixup_t858502054_m3276643490_gshared
a9b:__Z20RequiredComponentsOf17ScriptingClassPtr
l$j:__ZN6il2cpp2vm13LivenessState5ResetEv
fMc:__ZN9JSONWrite8TransferI11KeyframeTplIfEEEvRT_PKc17TransferMetaFlags
J7b:__ZN22RenderingCommandBuffer23CleanupTemporaryRTArrayER13dynamic_arrayINSt3__24pairIN9ShaderLab16FastPropertyNameEP13RenderTextureEELj0EE
VZg:_SortedList_GetImpl_m3689246167
JZh:_ReadOnlyCollection_1_System_Collections_Generic_IListU3CTU3E_set_Item_m3209059215_gshared
Skb:__ZN24BuiltinShaderParamValuesC2Ev
r6i:_PKCS12_Decode_m163534693
vMc:__ZL41CreateJSONTransferFunctionScriptingTraitsv
Ydc:__ZN6Shader23VirtualRedirectTransferER14SafeBinaryRead
BOf:_InputField_SendOnSubmit_m3463846103
xMf:_WaitForSecondsRealtime_get_keepWaiting_m846832224
ZEb:__Z23GetLateBehaviourManagerv
gii:__Z33RuntimeInvoker_Single_t1397266774PFvvEPK10MethodInfoPvPS4_
Hqb:__ZN14SafeBinaryRead21TransferSTLStyleArrayINSt3__26vectorI8Gradient13stl_allocatorIS3_L18MemLabelIdentifier1ELi16EEEEEEvRT_17TransferMetaFlags
O8:__ZN10MemoryPool10DeallocateEPv
nsi:__Z80RuntimeInvoker_Void_t1185182177_ScriptableRenderContext_t274343796_RuntimeObjectPFvvEPK10MethodInfoPvPS4_
nlb:__ZN14GfxDeviceStats10ResetFrameEv
Era:__ZN9Scripting5Unity11Collections8LowLevel6Unsafe43NativeSetClassTypeToNullOnScheduleAttribute12CleanupProxyEv
Erk:dynCall_vif
a6a:__ZN18LoadSceneOperation22CompleteLoadFirstSceneEv
e3g:_Convert_ToSByte_m4075629912
Hrk:dynCall_vii
rqh:_KeyPairPersistence_FromXml_m746585742
Hug:_Decoder__ctor_m4046021500
jCb:__Z18Transfer_BlittableI18StreamedBinaryReadILb0EELb0EdEvRK29SerializationCommandArgumentsR31RuntimeSerializationCommandInfo
lyd:_ColorBlock_get_fadeDuration_m121071467
YJj:__ZN6il2cpp6icalls8mscorlib6System8MonoType18GetFields_internalEP20Il2CppReflectionTypeiS5_
$ra:__ZN5Unity9Component16CheckConsistencyEv
FLd:_MonoMethod_get_ContainsGenericParameters_m3860345224
ZBa:__ZN19ShaderPropertySheet37CreateTextureAuxPropertyUninitializedEN9ShaderLab16FastPropertyNameES1_PKc
_wb:__ZL26Transfer_SimpleNativeClassI19StreamedBinaryWriteILb0EE10RectOffsetLb1EEvRK29SerializationCommandArgumentsR31RuntimeSerializationCommandInfo
oNj:__ZN15dense_hashtableINSt3__24pairIK10KeyWrapperIPK10Il2CppTypeEjEES6_N6il2cpp8metadata14Il2CppTypeHashEN14dense_hash_mapIS6_jSB_NS6_14EqualsComparerINSA_26Il2CppTypeEqualityComparerEEENS0_9allocatorIS8_EEE9SelectKeyESF_SH_E3endEv
HMb:__ZN13GfxDeviceGLES17SetGpuProgramNameEP10GpuProgramPKc
UZ:__ZNK11UnityEngine15CloudWebService25WebRequestDownloadHandler11GetProgressEv
f7f:_CategoryUtils_CategoryFromName_m1352081402
Pih:_Array_InternalArray__ICollection_Add_TisMonoResource_t4103430009_m2699164149_gshared
kHj:__ZN6il2cpp2vm13MetadataCache28GetMethodDefinitionFromIndexEi
a9j:__ZN6il2cpp2os20FileErrnoToErrorCodeEi
uMa:__ZN14SafeBinaryRead19TransferSTLStyleMapINSt3__23mapI39DeprecatedFastPropertyNameSerialization10ColorRGBAfNS1_4lessIS3_EENS1_9allocatorINS1_4pairIKS3_S4_EEEEEEEEvRT_17TransferMetaFlags
f1g:_Decimal_ThrowAtPos_m1170269346
$g:_atexit
nYf:_Selectable_set_image_m3625164794
e3e:_InternalEnumerator_1_get_Current_m1232221964_gshared
M1h:_ReadOnlyCollection_1_System_Collections_Generic_IListU3CTU3E_Insert_m1818924748_gshared
wQj:__ZN6il2cpp2vmL31GetObjectForMissingDefaultValueEj
ZG:__ZNK26AnimatorOverrideController13GetBehavioursEv
Gxd:_AspectRatioFitter__ctor_m2468506840
aNb:__ZN13GfxDeviceGLES22UpdateComputeResourcesERK22ComputeShaderResources
Fjd:__ZN11UnityEngine15PlatformWrapper30GetVRPlayAreaBoundaryDimensionEv
zHi:_Array_Sort_TisBoolean_t97287965_TisBoolean_t97287965_m2753381653_gshared
q7i:_X509Certificate_get_Hash_m410033711
xgc:__ZN9ShaderLab14SerializedPassC2ERKS0_
EMc:__Z35Transfer_Blittable_FixedBufferFieldI9JSONWritehEvRK29SerializationCommandArgumentsR31RuntimeSerializationCommandInfo
l:STACKTOP
Vle:__ZL48Random_t635017412_CustomAttributesCacheGeneratorP21CustomAttributesCache
A1c:_cff_get_name_index
UVa:__ZN21EnlightenSceneMapping16BuildRemapTablesEv
qja:__ZN6prcoreL12RemapGenericI13TexFormatRG8817TexFormatARGB8888EEvPKNS_9InnerInfoE
Raa:__ZN17TransformInternal27UpdateDeepChildCountUpwardsER18TransformHierarchyii
Eqg:_Single_System_IConvertible_ToBoolean_m1716619219_AdjustorThunk
Yzc:__ZN16StreamedResource8TransferI14SafeBinaryReadEEvRT_
Mie:__ZL52Matrix4x4_t1817901843_CustomAttributesCacheGeneratorP21CustomAttributesCache
nBd:_Image_set_type_m2038193736
A:tempBigIntD
v7b:__ZNK25CameraStackRenderingState25CalculateCameraTargetTypeEv
cHd:_PropertyBuilder_GetSetMethod_m128670376
y:tempBigIntR
x:tempBigIntS
w:tempBigIntP
pn:FUNCTION_TABLE_viffi
uaa:__ZN6Object18RegisterInstanceIDEPS_
nub:__Z18Transfer_BlittableI24GenerateTypeTreeTransferLb1EsEvRK29SerializationCommandArgumentsR31RuntimeSerializationCommandInfo
g5j:__ZN15dense_hashtableINSt3__24pairIK10KeyWrapperIP12Il2CppObjectEN6il2cpp2gc9CachedCCWEEES5_NS7_5utils11PointerHashIS3_EEN14dense_hash_mapIS5_S9_SD_NS5_14EqualsComparerINS0_8equal_toIS4_EEEENS0_9allocatorISA_EEE9SelectKeyESI_SK_E11set_deletedER30dense_hashtable_const_iteratorISA_S5_SD_SM_SI_SK_E
rhb:__ZNK9GfxDevice18GetWorldViewMatrixEv
Rvi:__Z70RuntimeInvoker_Single_t1397266774_Single_t1397266774_Int32_t2950945753PFvvEPK10MethodInfoPvPS4_
Yng:_X509Certificate_GetPublicKey_m4184729161
Qwc:__ZZL31RegisterOtherRendererPropertiesR22GenericPropertyBindingEN28Wrapper_RendererSortingOrder13SetFloatValueEPvf
K3g:_Convert_ToUInt16_m3902921832
ePe:_Assembly_GetTypes_m1724781913
v1d:__ZL54TypeBuilder_t1073948154_CustomAttributesCacheGeneratorP21CustomAttributesCache
XJh:_UTF7Encoding_GetByteCount_m3616172568
yyg:_SmallXmlParser_ReadComment_m1578426707
GGh:_List_1_AddEnumerable_m376418521_gshared
Goi:__Z79RuntimeInvoker_Void_t1185182177_Byte_t1134296376_Byte_t1134296376_RuntimeObjectPFvvEPK10MethodInfoPvPS4_
rEj:__ZNSt3__218__insertion_sort_3IRN6il2cpp5utils11collections13ArrayValueMapIPK10Il2CppType17Il2CppInteropData26InteropDataToTypeConverterNS1_8metadata14Il2CppTypeLessENSA_26Il2CppTypeEqualityComparerEE12SortComparerEPS8_EEvT0_SH_T_
vhb:__ZNK9GfxDevice25GetDeviceProjectionMatrixEv
Dgc:__ZNSt3__26__treeINS_12__value_typeI11ShaderTagIDS2_EENS_19__map_value_compareIS2_S3_NS_4lessIS2_EELb1EEENS_9allocatorIS3_EEE14__assign_multiINS_21__tree_const_iteratorIS3_PNS_11__tree_nodeIS3_PvEEiEEEEvT_SI_
ma:invoke_iidiii
tub:__Z18Transfer_BlittableI24GenerateTypeTreeTransferLb1EtEvRK29SerializationCommandArgumentsR31RuntimeSerializationCommandInfo
ST:__ZN12AudioManager33GetCurrentAmbisonicDefinitionNameE31UnityAudioEffectDefinitionFlags
kCc:__ZN11UTF16StringC2EPKc10MemLabelId
FBc:__ZN10systeminfo24GetRuntimePlatformStringEv
vVg:_MonoIO_DeleteFile_m3839141322
Tta:__ZN10SpookyHash5ShortEPKvjPyS2_
Kad:__ZN9Scripting11UnityEngine6Canvas12CleanupProxyEv
f4:__ZN13RuntimeStaticI13ModuleManagerLb0EE13StaticDestroyEPv
o7j:__ZN6il2cpp6icalls8mscorlib6System6String22RedirectToCreateStringEv
i1d:__ZL99ILGenerator_t1388622344_CustomAttributesCacheGenerator_ILGenerator_Mono_GetCurrentOffset_m993338688P21CustomAttributesCache
KRf:_LayoutRebuilder_ReapplyDrivenProperties_m2581469389
xCc:__ZN9Scripting20CreateUnityExceptionEPKcz
iCa:__ZN9ShaderLab6TexEnvC2ERKNS_25SerializedTexturePropertyE
yPf:_InputField_Append_m687033660
bxa:__ZN9Transform32SetLocalScaleWithoutNotificationERKN4math7_float3Ey
tLa:__ZN19ShaderPropertySheet38CopyTextureWithAuxiliaryPropertiesFromERKN9ShaderLab16FastPropertyNameERKS_
WXc:__ZN20TextRenderingPrivate19NativeTextGeneratorD2Ev
PIj:__ZN6il2cpp2vm19SocketPollingThread14DequeueRequestEv
Y6j:__ZL10RevealLinkPv
P4g:_DateTime__ctor_m12900168_AdjustorThunk
G6b:__ZN27IntermediateRendererManager24AddIntermediateRenderersEP21IntermediateRenderersi
Hgg:_ClientSessionCache_FromContext_m343076119
Fi:___cxa_end_catch
sng:_ToBase64Transform_TransformBlock_m2497349397
U$f:_NameValueCollection_Add_m2418530856
RVd:_ReturnMessage_get_MethodSignature_m399735125
add:__Z43Register_UnityEngine_Canvas_set_scaleFactorv
fmh:_SortKeyBuffer_AppendLevel5_m3963841125
Udj:_PositionAssertion_Compile_m2500980346
nHg:_ArrayListWrapper_ToArray_m3192696690
vZc:_raccess_guess_linux_cap
nU:__Z36AudioSource_Get_Custom_PropIsPlayingP12Il2CppObject
vHc:__ZL48__ManagedRegistrationHelperFunction_StylePainterPv
ACg:_Attribute_GetCustomAttribute_m4034845276
S4:__Z33InitializeBuiltinShaderParamNamesv
xPh:_Type_GetConstructor_m2219014380
izd:_CanvasUpdateRegistry_SortLayoutList_m471948466
Bsa:__ZNK16TypeTreeIterator4TypeEv
JUb:__ZN10FileSystem25MountDataFolderFileSystemERKN4core12basic_stringIcNS0_20StringStorageDefaultIcEEEES6_
Cwg:_ArgumentOutOfRangeException__ctor_m282481429
rgj:_GUILayoutUtility_Internal_MoveWindow_m3463958180
oj:_glGetUniformLocation
XLb:__ZN13GfxDeviceGLES32CreateColorRenderSurfacePlatformEP17RenderSurfaceBase19RenderTextureFormat
KXb:__ZN22RenderingCommandBuffer20ExecuteCommandBufferER17ShaderPassContextR15RenderNodeQueuejP13dynamic_arrayINSt3__24pairIN9ShaderLab16FastPropertyNameEP13RenderTextureEELj0EE16ComputeQueueTypeSA_
HS:__ZN12AudioManager24CreateFMODSoundFromMovieEP9AudioClip
Meg:_CipherSuite_createEncryptionCipher_m2533565116
wUc:__ZN19ControllerHitReport10onShapeHitERKN5physx20PxControllerShapeHitE
jGj:__ZN6il2cpp2vm13MetadataCache24GetGenericInstanceMethodEPK10MethodInfoPK20Il2CppGenericContext
ndk:_GC_hblk_fl_from_blocks
MKd:_MonoField_GetParentType_m2478933781
K9:__Z24ConvertSeparatorsToUnityPc
OPj:__ZN6il2cpp2gc19AppendOnlyGCHashMapINSt3__24pairIPK9EventInfoP11Il2CppClassEEP21Il2CppReflectionEvent17ReflectionMapHashIS9_ENS2_8equal_toIS9_EEE3AddERKS9_SB_
KYi:_Collection_1_System_Collections_ICollection_CopyTo_m46221116_gshared
wWj:__ZN6il2cpp2vm6Thread20FreeThreadStaticDataEP12Il2CppThread
_gh:_Array_InternalArray__IndexOf_TisClientCertificateType_t1004704908_m3457772631_gshared
fci:__Z28RuntimeInvoker_RuntimeObjectPFvvEPK10MethodInfoPvPS4_
Q$c:_cf2_glyphpath_finalize
y7d:__ZL56SecurityAction_t569814076_CustomAttributesCacheGeneratorP21CustomAttributesCache
WYb:__Z20LookRotationToMatrixRK8Vector3fS1_P10Matrix3x3f
RGg:_ArrayListWrapper_set_Capacity_m2373297383
TOf:_Text_get_cachedTextGenerator_m2506989875
vCh:_Enumerator_System_Collections_IEnumerator_Reset_m502339360_AdjustorThunk
e$d:__ZL58DictionaryEntry_t3123975638_CustomAttributesCacheGeneratorP21CustomAttributesCache
huj:_TextGenerator_GetVerticesInternal_m3222977969
lSi:_List_1_RemoveAt_m4279084788_gshared
AZc:_UNITY_FT_Stream_Free
BYj:__ZN15dense_hashtableINSt3__24pairIK10KeyWrapperINS1_IP11Il2CppClassjEEES4_EES6_N6il2cpp8metadata14ArrayClassHashEN14dense_hash_mapIS6_S4_SB_NS6_14EqualsComparerINSA_17ArrayClassCompareEEENS0_9allocatorIS8_EEE9SelectKeyESF_SH_E12maybe_shrinkEv
wLc:__ZNK5Unity9rapidjson12GenericValueINS0_4UTF8IcEE13JSONAllocatorE6AcceptINS0_12PrettyWriterI16TempBufferWriterS3_S3_S4_EEEEbRT_
_of:_CryptoConfig_EncodeLongNumber_m4127306320
Lui:__Z87RuntimeInvoker_Void_t1185182177_Single_t1397266774_Single_t1397266774_SByte_t1669577662PFvvEPK10MethodInfoPvPS4_
$xe:__ZL63AnalyticsSessionInfo_t2322308579_CustomAttributesCacheGeneratorP21CustomAttributesCache
oqd:__ZL47__ManagedRegistrationHelperFunction_VideoPlayerPv
aY:__ZN11UnityEngine15CloudWebService14DataDispatcher25OnDataBlockConsumedStaticEPv
kRi:_List_1_CheckIndex_m3044940639_gshared
BMf:_GenericStack__ctor_m933681517
GAb:__Z29Transfer_Blittable_ArrayFieldI18StreamedBinaryReadILb1EE11QuaternionfEvRT_R9ArrayInfoRK23StaticTransferFieldInfo
HJe:_Math_Max_m482125436
IZg:_SortedList_InitTable_m875730861
OPd:_ActivatedServiceTypeEntry_ToString_m1591455874
ppg:_SecurityElement_ToXml_m3664345083
PEi:_Array_InternalArray__Insert_TisParameterModifier_t1461694466_m3664994573_gshared
Jvh:_DefaultComparer_Equals_m1870794912_gshared
cfc:__Z14resize_trimmedINSt3__26vectorIN9ShaderLab20SerializedSubProgram16SamplerParameterENS0_9allocatorIS4_EEEEEvRT_j
zYf:_Shadow_set_effectColor_m3910676693
Yok:__ZNSt3__212basic_stringIcNS_11char_traitsIcEENS_9allocatorIcEEE6insertEjPKcj
xMc:__Z44InitializeTransferFunctionScriptingTraitsForI8JSONReadEvR31TransferFunctionScriptingTraits
LJb:__ZNSt3__27__sort4IRNS_4lessIN22BuiltinResourceManager8ResourceEEEPS3_EEjT0_S7_S7_S7_T_
j$f:_ListDictionary_Add_m3918308031
X4j:__ZNK15dense_hashtableINSt3__24pairIK10KeyWrapperIP12Il2CppObjectEN6il2cpp2gc9CachedCCWEEES5_NS7_5utils11PointerHashIS3_EEN14dense_hash_mapIS5_S9_SD_NS5_14EqualsComparerINS0_8equal_toIS4_EEEENS0_9allocatorISA_EEE9SelectKeyESI_SK_E23find_position_with_hashERS6_j
AOf:_Selectable_OnDisable_m3225138518
K5a:__ZN17PersistentManager34ExtractTimeSliceAwakeFromLoadQueueER27TimeSliceAwakeFromLoadQueueNS_9LockFlagsE
O6c:_UNITY_tt_face_get_location
ijj:_AesManaged_CreateEncryptor_m1611897367
_Wg:_DelegatePInvokeWrapper_WriteDelegate_t4270993571
T8b:__ZN10GameObject34AddFirstTransformComponentInternalEP9Transform
Gmc:__Z31Cursor_Get_Custom_PropLockStatev
S2:__ZNSt3__26__treeINS_12__value_typeINS_4pairIPcS3_EENS_3setIS3_15compare_tstringIPKcENS_9allocatorIS3_EEEEEENS_19__map_value_compareIS4_SD_20smaller_tstring_pairIS8_ELb1EEENSA_ISD_EEE7destroyEPNS_11__tree_nodeISD_PvEE
vR:__ZN12AudioManager29GetCurrentAmbisonicDefinitionE31UnityAudioEffectDefinitionFlags
Cnc:__Z52Register_UnityEngine_GameObject_GetComponentInParentv
ooa:__ZN9Scripting11UnityEngine16ScriptableObject12CleanupProxyEv
v3a:__ZN15SerializeTraitsINSt3__24pairIPKN5Unity4TypeE7Hash128EEE8TransferI14SafeBinaryReadEEvRS7_RT_
Kck:_GC_number_stack_black_listed
D8g:_Decimal_ToString_m4018746482_AdjustorThunk
R5b:__Z37GenerateCombinedDynamicVisibleListJobP11CullResults
OYa:__ZNK13ScreenManager21GetCursorInsideWindowEv
tQe:_CustomAttributeData_GetCustomAttributes_m1033457578
xPd:_SafeHandle_DangerousAddRef_m614714386
z2b:__Z20IntersectAABBFrustumRK4AABBPK5Planej
rXf:_ScrollRect_OnDrag_m688583138
Htc:__ZN13RenderManager15InitializeClassEv
Eni:__Z74RuntimeInvoker_RuntimeObject_RuntimeObject_Double_t594665363_RuntimeObjectPFvvEPK10MethodInfoPvPS4_
brb:__ZN15SerializeTraitsI12PropertyNameE8TransferI14SafeBinaryReadEEvRS0_RT_
AXh:_ReadOnlyCollection_1_System_Collections_IList_IndexOf_m3120991897_gshared
lUd:_Header__ctor_m1921907550
tZf:_Slider_FindSelectableOnUp_m4062600878
EJe:_Math_Ceiling_m625148210
itc:__ZZN9Transform15InitializeClassEvEN31FunctorImpl_114kDidAddComponent4CallEPviR11MessageData
FOc:__ZN9JSONWrite8TransferI11ColorRGBA32EEvRT_PKc17TransferMetaFlags
lRc:__Z22TransferField_NonArrayI8JSONRead27Converter_SimpleNativeClassI8GradientEEvRK23StaticTransferFieldInfoR31RuntimeSerializationCommandInfoRT0_
bEb:__ZN10MonoScript13AwakeFromLoadE17AwakeFromLoadMode
C8f:_Interval__ctor_m4022869013
tDg:_Boolean_System_IConvertible_ToUInt16_m3465173538
$Ub:__ZN10MemoryFile21CreateFileSystemEntryE10MemLabelId14FilePermissionPvjb
JSb:__ZNK18GfxFramebufferGLES15DiscardContentsER12ObjectHandleI17RenderSurface_TagP17RenderSurfaceBaseE
qbg:_ARC4Managed_KeySetup_m2449315676
JOc:__ZN9JSONWrite8TransferI13dynamic_arrayI5RectTIiELj0EEEEvRT_PKc17TransferMetaFlags
eHj:__ZN6il2cpp2vm13MetadataCache27GetEventDefinitionFromIndexEi
D$h:_ReadOnlyCollection_1_System_Collections_IEnumerable_GetEnumerator_m2762559519_gshared
cla:__ZL63__ManagedRegistrationHelperFunction_ScriptableCullingParametersPv
j4g:_Convert_ToUInt64_m92315402
LNc:__Z18Transfer_BlittableI9JSONWriteLb1EdEvRK29SerializationCommandArgumentsR31RuntimeSerializationCommandInfo
cwk:_glGetIntegerv__wrapper
jvg:_EncoderExceptionFallback__ctor_m3745979420
H:Math_pow
lta:__ZN10GameObject28FinalizeAddComponentInternalEPN5Unity9ComponentE
dCe:__ZL57Image_t2670269651_CustomAttributesCacheGenerator_m_SpriteP21CustomAttributesCache
ISa:__ZN9Texture2DD2Ev
znj:_AudioExtensionManager_GetReadyToPlay_m1557263244
s3g:_Convert_ToSingle_m164367433
KKi:_Array_InternalArray__get_Item_TisILTokenInfo_t2325775114_m3110830457_gshared
r1g:_Convert_ToDecimal_m1284410333
j6g:_DateTime_CheckStyle_m1392838900
Ayg:_SmallXmlParser_ReadUntil_m2715581630
r$f:_NameObjectCollectionBase__ctor_m2090733912
t7f:_Group__cctor_m2230627219
fna:__ZN9Scripting11UnityEngine15SendMouseEvents9InitProxyEv
nch:_Array_InternalArray__ICollection_Contains_TisDouble_t594665363_m1696010878_gshared
o9f:_BigInteger__cctor_m102257529
xda:__ZN27IntermediateRendererManagerD2Ev
Q7a:__ZN17PersistentManager27GetLoadErrorMessageFromPathERKN4core12basic_stringIcNS0_20StringStorageDefaultIcEEEE
h6i:_NetscapeCertTypeExtension_ToString_m1800688476
dm:_glGenRenderbuffers
NZj:__ZN6il2cpp6icalls8mscorlib6System2IO6MonoIO19GetCurrentDirectoryEPi
THf:_Renderer_get_sortingOrder_m344607889
p3b:__Z21IntersectSegmentPlaneRK8Vector3fS1_RK5PlanePS_
hra:__ZN9Scripting11UnityEngine24AssemblyIsEditorAssembly9InitProxyEv
pGe:__ZL50Outline_t2536100125_CustomAttributesCacheGeneratorP21CustomAttributesCache
c2a:__ZN14PlayerSettings23VirtualRedirectTransferER17RemapPPtrTransfer
Yej:_Uri_get_IsFile_m2450018824
Uba:__ZN14CachingManager7DisposeEv
bqa:__ZN9Scripting11UnityEngine8EnumInfo9InitProxyEv
aR:__ZN12AudioManager31GetCurrentSpatializerDefinitionEv
Q_f:_HybridDictionary_Add_m912320053
IBf:_MonoBehaviour_Invoke_m4227543964
F_a:__ZN12MeshRenderer16UpdateCachedMeshEv
sij:_KeyBuilder_IV_m3340234014
Gqb:__Z19TransferField_ArrayI14SafeBinaryRead27Converter_SimpleNativeClassI8GradientEEvRK23StaticTransferFieldInfoR31RuntimeSerializationCommandInfoRT0_
Yuh:_DefaultComparer_Equals_m1163494476_gshared
N2i:_RIPEMD160Managed_GG_m3020389474
hdh:_Array_InternalArray__ICollection_Remove_TisDictionaryEntry_t3123975638_m3699186409_gshared
nOe:_Object_Equals_m1397037629
lB:__ZNK27StateMachineBehaviourPlayer25FireStateMachineBehaviourEiiN7mecanim12statemachine19StateMachineMessageE
Isf:_AsyncOperation_t1445031843_marshal_pinvoke_back
Ck:_emscripten_glGenVertexArrays
LFf:_Rect_get_center_m138276653
s8b:__ZN6Camera15SetOrthographicEb
r1c:_UNITY_FT_Stream_GetUShort
rLb:__ZN13GfxDeviceGLES14DisableScissorEv
oYc:__ZNSt3__26vectorIN20TextRenderingPrivate8FontImpl7IntRectE13stl_allocatorIS3_L18MemLabelIdentifier35ELi16EEE21__push_back_slow_pathIRKS3_EEvOT_
qtf:_Bounds_get_size_m1178783246_AdjustorThunk
Fhi:__Z64RuntimeInvoker_Double_t594665363_RuntimeObject_Int32_t2950945753PFvvEPK10MethodInfoPvPS4_
$Ye:_InternalEnumerator_1_System_Collections_IEnumerator_get_Current_m2141782011_AdjustorThunk
n8g:_Decimal_decimalMult_m3812462972
ijg:_RecordProtocol_BeginSendRecord_m615249746
zc:_glVertexAttrib4f
iFh:_Enumerator_System_Collections_IEnumerator_get_Current_m209407522_AdjustorThunk
jwf:_Display_get_systemHeight_m730809466
pHh:_List_1_System_Collections_IList_Insert_m4074493513_gshared
cBf:_Mesh_get_vertices_m3585684815
Vgd:__ZN21UnityAnalyticsManagerD0Ev
Uej:_Uri_GetOpaqueWiseSchemeDelimiter_m1909471550
mek:_GC_set_hdr_marks
bDa:__Z17SetupObjectMatrixRK10Matrix4x4fi
Rsh:_Dictionary_2_OnDeserialization_m1254782141_gshared
V2:__ZN13RuntimeStaticINSt3__23mapINS0_4pairIPcS3_EEPFbPvR14SafeBinaryReadE20smaller_tstring_pairIPKcENS0_9allocatorINS2_IKS4_S9_EEEEEELb0EE13StaticDestroyES5_
bWg:_FileStream_FlushBufferIfDirty_m4249802951
L6e:_DefaultComparer_Compare_m1916473435_gshared
tw:__ZN7mecanim9animation16CreateClipMemoryEPKNS0_4ClipEiRNS_6memory9AllocatorE
XYc:_open_face
C4a:__ZN30RuntimeInitializeOnLoadManager15ClassMethodInfo8TransferI19StreamedBinaryWriteILb0EEEEvRT_
Owc:__ZZL31RegisterOtherRendererPropertiesR22GenericPropertyBindingEN30Wrapper_RendererReceiveShadows13SetFloatValueEPvf
Ifd:__ZN2UI13PrepareOutputER9GfxDeviceRNS_7BatchesEjjNS_30AdditionalCanvasShaderChannelsE
tgd:__Z17RegisterModule_UIv
sKe:_MonoCustomAttrs_GetCustomAttributes_m1347331976
BBf:_Mesh_Clear_m2630385472
Kdi:__Z46RuntimeInvoker_RuntimeObject_Int16_t2552820387PFvvEPK10MethodInfoPvPS4_
WSd:_SynchronizationAttribute_set_Locked_m2760363037
WQg:_Int16_Equals_m82811458
Lcg:_PrivateKeyInfo_Decode_m986145117
NGf:_RectOffset_get_top_m2855347295
BN:__ZN4FMOD5Sound11setUserDataEPv
kec:__ZN14SafeBinaryRead21TransferSTLStyleArrayINSt3__26vectorIN9ShaderLab19SerializedSubShaderENS1_9allocatorIS4_EEEEEEvRT_17TransferMetaFlags
gud:_ExecuteEvents_Execute_m533210008
Ygi:__Z137RuntimeInvoker_Void_t1185182177_Int32_t2950945753_RuntimeObject_RuntimeObject_RuntimeObject_RuntimeObject_RuntimeObject_SByte_t1669577662PFvvEPK10MethodInfoPvPS4_
lQg:_Guid_op_Equality_m4289903222
fz:__ZN27AnimationLayerMixerPlayable13SetInputCountEi
Bfb:__ZNK25SingleBlockMemoryFileData4SizeEv
j0g:_DateTime__ParseAmPm_m3478436123
zld:__ZN11UnityEngine7Connect20RemoteConfigSettings19ConfigChangedStaticEPS1_RKN4core12basic_stringIcNS3_20StringStorageDefaultIcEEEER8JSONReadb
KO:__ZL50UnityAudioEffect_InternalSetFloatParameterCallbackP14FMOD_DSP_STATEif
E4j:__ZNK15dense_hashtableINSt3__24pairIK10KeyWrapperIP12Il2CppObjectEN6il2cpp2gc9CachedCCWEEES5_NS7_5utils11PointerHashIS3_EEN14dense_hash_mapIS5_S9_SD_NS5_14EqualsComparerINS0_8equal_toIS4_EEEENS0_9allocatorISA_EEE9SelectKeyESI_SK_E3endEv
w5g:_DateTime_System_IConvertible_ToUInt32_m3781235049
O1:__ZN17LowLevelAllocator4FreeEPvj
xEi:__Z77RuntimeInvoker_RuntimeObject_UIVertex_t4057497605_RuntimeObject_RuntimeObjectPFvvEPK10MethodInfoPvPS4_
Xdi:__Z92RuntimeInvoker_Int32_t2950945753_RuntimeObject_RuntimeObject_SByte_t1669577662_RuntimeObjectPFvvEPK10MethodInfoPvPS4_
SSg:_Int64_System_IConvertible_ToType_m3223988955
E4b:__ZN14qsort_internal5QSortIP16RenderObjectDatai25RenderPrePassObjectSorterEEvT_S4_T0_T1_
Wmg:_SymmetricAlgorithm_Dispose_m1120980942
Bba:__ZL19StaticCleanupPlayerPv
tKe:_MonoCustomAttrs_RetrieveAttributeUsage_m2717094301
Ezc:__ZN13PlayableGraph4StopEv
_rf:_AnimationCurve_Init_m425927913
JP:__ZN12AudioManager37RebindAudioSourcesAndSubMixersToMixerEP10AudioMixer
esa:__ZN9Behaviour10DeactivateE19DeactivateOperation
pRf:_LayoutGroup_DelayedSetDirty_m2562435574
LPa:__ZN13StreamingInfo8TransferI14SafeBinaryReadEEvRT_
Jec:__ZN15dense_hashtableINSt3__24pairIKiN4core17string_with_labelILi1EEEEEi18SInt32HashFunctionN14dense_hash_mapIiS5_S7_NS0_8equal_toIiEE13stl_allocatorIS6_L18MemLabelIdentifier1ELi16EEE9SelectKeyESA_SD_E15insert_noresizeERKS6_
S5j:__ZN6il2cpp2vmL22RaiseOverflowExceptionEv
Qp:__Z23CalculateGlobalRotation23TransformAccessReadOnly
iFa:__ZN16GraphicsSettings28SetLightsUseColorTemperatureEb
WLa:__ZNK9ShaderLab7Program11IsSupportedEPK6Shader
eId:_TypeBuilder_GetMethodImpl_m3583143647
tFe:__ZL54LayoutGroup_t2436138090_CustomAttributesCacheGeneratorP21CustomAttributesCache
gok:_strcat
VAc:__Z18TransformPoints3x4RK10Matrix4x4fPK8Vector3fjPS2_ji
Jaa:__ZL26DestroyGameObjectRecursiveR10GameObjectR11BatchDelete
Dek:_GC_allochblk_nth
csd:_BaseInput_get_touchSupported_m2634027966
xXf:_ScrollRect_get_vScrollingNeeded_m1717136831
Jij:_SymmetricTransform_FinalEncrypt_m748885414
Svc:__Z7HaloTexP9Texture2DPhiiii
Nsk:dynCall_i
akk:__ZNK6il2cpp8metadata23Il2CppGenericMethodHashclEPK19Il2CppGenericMethod
SV:__ZN17AudioCustomFilter4InitEv
ask:dynCall_f
g$f:_ListDictionary_GetEnumerator_m3395631195
Uub:__Z35Transfer_Blittable_FixedBufferFieldI24GenerateTypeTreeTransferjEvRK29SerializationCommandArgumentsR31RuntimeSerializationCommandInfo
rIa:__ZN8Playable13SetInputCountEi
tHj:__ZNK15dense_hashtableINSt3__24pairIK10KeyWrapperIP9FieldInfoEiEES5_N6il2cpp5utils11PointerHashIS3_EEN14dense_hash_mapIS5_iSB_NS5_14EqualsComparerINS0_8equal_toIS4_EEEENS0_9allocatorIS7_EEE9SelectKeyESG_SI_E13find_positionERS6_
rrk:dynCall_v
Dka:__ZL52__ManagedRegistrationHelperFunction_DiagnosticSwitchPv
yRb:__ZN7ApiGLES14TextureSamplerEjjRK24GfxTextureSamplingParams17TextureColorSpace
MZg:_SortedList_System_Collections_IEnumerable_GetEnumerator_m2738760439
PWj:__ZN6il2cpp2vm6Thread8SetStateEP12Il2CppThreadNS0_11ThreadStateE
vya:__ZN6Camera23VirtualRedirectTransferER14SafeBinaryRead
osf:_Application_get_isEditor_m857789090
lld:__ZN11UnityEngine7Connect13ConnectConfig11ConfigValueD2Ev
$Rb:__ZNSt3__26__treeINS_12__value_typeIjP14DataBufferGLESEENS_19__map_value_compareIjS4_NS_4lessIjEELb1EEENS_9allocatorIS4_EEE7destroyEPNS_11__tree_nodeIS4_PvEE
ona:__ZN9Scripting11UnityEngine9Rendering20SphericalHarmonicsL212CleanupProxyEv
Lzc:__ZN13PlayableGraph15SetPrepareStageE13DirectorStage
vb:invoke_viiiiiiii
xQg:_Int16_System_IConvertible_ToDateTime_m3080274979_AdjustorThunk
WXi:_Collection_1_ConvertItem_m1760499239_gshared
dSb:__ZN18GfxFramebufferGLES24UpdateDefaultFramebufferEP17RenderSurfaceBaseS1_N2gl6HandleILNS2_10ObjectTypeE9EEE
fwe:__ZL66GUIUtility_t1868551600_CustomAttributesCacheGenerator_s_OriginalIDP21CustomAttributesCache
Hs:__ZL67__ManagedRegistrationHelperFunction_SharedBetweenAnimatorsAttributePv
a3i:_SslHandshakeHash__ctor_m4169387017
VEj:__ZN15dense_hashtableINSt3__24pairIK10KeyWrapperIN6il2cpp5utils13dynamic_arrayIPK10Il2CppTypeLj4EEEEPFvvEEESA_NS3_8metadata19Il2CppSignatureHashEN14dense_hash_mapISA_SD_SG_NSA_14EqualsComparerINSF_22Il2CppSignatureCompareEEENS0_9allocatorISE_EEE9SelectKeyESK_SM_E9copy_fromERKSP_j
Gwj:_Animator_ResetTrigger_m2321267720
BVa:__ZN16LightmapSettings5ResetEv
bUa:__ZN12FileAccessor4ReadEyPvPy
HCf:__ZN23InterfaceActionInvoker3I6Guid_tP22ByteU5BU5D_t4116647657iE6InvokeEjP11Il2CppClassP12Il2CppObjectS0_S2_i
Ndi:__Z67RuntimeInvoker_Void_t1185182177_Int16_t2552820387_Int32_t2950945753PFvvEPK10MethodInfoPvPS4_
AIc:__Z42Register_UnityEngine_Event_get_commandNamev
IWb:__Z12IsFirstFramev
a2i:_Collection_1_IsValidItem_m714924194_gshared
xLc:__ZN5Unity9rapidjson12PrettyWriterI16TempBufferWriterNS0_4UTF8IcEES4_13JSONAllocatorE12PrettyPrefixENS0_4TypeE
bH:__ZNK26AnimatorOverrideController27GetAnimationClipsToRegisterEv
s7:__ZN8TypeTreeC2E10MemLabelId
paa:__ZNK15FileSystemEntry6ExistsEv
H0a:__ZNK9Transform21GetLocalToWorldMatrixER10Matrix4x4f
mKf:_Transform_INTERNAL_get_rotation_m2413441996
dxd:_TouchInputModule_IsModuleSupported_m384818291
v6:__ZN17PersistentManager18ReadObjectThreadedEiNS_9LockFlagsE
m6g:_DateTime_ToString_m884486936
Zbg:_MD4Managed_HashCore_m3384203071
_S:__ZN13AudioListener23VirtualRedirectTransferER19StreamedBinaryWriteILb0EE
Qfg:_ClientRecordProtocol_createClientHandshakeMessage_m3325677558
_he:__ZL103Component_t1923634451_CustomAttributesCacheGenerator_Component_GetComponentsForListInternal_m1419905927P21CustomAttributesCache
jMb:__ZN13GfxDeviceGLES11CopyTextureE9TextureIDS0_
_Zg:_SortedList_get_Capacity_m919184864
Buh:_Dictionary_2_ContainsKey_m2278349286_gshared
mvk:_emscripten_glViewport__wrapper
d_:__ZN11UnityEngine15CloudWebService23WebRequestUploadHandler13GetUploadDataERj
Wuf:_Color32_ToString_m403383053_AdjustorThunk
Ksg:_String_IndexOfOrdinalUnchecked_m460601827
s6a:__ZN13dynamic_arrayI28EnlightenRendererInformationLj0EE6insertEPS0_PKS0_S4_
Muj:_Canvas_get_sortingOrder_m1860900812
hRd:_ConfigHandler_ReadChannel_m781299361
RFf:_Rect_get_max_m350137314
G5b:__Z59ProcessShadowCasterNodeVisibilityAndCullWithoutUmbra_KernelILN17CullingParameters9LayerCullE1ELi8EEvR9IndexListRK22SceneCullingParametersPK9SceneNodePK4AABBjjPKN4math7_float4E
rpi:__Z99RuntimeInvoker_Void_t1185182177_Int32_t2950945753_Int32_t2950945753_SByte_t1669577662_RuntimeObjectPFvvEPK10MethodInfoPvPS4_
N5c:_tt_size_select
mTd:_InternalRemotingServices_GetCachedSoapAttribute_m1042302982
sY:__ZN11UnityEngine15CloudWebService17SessionEventQueue15RestoreFromFileER12FileAccessorPvy
yRe:_ConstructorBuilder_GetILGenerator_m1421260830
V1a:__ZN14PlayerSettingsD2Ev
aTf:_RectMask2D_RemoveClippable_m773604960
Q2f:_AsnEncodedData_SubjectAltName_m4049949414
Y2g:_Convert_ToSByte_m1350241137
P$a:__ZN13dynamic_arrayI16BlendShapeVertexLj0EE18resize_initializedEj12ResizePolicy
nea:__ZN13PlayableGraph14DestroyOutputsEv
ZWi:_Enumerator_System_Collections_IEnumerator_get_Current_m3895111131_gshared
jf:___syscall122
z1g:_Convert_ToDecimal_m2858622624
xOe:_OperatingSystem__ctor_m1545635730
sQi:_List_1_RemoveAll_m2406195485_gshared
ZV:__ZN9AudioClip16EnableLegacyModeEv
uSd:_Context_DoCallBack_m749197451
qvj:_CanvasRenderer_set_materialCount_m4286588063
Pnk:_mkdir
nVc:__ZN9Scripting11UnityEngine7Physics12CleanupProxyEv
pmj:_VerticalLayoutGroup_SetLayoutHorizontal_m84550911
R0f:_HttpWebRequest_get_ServicePoint_m3916606901
lhk:__GLOBAL__sub_I_MemoryMappedFile_cpp
EEh:_Enumerator_MoveNext_m29052175_AdjustorThunk
KYf:_Slider_UpdateVisuals_m3662961057
uCc:__ZN18ScriptingArguments13CopyFromOtherERKS_
pwg:_PKCS12_ReadSafeBag_m1585166574
T7c:_ps_hints_close
sxc:__Z16CreateRenderLoopR6Camera
tFb:__ZN32SerializationCommandQueueBuilder3AddERK20SerializationCommand
Y1:_tlsf_create
h0h:_ReadOnlyCollection_1_System_Collections_IEnumerable_GetEnumerator_m2505713430_gshared
S4a:__ZN14SafeBinaryRead21TransferSTLStyleArrayINSt3__26vectorIN15ResourceManager10DependencyE13stl_allocatorIS4_L18MemLabelIdentifier52ELi16EEEEEEvRT_17TransferMetaFlags
CEb:__ZN13MonoBehaviour23VirtualRedirectTransferER18StreamedBinaryReadILb0EE
dgc:__ZN9ShaderLab20SerializedSubProgramC2ERKS0_
wZa:__ZN9Texture3D17UploadToGfxDeviceEv
rKi:_Array_InternalArray__get_Item_TisKeyValuePair_2_t71524366_m252172060_gshared
Qpk:__ZNK10__cxxabiv121__vmi_class_type_info27has_unambiguous_public_baseEPNS_19__dynamic_cast_infoEPvi
fMe:_MulticastDelegate_CombineImpl_m2857239134
CTh:_Version_op_Inequality_m1696193441
rPd:_Marshal_ReadByte_m1960935664
rTa:__ZN15QualitySettings23VirtualRedirectTransferER19StreamedBinaryWriteILb0EE
fHg:_ArrayListWrapper_CopyTo_m3756520478
$Nd:_ResourceInfo_t2872965302_marshal_pinvoke
kAa:__ZN16RenderTextureMap5QueryEPK17RenderSurfaceBase
pka:__ZL42__ManagedRegistrationHelperFunction_CameraPv
zuc:__ZN8Material12CleanupClassEv
$wc:__ZN8Material8GetFloatEN9ShaderLab16FastPropertyNameE
FCc:__Z10IsInvokingR13MonoBehaviourPKc
vqf:_HashAlgorithm_TransformBlock_m4006041779
FIc:__Z11GetGUIStatev
jg:_glGetActiveUniform
jhh:_Array_InternalArray__IndexOf_TisSlot_t3975888750_m4250446283_gshared
EEc:__Z57Register_UnityEngine_MonoBehaviour_StartCoroutineManaged2v
VU:__Z13RegisterClassI9AudioClipEvPKc
CTg:_IntPtr__ctor_m620280096_AdjustorThunk
qg:_emscripten_glGetObjectParameterivARB
idj:_CharacterClass_AddCharacter_m2370152363
Jya:__ZN15SerializeTraitsI10ColorRGBAfE8TransferI14SafeBinaryReadEEvRS0_RT_
FWh:_Collection_1_IsValidItem_m2333176545_gshared
Dba:__ZN22BuiltinResourceManager13StaticDestroyEPv
ana:__ZN9Scripting11UnityEngine25SerializePrivateVariables12CleanupProxyEv
zaa:__ZN10GameObject17GetComponentIndexEPN5Unity9ComponentE
RFi:_Array_InternalArray__set_Item_TisILTokenInfo_t2325775114_m309595583_gshared
wO:__ZN29AudioEffectInternalDefinition9CreateDSPEPN4FMOD6SystemEPvPfP23UnityAudioAmbisonicDataPP25UnityAudioSpatializerData
z7c:_UNITY_tt_face_vary_cvt
lmh:_SimpleCollator_ClearBuffer_m2975394169
Efj:_Event_Internal_GetMousePosition_m1101229675
sac:__ZN35RegisterRuntimeInitializeAndCleanup22ExecuteInitializationsEv
vYe:_InternalEnumerator_1_System_Collections_IEnumerator_get_Current_m3575233890_gshared
Ing:_TripleDESCryptoServiceProvider_CreateEncryptor_m450924958
Dej:_UriParser_GetParser_m544052729
uPf:_Text_get_font_m2857203289
pK:__ZN23PreloadManagerOperation14SetFinalTimingEffff
zz:__ZN7mecanim13ValueArrayAddILb0EEEvPKNS_10ValueArrayES3_PKNS_14ValueArrayMaskEfbPS1_PS4_
EUe:_MethodBuilder_fixup_m1765890582
Dlf:_ObjectReader_ReadSimpleArray_m428957657
y3a:__ZN13BuildSettings8TransferI18StreamedBinaryReadILb0EEEEvRT_
_Je:_MissingFieldException__ctor_m4282575076
h8g:_Decimal_Equals_m2592017260
ERd:_ConfigHandler_OnEndParsing_m3764034673
Gjf:_RemotingConfiguration_RegisterTypes_m2378540395
SGc:__Z38Renderer_Get_Custom_PropSortingLayerIDP12Il2CppObject
fGg:_ArrayList_get_Capacity_m431818936
l1e:_InternalEnumerator_1_System_Collections_IEnumerator_get_Current_m767948013_gshared
D$e:_InternalEnumerator_1_System_Collections_IEnumerator_get_Current_m435848551_gshared
ksf:_UnityAction_Invoke_m893829196
vba:__ZNK11TypeManager23FindAllRTTIDerivedTypesEPK4RTTIR13dynamic_arrayIS2_Lj0EEb
Ds:__ZL58__ManagedRegistrationHelperFunction_AnimatorTransitionInfoPv
Z2a:__ZN14AsyncOperationD0Ev
fPb:__Z29TextureIdMapGLES_QueryOrAlloc9TextureID
lPj:__ZN15dense_hashtableINSt3__24pairIK10KeyWrapperINS1_IPK12PropertyInfoP11Il2CppClassEEEjEES9_17ReflectionMapHashIS8_EN14dense_hash_mapIS9_jSD_NS9_14EqualsComparerINS0_8equal_toIS8_EEEENS0_9allocatorISB_EEE9SelectKeyESI_SK_E12resize_deltaEjj
Buf:_Color_GetHashCode_m1829208463
yHb:__ZN13ScreenManager18SetAllowCursorLockEb25DisallowCursorLockReasons
sCc:__Z25scripting_raise_exception21ScriptingExceptionPtr
aQf:_Text_get_cachedTextGeneratorForLayout_m116487342
ixj:__ZL11decimalLog2P19il2cpp_decimal_repr
Z4a:__ZN15ResourceManager10Dependency8TransferI14SafeBinaryReadEEvRT_
k0i:_Collection_1_System_Collections_IList_Remove_m3800279569_gshared
Vck:_GC_extend_size_map
MTe:_GenericTypeParameterBuilder_GetCustomAttributes_m386082976
OZf:_Text_FontTextureChanged_m495427969
jNe:_NumberFormatter_RoundDecimal_m2957290908
_O:__ZN4FMOD6System9setDriverEi
_6b:__ZNK9Transform11GetRotationEv
twk:_emscripten_glGetIntegerv__wrapper
Xih:_Array_InternalArray__ICollection_Add_TisSingle_t1397266774_m1873979703_gshared
Vub:__Z18Transfer_BlittableI24GenerateTypeTreeTransferLb0EyEvRK29SerializationCommandArgumentsR31RuntimeSerializationCommandInfo
ZLa:__ZN8Material14CreateMaterialER6ShaderN6Object9HideFlagsEb
sNh:_TimeSpan_get_Minutes_m4278980001_AdjustorThunk
D4c:_tt_cmap12_char_map_binary
Vfj:_GUI__cctor_m3051457990
hT:__ZN12AudioManager19RemoveAudioListenerEP13AudioListener
qCa:__Z25GetBuiltinResourceManagerv
b4j:__ZN6il2cpp2gc8GCHandle15GetTargetHandleEP12Il2CppObjectii
ARg:_Int32_System_IConvertible_ToByte_m3832391412
Ih:_llvm_trap
Y4:__ZNSt3__27__sort5IRNS_6__lessIN12_GLOBAL__N_114ParamNameIndexES3_EEPS3_EEjT0_S7_S7_S7_S7_T_
I7i:_X509Certificate_VerifySignature_m3988463526
Lhg:_TlsClientCertificate_get_ClientCertificate_m1637836254
qdk:_get_index
ew:__ZN21AnimationClipPlayable29CollectAnimationClipPlayablesER13dynamic_arrayIPS_Lj0EE
ts:__ZL54__ManagedRegistrationHelperFunction_PositionConstraintPv
Yph:_KeyBuilder_Key_m876696100
D4e:_InternalEnumerator_1_System_Collections_IEnumerator_get_Current_m2164048921_gshared
nMj:__ZN15dense_hashtableINSt3__24pairIK10KeyWrapperINS1_IPK14Il2CppAssemblyP11Il2CppClassEEEjEES9_17ReflectionMapHashIS8_EN14dense_hash_mapIS9_jSD_NS9_14EqualsComparerINS0_8equal_toIS8_EEEENS0_9allocatorISB_EEE9SelectKeyESI_SK_EC2ERKSN_j
mra:__ZN9Scripting11UnityEngine14AnimationCurve12CleanupProxyEv
Uqd:__ZL65__ManagedRegistrationHelperFunction_Internal_SubsystemDescriptorsPv
$Ij:__ZN6il2cpp2vm21ThreadPoolCompartment12DetachThreadEP12Il2CppThread
Snf:_SByte_System_IConvertible_ToInt16_m885121451_AdjustorThunk
e1g:_Decimal_stripStyles_m1823381019
VLb:__ZN13GfxDeviceGLES30SetBackBufferColorDepthSurfaceEP17RenderSurfaceBaseS1_
Eoe:__ZL63TexturePlayableOutput_t648497447_CustomAttributesCacheGeneratorP21CustomAttributesCache
eKc:__Z52Register_UnityEngine_GUIUtility_get_systemCopyBufferv
_Ji:_LayoutGroup_SetProperty_TisBoolean_t97287965_m3903959758_gshared
Zzc:__ZN16StreamedResource8TransferI18StreamedBinaryReadILb0EEEEvRT_
Erc:__Z49Register_UnityEngine_Input_get_imeCompositionModev
MIf:_Sprite_INTERNAL_get_rect_m1600380876
Iec:__ZN15dense_hashtableINSt3__24pairIKiN4core17string_with_labelILi1EEEEEi18SInt32HashFunctionN14dense_hash_mapIiS5_S7_NS0_8equal_toIiEE13stl_allocatorIS6_L18MemLabelIdentifier1ELi16EEE9SelectKeyESA_SD_E12resize_deltaEjj
$zk:_emscripten_glDisableVertexAttribArray__wrapper
Awa:__ZN14SafeBinaryRead21TransferSTLStyleArrayI13dynamic_arrayINSt3__24pairIi12ImmediatePtrIN5Unity9ComponentEEEELj0EEEEvRT_17TransferMetaFlags
Cpa:__ZN9Scripting11UnityEngine12Experimental10PlayerLoop14Initialization12CleanupProxyEv
fLe:_MonoType_GetAttributeFlagsImpl_m167182975
Cdg:_EncryptedData_get_EncryptedContent_m3205649670
H_a:__ZN12MeshRenderer18CalculateLocalAABBER4AABBRKS_RK4Mesh
mdc:__ZN21UnityDefaultAllocatorI17LowLevelAllocatorE8AllocateEji
D7c:_tt_hadvance_adjust
Dz:__ZN7mecanim5human14HumanPoseClearERNS0_9HumanPoseERKNS_6bitsetILj83EEE
ocd:__ZL28InitializeUIScriptingClassesv
Kri:__Z54RuntimeInvoker_Vector2_t2156229523_Vector3_t3722313464PFvvEPK10MethodInfoPvPS4_
R$h:_ReadOnlyCollection_1_System_Collections_IList_set_Item_m2162444692_gshared
Ybb:__ZN12HandlerChain10AtomicMoveER13FileEntryDataS1_
Olb:__ZN9GfxDevice17HasGPUFencePassedEPv
Yda:__ZZN15DirectorManager15InitializeClassEvEN48PreLateUpdateDirectorDeferredEvaluateRegistrator7ForwardEv
RVc:__ZN20SpeedTreeWindManager6UpdateEf
Bii:__Z68RuntimeInvoker_Int64_t3736567304_IntPtr_t_MonoIOErrorU26_t1548853198PFvvEPK10MethodInfoPvPS4_
ju:__ZN7mecanim9animation20CreateAvatarConstantEPNS_8skeleton8SkeletonEPNS1_13SkeletonPoseTIN4math4trsXEEES8_PNS_5human5HumanES3_iRKS6_RNS_6memory9AllocatorE
Lqd:__Z20RegisterModule_WebGLv
Cjc:__ZN12ShaderErrors11ShaderErrorC2ERKN4core12basic_stringIcNS1_20StringStorageDefaultIcEEEES7_S7_iibb
j0a:__ZN14CompressedMesh8TransferI19StreamedBinaryWriteILb0EEEEvRT_
Okh:_Array_InternalArray__Insert_TisDouble_t594665363_m675699942_gshared
h9a:__ZN13dynamic_arrayI15ComputeShaderCBLj0EE6assignEPKS0_S3_
CSi:_List_1_System_Collections_IList_Add_m3014885234_gshared
l8h:_UnityAction_1_Invoke_m3535252839_gshared
iYf:_Selectable_set_isPointerInside_m701571657
gaj:_PatternCompiler_EmitNotCategory_m2023580103
NFa:__ZN24GenerateTypeTreeTransfer8TransferI21PlatformShaderDefinesEEvRT_PKc17TransferMetaFlags
J4a:__ZNK15ResourceManager22GetTypeVirtualInternalEv
k1j:__ZN6il2cpp2vmL36AddNestedTypesToNametoClassHashTableEPK11Il2CppImagePK20Il2CppTypeDefinition
kUi:_List_1_set_Capacity_m2707586410_gshared
LCf:_PlayerConnection_MessageCallbackInternal_m1914517467
Ssf:_AttributeHelperEngine__cctor_m1900959362
RWc:__ZN13TextRendering4Font23VirtualRedirectTransferER24GenerateTypeTreeTransfer
K5b:__Z59ProcessShadowCasterNodeVisibilityAndCullWithoutUmbra_KernelILN17CullingParameters9LayerCullE2ELi12EEvR9IndexListRK22SceneCullingParametersPK9SceneNodePK4AABBjjPKN4math7_float4E
lCe:__ZL102Image_t2670269651_CustomAttributesCacheGenerator_Image_t2670269651____eventAlphaThreshold_PropertyInfoP21CustomAttributesCache
U2f:_X509SubjectKeyIdentifierExtension_ToString_m12089275
ivi:__Z106RuntimeInvoker_RuntimeObject_RuntimeObject_Int32_t2950945753_Int16_t2552820387_RuntimeObject_RuntimeObjectPFvvEPK10MethodInfoPvPS4_
RSh:_UnhandledExceptionEventArgs__ctor_m224348470
vvj:_CanvasRenderer_SetPopMaterial_m2720611463
ahh:_Array_InternalArray__IndexOf_TisByte_t1134296376_m929524687_gshared
_U:__ZN11AudioSource15InitializeClassEv
mud:_ExecuteEvents_get_dragHandler_m3849431675
P$b:__ZN11HaloManager17RenderGeometryJobEP25DynamicVBOGeometryJobDataj
kDf:_Object_DestroyImmediate_m2288369078
Iah:_Enum_System_IConvertible_ToDateTime_m3823814707
$I:__ZNSt3__227__insertion_sort_incompleteIRPFbN7mecanim9animation13MuscleIndexIdES3_EPS3_EEbT0_S8_T_
lAk:_emscripten_glBlendEquation__wrapper
UXj:__ZN15dense_hashtableINSt3__24pairIK10KeyWrapperIP11Il2CppClassES4_EES5_N6il2cpp8metadata16SZArrayClassHashEN14dense_hash_mapIS5_S4_SA_NS5_14EqualsComparerINS9_19SZArrayClassCompareEEENS0_9allocatorIS7_EEE9SelectKeyESE_SG_E13set_empty_keyERKS7_
Jok:__ZNSt3__212basic_stringIcNS_11char_traitsIcEENS_9allocatorIcEEE6__initEPKcj
Oj:_emscripten_set_fullscreenchange_callback
fHd:_PropertyBuilder_IsDefined_m406627924
A2h:_ReadOnlyCollection_1_System_Collections_IList_Insert_m4085855595_gshared
Eaj:_PatternCompiler_NewLink_m3699449496
b9e:_Enumerator_System_Collections_IDictionaryEnumerator_get_Key_m2502357460_AdjustorThunk
Tj:_emscripten_glDrawArrays
$zf:_Material_HasProperty_m2704238996
yVb:__ZZ23InitPlayerLoopCallbacksvEN43EarlyUpdateExecuteMainThreadJobsRegistrator7ForwardEv
l$:__ZN11UnityEngine15CloudWebService19SessionEventManagerC2Ev
gFg:_Char_System_IConvertible_ToSingle_m2690985411_AdjustorThunk
Yj:_clock_getres
T3h:_Comparison_1_Invoke_m668117148_gshared
Y_f:_DictionaryNodeEnumerator_FailFast_m2494733641
Czc:__ZN15DirectorManager22ConstructPlayableGraphEPKc
jqd:__ZN13RuntimeStaticI14dynamic_bitsetLb0EE16StaticInitializeEPv
oHh:_List_1_System_Collections_IList_IndexOf_m581320577_gshared
Sga:__ZNSt3__222__merge_move_constructIRNS_4lessIN4core12basic_stringIcNS2_20StringStorageDefaultIcEEEEEENS_11__wrap_iterIPS6_EESB_EEvT0_SC_T1_SD_PNS_15iterator_traitsISC_E10value_typeET_
gFc:__Z41Register_UnityEngine_Camera_get_eventMaskv
xW:__ZL19CleanupModule_Audiov
f9f:_IntervalCollection_CopyTo_m2976848759
Xyd:_CanvasUpdateRegistry_ObjectValidForUpdate_m2723813849
Mmb:__ZN18GlslGpuProgramGLES25LoadFromBinaryShaderCacheERjRKN4core12basic_stringIcNS1_20StringStorageDefaultIcEEEER17ShaderChannelMaskPKc
Gha:__ZN6prcoreL17RemapGenericFloatI18TexFormatARGBFloat14TexFormatRHalfEEvPKNS_9InnerInfoE
tQi:_List_1_RemoveAt_m1433290785_gshared
xki:__Z81RuntimeInvoker_Void_t1185182177_Int64_t3736567304_RuntimeObject_Int32_t2950945753PFvvEPK10MethodInfoPvPS4_
Zrb:__Z29Transfer_Blittable_ArrayFieldI14SafeBinaryReadiEvRT_R9ArrayInfoRK23StaticTransferFieldInfo
RJj:__ZN6il2cpp6icalls8mscorlib6System8MonoType8GetFieldEP20Il2CppReflectionTypeP12Il2CppStringi
WEj:__ZN15dense_hashtableINSt3__24pairIK10KeyWrapperIN6il2cpp5utils13dynamic_arrayIPK10Il2CppTypeLj4EEEEPFvvEEESA_NS3_8metadata19Il2CppSignatureHashEN14dense_hash_mapISA_SD_SG_NSA_14EqualsComparerINSF_22Il2CppSignatureCompareEEENS0_9allocatorISE_EEE9SelectKeyESK_SM_E5clearEv
dmg:_SHA256Managed_ProcessBlock_m2297835517
Iwk:_emscripten_glVertexAttrib3fv__wrapper
wCe:__ZL75InputField_t3762917431_CustomAttributesCacheGenerator_m_CharacterValidationP21CustomAttributesCache
u2h:_ReadOnlyCollection_1_System_Collections_ICollection_CopyTo_m511916545_gshared
Sdh:_Array_InternalArray__ICollection_Remove_TisOrderBlock_t1585977831_m1449044465_gshared
OC:__ZL25SetAdditionalCurvesValuesRN7mecanim10ValueArrayERKN11UnityEngine9Animation20AnimationSetBindingsERKNS_18ValueArrayConstantES9_RKS0_
Lkk:_DisplayBuffer_OnCommand_m444302511
CPe:_AssemblyName__ctor_m1753467291
RYf:_Slider_set_minValue_m3431883418
ZBc:__ZN8Material10GetTextureEN9ShaderLab16FastPropertyNameE
hff:_Enumerator_System_Collections_IEnumerator_get_Current_m1657817602_gshared
LXa:__ZN18StreamedBinaryReadILb0EE21TransferSTLStyleArrayI13dynamic_arrayI10Matrix4x4fLj16EEEEvRT_17TransferMetaFlags
Juc:__ZNK28MonoBehaviourPropertyBinding13GetFloatValueERKN11UnityEngine9Animation10BoundCurveE
fYb:__ZL20BlitToStagingTextureP7TextureiS0_i
gfk:_GC_generic_malloc
l2f:_WebHeaderCollection_get_Keys_m910440889
YLb:__ZN13GfxDeviceGLES32CreateDepthRenderSurfacePlatformEP17RenderSurfaceBase17DepthBufferFormat
XGg:_ArrayListWrapper_Clear_m2625302714
NG:__ZN26AnimatorOverrideController13AwakeFromLoadE17AwakeFromLoadMode
CAk:_emscripten_glIsTexture__wrapper
ifg:_CipherSuiteCollection_System_Collections_IEnumerable_GetEnumerator_m3240848888
eqk:_llvm_bswap_i32
o4h:_Comparison_1_BeginInvoke_m3417636795_gshared
Whb:__ZN9GfxDevice25ReleaseAsyncCommandHeaderEPN21GfxDeviceAsyncCommand3ArgE
u8i:_X509Crl_Parse_m3164013387
Zie:__ZL75Mesh_t3648964284_CustomAttributesCacheGenerator_Mesh_HasChannel_m4256962133P21CustomAttributesCache
DEb:__ZN13MonoBehaviour23VirtualRedirectTransferER17RemapPPtrTransfer
hTb:__ZN21UniformBufferTFMethod20IsBoneCountSupportedEi
cmb:__ZN4gles14UseGLSLProgramER15DeviceStateGLESjbij
wFd:_HorizontalLayoutGroup_CalculateLayoutInputHorizontal_m750541069
S8j:__ZN6il2cpp6icalls8mscorlib6System11Environment11get_NewLineEv
B5f:_X509CertificateCollection__ctor_m1395805580
BNd:_ResourceReader_CreateResourceInfo_m1818330740
Kwj:_OnOverrideControllerDirtyCallback_Invoke_m764065723
QLa:__ZN6Shader27MarkShaderStateNotSupportedEPKS_
ala:__ZL55__ManagedRegistrationHelperFunction_DrawShadowsSettingsPv
kla:__ZL52__ManagedRegistrationHelperFunction_GradientAlphaKeyPv
qDf:_Object_Internal_CloneSingle_m1021157572
MSb:__ZN25TransformFeedbackSkinning8SkinMeshERK18VertexStreamSourceP9GfxBufferP17GPUSkinPoseBufferS4_ii17ShaderChannelMaskb
L0j:__ZN15dense_hashtableINSt3__24pairIK10KeyWrapperIP14Il2CppIUnknownEjEES5_N6il2cpp5utils11PointerHashIS3_EEN14dense_hash_mapIS5_jSB_NS5_14EqualsComparerINS0_8equal_toIS4_EEEENS0_9allocatorIS7_EEE9SelectKeyESG_SI_E12resize_deltaEjj
lNd:_ResolveEventArgs__ctor_m1455935166
VOh:_Type_Equals_m1673304139
fIe:_SynchronizedReader_Read_m1388613247
zxb:__Z22TransferField_NonArrayI19StreamedBinaryWriteILb0EE27Converter_SimpleNativeClassI8GUIStyleEEvRK23StaticTransferFieldInfoR31RuntimeSerializationCommandInfoRT0_
JVf:_Scrollbar_OnPointerDown_m3213715319
TRc:__ZN8JSONRead8TransferIN4math12int3_storageEEEvRT_PKc17TransferMetaFlagsb
LWb:__ZN27IntermediateRendererManager29ClearAllIntermediateRenderersEv
pwd:_StandaloneInputModule__ctor_m2419721820
J7e:_Comparer_1_System_Collections_IComparer_Compare_m2018996185_gshared
Rp:__Z17CalculateGlobalSM23TransformAccessReadOnlyRKN4math7_float4E
XIg:_CollectionBase_System_Collections_IList_Contains_m2994901969
Wl:_emscripten_glLoadIdentity
Fac:__ZNSt3__26vectorINS_4pairIN4core12basic_stringIcNS2_20StringStorageDefaultIcEEEEPK17MessageIdentifierEENS_9allocatorISA_EEE26__swap_out_circular_bufferERNS_14__split_bufferISA_RSC_EEPSA_
cye:__ZL57RemoteSettings_t1718627291_CustomAttributesCacheGeneratorP21CustomAttributesCache
tyj:_NativeMethodAttribute_set_HasExplicitThis_m2961870915
wDf:_Vector3_get_zero_m1409827619
BWb:__ZN6Shader16GetDefaultOrNullEv
kq:__ZN4AABB8TransferI14SafeBinaryReadEEvRT_
Fch:_Array_InternalArray__ICollection_Contains_TisX509ChainStatus_t133602714_m795171973_gshared
B$j:__ZN6il2cpp2vm8Liveness8FromRootEP12Il2CppObjectPv
U0a:__ZN12MeshRenderer23VirtualRedirectTransferER19StreamedBinaryWriteILb0EE
zcc:__Z11MD5ToStringPh
qIj:__ZN23InterfaceActionInvoker4IixxbE6InvokeEjP11Il2CppClassP12Il2CppObjectixxb
prc:__Z38Input_Get_Custom_PropCompositionStringv
d0:__GLOBAL__sub_I_artifacts_WebGL_codegenerator_0_cpp_862
zW:__ZN19AudioSampleProvider7AcquireEjRNS_6HandleE
_Zf:_Text_get_alignment_m1496827807
Trh:_ContentInfo_get_ASN1_m1776225219
eoe:__ZL82NativeContainerNeedsThreadIndexAttribute_t764917452_CustomAttributesCacheGeneratorP21CustomAttributesCache
QY:__ZN9JSONWrite8TransferIN4core12basic_stringIcNS1_20StringStorageDefaultIcEEEEEEvRT_PKc17TransferMetaFlags
TXa:__ZN10SpriteBone8TransferI19StreamedBinaryWriteILb0EEEEvRT_
u3g:_Convert_ToSingle_m2533452644
Sok:__ZNSt3__212basic_stringIcNS_11char_traitsIcEENS_9allocatorIcEEE6resizeEjc
Y1a:__ZN14PlayerSettings16CheckConsistencyEv
CV:__ZN11AudioModule30GetOrCreateDSPFromCustomFilterEP17AudioCustomFilter
wtd:_EventTrigger_OnPointerEnter_m986348926
Y$j:__ZN6il2cpp6icalls8mscorlib6System13GlobalizationL20culture_lcid_locatorEPKvS5_
Lng:_X509Certificate__ctor_m1413707489
H0h:_ReadOnlyCollection_1_System_Collections_Generic_ICollectionU3CTU3E_Remove_m2211264472_gshared
DQa:__ZNK12CubemapArray16ExtractImageImplEP14ImageReferenceNS0_8BlitModeEbi
KBc:__ZN10systeminfo24GetSystemLanguageCultureEi
Ujb:__ZN9GfxDevice24RequestAsyncReadbackDataEP20GfxAsyncReadbackDataRK27GfxAsyncReadbackRequestDesc
soi:__Z240RuntimeInvoker_RuntimeObject_Int16_t2552820387_RuntimeObject_Int32_t2950945753_Int32_t2950945753_Int32_t2950945753_SByte_t1669577662_SByte_t1669577662_SByte_t1669577662_SByte_t1669577662_Int16_t2552820387_SByte_t1669577662_SByte_t1669577662PFvvEPK10MethodInfoPvPS4_
j2a:__ZN10VRSettings8TransferI14SafeBinaryReadEEvRT_
Tpa:__ZN9Scripting11UnityEngine12Experimental18GlobalIllumination11LightDataGI9InitProxyEv
wPh:_Type_IsMarshalByRefImpl_m914778231
Zab:__ZNK17FileSystemHandler10IsReadOnlyERK13FileEntryData
o_c:_UNITY_FT_Outline_Get_CBox
ZFc:__Z56Register_UnityEngine_SystemInfo_GetOperatingSystemFamilyv
MJg:_Hashtable__ctor_m2302711321
ja:invoke_viifiiii
CEg:_Byte_TryParse_m1467448483
ilk:_DelegatePInvokeWrapper_OnCommandSentHandler_t613111342
sJf:_Texture2D_get_whiteTexture_m2176011403
NAa:__ZN22PerThreadPageAllocator14AcquireNewPageEj
N4h:_Func_2_Invoke_m3516477887_gshared
qme:__ZL65SelectionBaseAttribute_t3493465804_CustomAttributesCacheGeneratorP21CustomAttributesCache
ltg:_String_ToString_m3872792296
lub:__Z18Transfer_BlittableI24GenerateTypeTreeTransferLb1E9BoundsIntEvRK29SerializationCommandArgumentsR31RuntimeSerializationCommandInfo
AVg:_FileStream_GetSecureFileName_m449783930
h1b:__ZN6Camera13ClearNoSkyboxEb
_Ie:_UnexceptionalStreamWriter_Flush_m82278468
bLa:__ZNK15PlayableMethods21CanInvokeProcessFrameEv
c1e:_InternalEnumerator_1_get_Current_m3911557813_gshared
jEj:__ZNK15dense_hashtableI10KeyWrapperIPK17Il2CppGenericInstES4_N6il2cpp8metadata21Il2CppGenericInstHashEN14dense_hash_setIS4_S7_NS4_14EqualsComparerINS6_24Il2CppGenericInstCompareEEENSt3__29allocatorIS4_EEE8IdentityESB_SE_E12test_deletedEj
dsd:_BaseInput_get_touchCount_m1263753282
fda:__ZNSt3__27__sort5IR17CompareInstanceIDPP6ObjectEEjT0_S6_S6_S6_S6_T_
Pxj:_CustomEventData_Internal_Create_m4267220301
DVd:_RemotingSurrogate_SetObjectData_m2713731796
ivg:_DecoderReplacementFallbackBuffer_Reset_m3943028589
Tme:__ZL56RenderTexture_t2108887433_CustomAttributesCacheGeneratorP21CustomAttributesCache
URb:__ZN18GfxFramebufferGLES10InvalidateEv
WAh:_Enumerator_System_Collections_IEnumerator_get_Current_m282279808_AdjustorThunk
BQf:_LayoutRebuilder_MarkLayoutRootForRebuild_m1241498911
SKh:_CompressedStack_CreateCopy_m2591279216
olg:_RSAPKCS1KeyExchangeFormatter_CreateKeyExchange_m1611814432
S3:__ZN10MemoryPoolD2Ev
IKc:__ZNSt3__26__treeINS_12__value_typeIN4core12basic_stringIcNS2_20StringStorageDefaultIcEEEEN5IMGUI12NamedControlEEENS_19__map_value_compareIS6_S9_NS_4lessIS6_EELb1EEENS_9allocatorIS9_EEE7destroyEPNS_11__tree_nodeIS9_PvEE
O2f:_AsnEncodedData_KeyUsageExtension_m1792651780
C5j:__ZN6il2cpp2os5posix15PosixWaitObjectD2Ev
llb:__ZN14GfxDeviceStats19EndClientFrameStatsEv
iOf:_InputField_set_asteriskChar_m1794444908
elc:__ZN9Scripting26RaiseArgumentNullExceptionEPKc
hBk:b120
f2:__ZL18InternalLogConsolePKcz
I_e:_InternalEnumerator_1_get_Current_m685192625_gshared
UIe:_UnexceptionalStreamReader_Read_m16956299
KNd:_ResourceReader_ReadValueVer1_m183253382
i8:__Z37scripting_method_get_nth_argumenttype18ScriptingMethodPtri
pR:__ZN11AudioSource16UpdatePauseStateEv
Nca:__ZL52StaticUnregisterSceneLoadedCallback_LightmapSettingsPv
guf:_Camera_get_main_m3643453163
tEc:__Z48Register_UnityEngine_MonoBehaviour_StopCoroutinev
ijk:__ZN6il2cpp5utils25NativeDelegateMethodCache17AddNativeDelegateEPFvvEPK10MethodInfo
aSf:_LayoutRebuilder_U3CRebuildU3Em__5_m1288787547
n0b:__ZN27DeviceViewProjMatricesStateD2Ev
yIf:_SendMouseEvents__cctor_m2378365934
QYh:_ReadOnlyCollection_1_System_Collections_IList_set_Item_m3582274843_gshared
mAf:_Mathf_Pow_m856735666
oga:__ZL39CreateRegisteredMessageIdentifiersArrayPv
Ytb:__Z18Transfer_BlittableI24GenerateTypeTreeTransferLb0E8Vector3fEvRK29SerializationCommandArgumentsR31RuntimeSerializationCommandInfo
Wlh:_SimpleCollator_FilterExtender_m72900315
NWc:__ZNK13TextRendering4Font22GetTypeVirtualInternalEv
pye:__ZL61CertificateHandler_t2739891000_CustomAttributesCacheGeneratorP21CustomAttributesCache
wKf:_Transform_set_parentInternal_m2066300701
s5a:__ZN19StreamedBinaryWriteILb0EE21TransferSTLStyleArrayINSt3__26vectorIN15ResourceManager10DependencyE13stl_allocatorIS5_L18MemLabelIdentifier52ELi16EEEEEEvRT_17TransferMetaFlags
jXf:_ScrollRect_EnsureLayoutHasRebuilt_m3415112783
vLe:_Binder_FindMostDerivedMatch_m239579024
LYe:_InternalEnumerator_1_get_Current_m476140818_AdjustorThunk
hij:_GUIUtility_EndContainerGUIFromException_m530164245
Qvj:_RectTransformUtility_INTERNAL_CALL_RectangleContainsScreenPoint_m1214874141
zI:__ZZN8Animator15InitializeClassEvEN37FunctorImpl_439kDidModifyOverrideClip4CallEPviR11MessageData
TOa:__ZN6prcoreL10inner_flipILj2EEEvPhS1_j
oGj:__ZN6il2cpp2vm13MetadataCache14GetPointerTypeEP11Il2CppClass
JOa:__ZNK14Texture2DArray16ExtractImageImplEP14ImageReferenceNS0_8BlitModeEbi
PIh:_StringBuilder_Append_m2383614642
gOc:__ZN9JSONWrite8TransferIbEEvRT_PKc17TransferMetaFlags
Aua:__ZN12TLSAllocatorI14StackAllocatorED0Ev
j1a:__ZN11TimeManager16CheckConsistencyEv
E0h:_ReadOnlyCollection_1_System_Collections_Generic_ICollectionU3CTU3E_Add_m2451728105_gshared
vZb:__ZN21GfxDeviceAsyncCommand10ArgScratch15ThreadedCleanupEv
nzc:__Z14DoubleToStringd
lug:_StringComparer_GetHashCode_m2080455020
xtb:__ZN12NativeBufferI27Converter_UnityEngineObjectE15SetupForWritingER9ArrayInfo
CNi:_List_1_CheckCollection_m2118769249_gshared
oe:_glTexImage3D
kBd:_DefaultControls_SetDefaultColorTransitionValues_m2033775311
WUg:_Path_IsPathRooted_m3515805419
vFi:_Array_InternalArray__set_Item_TisChar_t3634460470_m741842250_gshared
b5i:_TlsServerSettings_set_RsaParameters_m853026166
M2j:__ZN6il2cpp2vm5Field22StaticGetValueInternalEP9FieldInfoPvS4_
Svg:_Encoding_GetByteCount_m1264711659
QP:__ZN11AudioSource12ApplyFiltersEv
Hrf:_RC2_Create_m2052783340
zPg:_Guid__ctor_m3421080095_AdjustorThunk
xe:_JS_SystemInfo_GetCurrentCanvasWidth
X9j:__ZN6il2cpp8metadataL22FormatGenericArgumentsEPK17Il2CppGenericInst
Wmc:__ZL34GetComponentsImplementationRecurseILb1ELi0ELi1EEbR10GameObjectbRK17CompareParametersRK39GetComponentsImplementation_ReturnValue
RCa:__ZNK17InstancingBatcher15RenderInstancesERK15RenderNodeQueuePK17BatchInstanceDataj16VertexInputMasksPFbPvS6_iR11MeshBuffersR16DrawBuffersRangeRiSC_E
kah:_Double_Equals_m1674752021
yOf:_InputField_OnDisable_m1824300767
alh:_CodePointIndexer_ToIndex_m1008730487
PDc:__Z37Texture_CUSTOM_get_texelSize_InjectedP12Il2CppObjectR13Vector2fIcall
ZSg:_Int64_System_IConvertible_ToUInt64_m2815650160_AdjustorThunk
H2a:__ZN10VRSettings8TransferI18StreamedBinaryReadILb0EEEEvRT_
Ey:__ZN22AnimationMixerPlayable12MixerProcessEP35AnimationPlayableEvaluationConstantP32AnimationPlayableEvaluationInputP33AnimationPlayableEvaluationOutputM17AnimationPlayableFvS1_S3_S5_EPFvS1_S3_S5_ESA_PFvS5_S1_S3_S5_PN7mecanim16ValueArrayWeightEfEPFvS1_S3_S5_SD_fE
A8e:_Enumerator_get_CurrentKey_m2230405065_gshared
zJe:_Math_Abs_m3912393749
big:_TlsClientFinished_ProcessAsSsl3_m3094597606
puf:_Camera_get_allCamerasCount_m528453758
Fxb:__Z19TransferField_ArrayI19StreamedBinaryWriteILb0EE27Converter_SimpleNativeClassI8GradientEEvRK23StaticTransferFieldInfoR31RuntimeSerializationCommandInfoRT0_
TYa:__ZNK13ScreenManager12IsFullscreenEv
khc:__ZN24GenerateTypeTreeTransfer8TransferINSt3__26vectorIN9ShaderLab20SerializedSubProgram15VectorParameterENS1_9allocatorIS5_EEEEEEvRT_PKc17TransferMetaFlags
eQc:__Z18Transfer_BlittableI8JSONReadLb0E12PropertyNameEvRK29SerializationCommandArgumentsR31RuntimeSerializationCommandInfo
Nxk:_glGetUniformBlockIndex__wrapper
kBg:_Array_CreateInstance_m2696293787
aJh:_UnicodeEncoding__ctor_m1074918879
JXa:__ZN7SubMesh8TransferI18StreamedBinaryReadILb0EEEEvRT_
iVe:_OpCode_Equals_m1376200488_AdjustorThunk
Zzd:_ColorBlock_op_Inequality_m2718216889
_1g:_Convert_ToInt16_m2763665794
bf:_emscripten_glIsEnabled
Enc:__Z45Register_UnityEngine_GameObject_get_transformv
YRe:_DerivedType_GetConstructors_m483065502
p7:__Z29scripting_class_instance_size17ScriptingClassPtr
BRc:__Z29Transfer_Blittable_ArrayFieldI8JSONRead5RectTIiEEvRT_R9ArrayInfoRK23StaticTransferFieldInfo
_le:__ZL82RectOffset_t1369453676_CustomAttributesCacheGenerator_RectOffset__ctor_m2718275157P21CustomAttributesCache
sDi:__Z68RuntimeInvoker_Boolean_t97287965_SByte_t1669577662_SByte_t1669577662PFvvEPK10MethodInfoPvPS4_
zti:__Z165RuntimeInvoker_Void_t1185182177_RuntimeObject_Int32_t2950945753_Int32_t2950945753_RuntimeObject_Int32_t2950945753_Single_t1397266774_Single_t1397266774_RuntimeObjectPFvvEPK10MethodInfoPvPS4_
TFd:_Image_set_preserveAspect_m769358756
L$:__ZN11UnityEngine15CloudWebService19SessionEventManager26ProcessEventQueueJobStaticEPv
iAf:_Mathf_Min_m1073399594
Tbf:_KeyCollection__ctor_m4231035512_gshared
U2c:_otv_Coverage_get_last
U_:__ZN11UnityEngine15CloudWebService19SessionEventManager37OnTimerExpiredPerformArchiveJobStaticEPv
ZMc:__Z18Transfer_BlittableI9JSONWriteLb1E9BoundsIntEvRK29SerializationCommandArgumentsR31RuntimeSerializationCommandInfo
cvg:_DecoderReplacementFallbackBuffer__ctor_m1669699347
Bdj:_Group_GetWidth_m3299755715
q1g:_Decimal_op_Implicit_m1920400487
dli:__Z253RuntimeInvoker_Int32_t2950945753_RuntimeObject_Int32_t2950945753_Int32_t2950945753_RuntimeObject_Int32_t2950945753_UInt32U26_t3735378166_UInt32U26_t3735378166_RuntimeObject_DecoderFallbackBufferU26_t3866396827_ByteU5BU5DU26_t4057885439_SByte_t1669577662PFvvEPK10MethodInfoPvPS4_
fHa:__ZN10builtintex15GetWhiteTextureEv
tVd:_MonoMethodMessage_get_TypeName_m3758247133
uKg:_Enumerator_get_Entry_m2184304359
c3g:_Convert_ToSByte_m2653811524
nkk:__ZN6il2cpp6icalls8mscorlib6System10Reflection4Emit11DerivedType21create_unmanaged_typeEP20Il2CppReflectionType
VFd:_Image_set_fillCenter_m3776786491
xlc:__Z39Register_UnityEngine_Sprite_get_texturev
Zwj:__ZL10rescale128PyS_Piiiii
US:__ZN9AudioClip7WWWSeekEPvjS0_
g_d:__ZL63FixedBufferAttribute_t3759792648_CustomAttributesCacheGeneratorP21CustomAttributesCache
i3:__ZL32StaticInitializeIUnityInterfacesPv
aZb:__Z13CameraProjectRK8Vector3fRK10Matrix4x4fS4_RK5RectTIiERS_b
Kda:__Z22CreateMutexLockedStackv
MJb:__ZNSt3__27__sort5IRNS_4lessIN22BuiltinResourceManager8ResourceEEEPS3_EEjT0_S7_S7_S7_S7_T_
uNe:_NumberFormatter_FormatNumber_m1763569482
LIf:_Sprite_get_rect_m2575211689
tWb:__ZN9ShaderLab11ShaderStateD2Ev
A6c:_Ins_DELTAP
QFb:__Z23TransferScriptingObjectI24GenerateTypeTreeTransferEvRT_18ScriptingObjectPtr17ScriptingClassPtrPK15MonoScriptCache
Iaj:_PatternLinkStack_GetOffset_m3697714525
SHj:_AnalyticsEvent__cctor_m3994162614
iIc:__Z19GetSpecificGUIStatei
XIc:__ZN12GUIClipState5ApplyER10InputEvent
exg:_X509Certificate_GetUnsignedBigInteger_m1025066663
lxb:__ZL17Transfer_GUIStyleI19StreamedBinaryWriteILb0EELb0EEvRK29SerializationCommandArgumentsR31RuntimeSerializationCommandInfo
l1b:__ZN10TextureRef4InitEP7Textureb
AEf:_PlayerConnectionInternal_UnityEngine_IPlayerEditorConnectionNative_Initialize_m2565175798
TVg:_MonoIO_GetFileType_m101289143
tDa:__Z19ScheduleJobInternalR8JobFencePFvPvES1_11JobPriority
$oa:__ZN9Scripting11UnityEngine12Experimental9Rendering12VisibleLight9InitProxyEv
Q$f:_KeysCollection_get_Count_m3943311735
CZe:_InternalEnumerator_1_get_Current_m2832154098_gshared
qTh:_Version__ctor_m1550720073
OHj:__ZNSt3__211__tree_nextIPNS_16__tree_node_baseIPvEEEET_S5_
Y2j:__ZN15dense_hashtableI10KeyWrapperIP18Il2CppGenericClassES3_N6il2cpp8metadata22Il2CppGenericClassHashEN14dense_hash_setIS3_S6_NS3_14EqualsComparerINS5_25Il2CppGenericClassCompareEEENSt3__29allocatorIS3_EEE8IdentityESA_SD_E14squash_deletedEv
Zha:__ZN6prcoreL17RemapGenericFloatI17TexFormatRGBAHalf17TexFormatRGBFloatEEvPKNS_9InnerInfoE
lfi:__Z52RuntimeInvoker_Double_t594665363_Decimal_t2948259380PFvvEPK10MethodInfoPvPS4_
i2e:_InternalEnumerator_1_get_Current_m784835552_gshared
EGc:__Z35Sprite_Get_Custom_PropPixelsPerUnitP12Il2CppObject
mEj:__ZNSt3__26__sortIRN6il2cpp5utils11collections13ArrayValueMapIPK10Il2CppType17Il2CppInteropData26InteropDataToTypeConverterNS1_8metadata14Il2CppTypeLessENSA_26Il2CppTypeEqualityComparerEE12SortComparerEPS8_EEvT0_SH_T_
d8a:__ZN11PreloadDataD2Ev
Kpd:__ZN15DownloadHandler14ProcessHeadersERK9HeaderMap
dXc:__ZNSt3__26vectorINS_4pairIifEE13stl_allocatorIS2_L18MemLabelIdentifier35ELi16EEE6assignINS_11__wrap_iterIPS2_EEEENS_9enable_ifIXaasr21__is_forward_iteratorIT_EE5valuesr16is_constructibleIS2_NS_15iterator_traitsISC_E9referenceEEE5valueEvE4typeESC_SC_
Vb:invoke_iifi
_Eg:_Char_System_IConvertible_ToInt16_m975497224_AdjustorThunk
T8g:_Delegate_CreateDelegate_m995503480
$yk:_emscripten_glGetObjectParameterivARB__wrapper
fLj:__ZNK6il2cpp5utils10StringViewIcE5RFindEc
iSe:_DerivedType_get_Module_m3032466746
FHa:__ZN15SharedLightData15UpdateTransformERK9Transform
ACe:__ZL71InputField_t3762917431_CustomAttributesCacheGenerator_m_OnValidateInputP21CustomAttributesCache
cib:__ZN9GfxDevice24CreateRenderDepthSurfaceE9TextureIDiiii16TextureDimension17DepthBufferFormat18SurfaceCreateFlags
Q8b:__ZL30CollectComponentsWithoutAddingR10GameObjectPKN5Unity4TypeE17ScriptingClassPtrR13dynamic_arrayI16AddComponentDataLj0EES9_PN4core12basic_stringIcNSA_20StringStorageDefaultIcEEEE
$J:__ZN18AssetBundleManagerD2Ev
O_j:__ZN6il2cpp2vm9Exception27GetIndexOutOfRangeExceptionEv
loc:__Z44Register_UnityEngine_RectOffset_get_verticalv
TSf:_MaskableGraphic_set_maskable_m243551751
osa:__ZN5Unity9Component8TransferI14SafeBinaryReadEEvRT_
yFh:_List_1_System_Collections_IList_Remove_m2702745770_gshared
eh:_JS_SystemInfo_GetCurrentCanvasHeight
JWe:_ArrayReadOnlyList_1_IndexOf_m1911574180_gshared
CSf:_Mask_OnEnable_m2186824439
bNf:_InputField_SetCaretVisible_m2216480850
t6f:_X509EnhancedKeyUsageExtension_CopyFrom_m3750050754
eMa:__ZNK8Material22GetTypeVirtualInternalEv
DJc:__Z34GUIStyle_Get_Custom_PropFixedWidthP12Il2CppObject
__h:_ReadOnlyCollection_1_System_Collections_IList_Clear_m1076810235_gshared
SDh:_Enumerator_System_Collections_IEnumerator_get_Current_m3405349194_AdjustorThunk
bBg:_Array_SetValue_m3412648248
X6j:__ZN6il2cpp2gc16GarbageCollector11GetWeakLinkEPPv
s7j:__GLOBAL__sub_I_Console_cpp
Pha:__ZN6prcoreL17RemapGenericFloatI14TexFormatRHalf17TexFormatRGBAHalfEEvPKNS_9InnerInfoE
y9f:_BigInteger_GetBytes_m1259701831
vLj:__ZN6il2cpp2vm7Runtime11InvokeArrayEPK10MethodInfoPvP11Il2CppArrayPP15Il2CppException
Ftg:_String_memcpy_m2826223007
l2i:_RijndaelManaged_CreateDecryptor_m1421727258
F6c:_Dual_Project
hjb:__ZN9GfxDevice15BeginFrameStatsEv
JDh:_Enumerator_MoveNext_m2407049913_gshared
KIh:_StringBuilder_Replace_m1682610486
vRb:__ZN4gles20EnsureTextureCreatedEP7ApiGLESP17RenderSurfaceGLES
Hra:__ZN9Scripting5Unity11Collections8LowLevel6Unsafe48NativeDisableContainerSafetyRestrictionAttribute9InitProxyEv
LZb:__ZN15ReplacementPass13PrepareSubsetEjRK10RenderNodeifRK17ShaderReplaceData
UP:__Z32AudioMeasurement_GetTimeConstantff
xak:__ZN6il2cpp8metadata11FieldLayout12LayoutFieldsEjjjRKNSt3__26vectorIPK10Il2CppTypeNS2_9allocatorIS6_EEEERNS1_15FieldLayoutDataE
Icb:__ZNK20LocalFileSystemPosix9EnumerateEPKcP19dynamic_block_arrayI13FileEntryInfoLj32EEbPPv19FileEnumerationFlag
HJd:_MethodInfo_MakeGenericMethod_m1996785325
tsd:_BaseInputModule_DetermineMoveDirection_m770437496
_Rd:_Context_get_HasGlobalDynamicSinks_m3672814609
v9i:_Match__ctor_m2464595873
e6b:__ZL27PrepareSceneNodesJobCombineP25ScheduleSceneNodesJobData
YD:__ZN9BlobWrite8TransferIN7mecanim12statemachine18StateMachineMemoryEEEvRT_PKc17TransferMetaFlags
Z7i:_X509CertificateEnumerator_Reset_m1825523691
lqb:__Z22TransferField_NonArrayI14SafeBinaryRead27Converter_SimpleNativeClassI8GUIStyleEEvRK23StaticTransferFieldInfoR31RuntimeSerializationCommandInfoRT0_
QRj:__ZN14dense_hash_mapI10KeyWrapperIPK10Il2CppTypeEjN6il2cpp8metadata14Il2CppTypeHashENS4_14EqualsComparerINS6_26Il2CppTypeEqualityComparerEEENSt3__29allocatorINSB_4pairIKS4_jEEEEEC2EjRKS7_RKSA_
OKb:__ZN13GfxDeviceGLESD2Ev
qec:__ZNSt3__26vectorIN9ShaderLab26SerializedShaderDependencyENS_9allocatorIS2_EEE6resizeEj
hKi:_Activator_CreateInstance_TisRuntimeObject_m729575857_gshared
Eda:__ZN18AsyncUploadManager13StaticDestroyEPv
FWc:__ZN9Scripting11UnityEngine4Font9InitProxyEv
Tdc:__ZN6Shader7SetNameEPKc
X9b:__ZN19CustomRenderTexture22HandleBoundaryWrappingERKNS_14UpdateZoneInfoEj
Ntj:_TextGenerationSettings_CompareColors_m3051734236
IHj:__ZN6il2cpp2vm13MetadataCache32GenerateCustomAttributeTypeCacheEi
krg:_Single_Equals_m438106747
Wme:__ZL101Time_t2420636075_CustomAttributesCacheGenerator_Time_t2420636075____realtimeSinceStartup_PropertyInfoP21CustomAttributesCache
jpd:__ZN20UnityWebRequestProtoI24UnityWebRequestTransport16AtomicRefCounter14RedirectHelper14ResponseHelper15DownloadHandler13UploadHandler18CertificateHandler12HeaderHelper14AsyncOperationE35Task_FinalizeAfterDHCompleteContentEPv
rOd:_RuntimeResourceSet__ctor_m2765575100
Jic:__ZN9ShaderLab9SubShader31UpdateLightModeToPassIndexTableEv
Thg:_TlsClientCertificate_ProcessAsSsl3_m3265529850
FC:__ZNK11UnityEngine9Animation30GenericBindingValueArrayUniqueclERKNS0_14GenericBindingES4_
xug:_ASCIIEncoding_GetChars_m2543669481
_nh:_BigInteger_IsProbablePrime_m567194283
CUe:_MethodBuilder_GetCustomAttributes_m731278908
K6c:_Direct_Move_Y
I6c:_Direct_Move_X
cmi:__Z51RuntimeInvoker_Single_t1397266774_Double_t594665363PFvvEPK10MethodInfoPvPS4_
Bi:_glClearDepthf
WAc:__ZN19SkinnedMeshRenderer7GetMeshEv
vHa:__ZN19RuntimeSceneManager14GetActiveSceneEv
fqk:_memcpy
NJb:__ZNSt3__218__insertion_sort_3IRNS_4lessIN22BuiltinResourceManager8ResourceEEEPS3_EEvT0_S7_T_
fmf:_MultiArrayFixupRecord_FixupImpl_m1721674130
SKj:__ZN6il2cpp6icalls8mscorlib6SystemL8IsStaticEPK9EventInfo
F2c:_otv_LookupList_validate
Y3d:__ZL49_Module_t135161706_CustomAttributesCacheGeneratorP21CustomAttributesCache
PAh:_GenericEqualityComparer_1_Equals_m687841776_gshared
oqc:__Z57Register_UnityEngine_Transform_INTERNAL_get_localPositionv
i4b:__ZNSt3__27__sort4IR15ReflProbeSorterPP15ReflectionProbeEEjT0_S6_S6_S6_T_
UEa:__ZN16GraphicsSettings10SmartResetEv
xkc:__ZN19StreamedBinaryWriteILb0EE4InitE24TransferInstructionFlags20BuildTargetSelection
vUf:_DelegatePInvokeWrapper_GetRayIntersectionAllCallback_t3913627115
hzj:__ZN15dense_hashtableINSt3__24pairIK10KeyWrapperIPK22Il2CppGenericParameterEP11Il2CppClassEES6_N6il2cpp5utils11PointerHashIS4_EEN14dense_hash_mapIS6_S9_SE_NS6_14EqualsComparerINS0_8equal_toIS5_EEEENS0_9allocatorISA_EEE9SelectKeyESJ_SL_E9copy_fromERKSO_j
eph:_ASN1Convert_ToInt32_m254930636
S2a:__ZN26PlayerSettingsSplashScreen16CheckConsistencyEv
cx:__ZN7mecanim8skeleton25SkeletonPoseComputeGlobalIN4math4trsXEEEvPKNS0_8SkeletonEPKNS0_13SkeletonPoseTIT_EEPS9_ii
zSh:_UInt64_ToString_m1529093114
ssc:__ZNK28RectTransformPropertyBinding9BindValueER6ObjectRKN11UnityEngine9Animation14GenericBindingERNS3_10BoundCurveE
vd:_emscripten_glLoadMatrixf
s4:__ZL33TransformAccessArray_CleanupClassPv
dAf:_Material_SetInt_m1783799378
JAg:_Array_GetLength_m2178203778
czf:_Input_GetMouseButtonDown_m2081676745
BQg:_Int16_System_IConvertible_ToDouble_m1661805412_AdjustorThunk
w0a:__ZN4Mesh14UploadMeshDataEb
oBk:_emscripten_glCreateProgram__wrapper
sGb:__ZN18ScreenManagerWebGL17RestoreCursorLockEv
pvc:__ZN14RenderSettings12CleanupClassEv
tlc:__Z43DataUtility_CUSTOM_INTERNAL_CALL_GetPaddingP12Il2CppObjectR8Vector4f
OT:__ZN21AudioScriptingClasses26InvokeOnAudioManagerUpdateEP21ScriptingExceptionPtr
$kb:__ZN18AsyncUploadManager15DoDeCruncherJobEP26FileAssetUploadInstruction
Yib:__ZN9GfxDevice15ImmediateNormalEfff
HKf:_Enumerator__ctor_m1351041375
Trd:_BaseInput_get_compositionString_m1887614380
nvb:__ZN13GUIStyleState8TransferI24GenerateTypeTreeTransferEEvRT_
zxk:_emscripten_glGetActiveAttrib__wrapper
nZa:__ZN9Texture3D23VirtualRedirectTransferER14SafeBinaryRead
bqd:__Z33CertificateHandler_CUSTOM_ReleaseP12Il2CppObject
tGi:_Array_InternalArray__set_Item_TisVector2_t2156229523_m2671087464_gshared
oLi:_Array_InternalArray__get_Item_TisVector4_t3319028937_m1117939728_gshared
Pfc:__ZNSt3__26vectorIN9ShaderLab20SerializedSubProgram16TextureParameterENS_9allocatorIS3_EEE8__appendEj
R7i:_X509CertificateCollection_Contains_m743657353
RUg:_DirectoryInfo_Initialize_m1389772934
TSa:__ZN9Texture2D13UploadTextureEi
IQb:__ZN7ApiGLES9MapBufferEjN2gl12BufferTargetEllj
UO:__ZN4FMOD6System19setSoftwareChannelsEi
qkb:__ZN9GfxDevice19SetSinglePassStereoE16SinglePassStereo
dqk:_bitshift64Lshr
YCa:__Z40BuildSingleStreamChannelInfoWithDefaultsP11ChannelInfoRK20VertexChannelsLayout17ShaderChannelMaskS4_S4_
RJg:_Hashtable_System_Collections_IEnumerable_GetEnumerator_m2751657639
jGc:__Z62ScriptableObject_CUSTOM_CreateScriptableObjectInstanceFromTypeP12Il2CppObject
pUd:_HeaderHandler_Invoke_m3513051789
PEe:__ZL77CanvasScaler_t2767979955_CustomAttributesCacheGenerator_m_ReferenceResolutionP21CustomAttributesCache
kgi:__Z144RuntimeInvoker_RuntimeObject_RuntimeObject_Int32_t2950945753_RuntimeObject_RuntimeObject_RuntimeObject_RuntimeObject_RuntimeObject_RuntimeObjectPFvvEPK10MethodInfoPvPS4_
MOh:_Type_get_IsPointer_m4067542339
SZf:_Text_get_supportRichText_m1837499160
Irc:__Z60Register_UnityEngine_Input_INTERNAL_set_compositionCursorPosv
vDf:_Vector3_Magnitude_m3447562852
Ysf:_Component__ctor_m1928064382
Crk:dynCall_viiiii
Irk:dynCall_viiiif
J5b:__Z59ProcessShadowCasterNodeVisibilityAndCullWithoutUmbra_KernelILN17CullingParameters9LayerCullE1ELi12EEvR9IndexListRK22SceneCullingParametersPK9SceneNodePK4AABBjjPKN4math7_float4E
H8c:_Cubic_To
lgg:_Context_get_Protocol_m1078422015
dFc:__Z44Register_UnityEngine_Camera_get_farClipPlanev
jr:__Z25InverseTransformDirection23TransformAccessReadOnlyRKN4math7_float3Eb
dig:_TlsClientHello_Update_m3773127362
Tlj:_ToggleGroup_SetAllTogglesOff_m4184050071
_4j:__ZN6il2cpp2gc16GarbageCollector14GetOrCreateCCWEP12Il2CppObjectRK10Il2CppGuid
g2j:__ZN6il2cpp2vm5Image21FromTypeNameParseInfoEPK11Il2CppImageRKNS0_17TypeNameParseInfoEb
DKe:_MonoCustomAttrs_IsDefined_m2996012389
UNb:__ZN17BufferManagerGLES13AcquireBufferEjN14DataBufferGLES11BufferUsageEb
muj:_TextGenerator_PopulateAlways_m1922695746
H2g:_Decimal__ctor_m3650533794
_Sf:_MaskableGraphic_UpdateClipParent_m2605828397
Fng:_TripleDESTransform_GetStrongKey_m292426577
TQe:_AssemblyBuilder_get_Location_m384539722
Qmd:__ZN16UnityAdsSettingsD0Ev
YPb:__ZNK7ApiGLES10DebugLabelEN2gl10ObjectTypeEjPKc
soa:__ZN9Scripting11UnityEngine9Matrix4x412CleanupProxyEv
qVg:_DirectoryNotFoundException__ctor_m4004339866
Ppk:__ZNK10__cxxabiv121__vmi_class_type_info16search_below_dstEPNS_19__dynamic_cast_infoEPKvib
Xtj:_TextGenerator__ctor_m1349784994
KTf:_Navigation_Equals_m317484440
q0i:_Collection_1_System_Collections_IList_set_Item_m876512695_gshared
vlc:__Z38DataUtility_CUSTOM_Internal_GetMinSizeP12Il2CppObjectP13Vector2fIcall
tzc:__ZN8PlayableC2E17ScriptingClassPtr18DirectorPlayerType
PLf:_Vector3_Distance_m886789632
klf:_ObjectReader_ReadObjectGraph_m1689734232
ZBf:_MonoBehaviour_StopCoroutine_m907039165
XUj:_il2cpp_class_has_attribute
Mph:_DSAManaged_get_KeySize_m2738463749
BG:__ZN14SafeBinaryRead21TransferSTLStyleArrayI13dynamic_arrayIjLj0EEEEvRT_17TransferMetaFlags
Xia:__ZN6prcoreL12RemapGenericI15TexFormatRGB88817TexFormatARGB8888EEvPKNS_9InnerInfoE
mMf:_Vector4_op_Subtraction_m1632208160
N7:__Z27FindOrCreateMonoScriptCache17ScriptingClassPtr22InitScriptingCacheTypeP6Objecti
kBb:__Z18Transfer_BlittableI18StreamedBinaryReadILb0EELb1E8Vector3fEvRK29SerializationCommandArgumentsR31RuntimeSerializationCommandInfo
egd:__ZN2UI14CanvasRenderer13SyncVertexPtrER8JobFenceNS0_8SyncFlagE
fNg:_CultureInfo_GetFormat_m732021304
d8:__Z35scripting_method_get_argument_count18ScriptingMethodPtr
pli:__Z46RuntimeInvoker_RuntimeObject_Double_t594665363PFvvEPK10MethodInfoPvPS4_
xvg:_EncoderReplacementFallback__ctor_m2980727890
IGg:_ArrayList_Synchronized_m1327684267
hmc:__Z20Gradient_CUSTOM_InitP12Il2CppObject
xJd:_MethodBase_get_IsPublic_m2180846589
hKc:__Z48Register_UnityEngine_GUIUtility_Internal_ExitGUIv
Awh:_DefaultComparer_Equals_m2574572657_gshared
_Vg:_FileStream_get_CanWrite_m1199612770
i6b:__ZL21CullDynamicObjectsJobP14CullingJobDataj
mcd:__ZN2UI15ClearCanvasDataER8JobFenceRNS_10CanvasDataE
yId:_TypeBuilder_get_IsGenericParameter_m1751799710
wac:__ZN14ManagerContext17InitializeClassesEv
b$:__ZNSt3__26__treeINS_12__value_typeIN19CloudServiceHandler11ServiceTypeEPS2_EENS_19__map_value_compareIS3_S5_NS_4lessIS3_EELb1EEE13stl_allocatorIS5_L18MemLabelIdentifier88ELi16EEE25__emplace_unique_key_argsIS3_JRKNS_21piecewise_construct_tENS_5tupleIJRKS3_EEENSI_IJEEEEEENS_4pairINS_15__tree_iteratorIS5_PNS_11__tree_nodeIS5_PvEEiEEbEERKT_DpOT0_
nK:__ZN19StreamedBinaryWriteILb0EE21TransferSTLStyleArrayINSt3__26vectorI14ConstantStringNS2_9allocatorIS4_EEEEEEvRT_17TransferMetaFlags
zzb:__ZN18StreamedBinaryReadILb1EE21TransferSTLStyleArrayI31ArrayOfManagedObjectsTransfererEEvRT_17TransferMetaFlags
$Xf:_Selectable_get_spriteState_m1246443483
PTh:_Collection_1_System_Collections_ICollection_CopyTo_m787979241_gshared
L1h:_ReadOnlyCollection_1_System_Collections_Generic_ICollectionU3CTU3E_Clear_m1551418550_gshared
trk:dynCall_viiiiiiiiii
h8c:_t1_hints_open
LLe:_MonoType_get_AssemblyQualifiedName_m2662925380
_yf:_GUILayer_INTERNAL_CALL_HitTest_m1069802956
q9f:_BigInteger_GenerateRandom_m3872771375
BEi:__Z75RuntimeInvoker_RuntimeObject_Single_t1397266774_RuntimeObject_RuntimeObjectPFvvEPK10MethodInfoPvPS4_
uN:__ZN4FMOD7Channel11getUserDataEPPv
wIi:_Array_swap_TisBoolean_t97287965_TisBoolean_t97287965_m1115288271_gshared
D3c:_UNITY_tt_face_load_gasp
d_f:_Text_set_fontSize_m3617617524
PZc:_ft_ansi_stream_close
im:_JS_Sound_SetPitch
RLh:_Thread_FreeLocalSlotValues_m1195763560
fqg:_String_IndexOf_m1977622757
LVj:_il2cpp_runtime_invoke_convert_args
gxd:_TouchInputModule_Process_m3715678669
rhi:__Z114RuntimeInvoker_Int32_t2950945753_RuntimeObject_Int32_t2950945753_Int32_t2950945753_RuntimeObject_Int32_t2950945753PFvvEPK10MethodInfoPvPS4_
bGg:_ArrayList__cctor_m3052737821
l9:__ZN4core8hash_mapIiP4RTTIN11TypeManager27HashFunctorPersistentTypeIDENSt3__28equal_toIiEEE6insertERKiRKS2_
PZj:__ZN6il2cpp6icalls8mscorlib6System2IO6MonoIO11GetFileStatEP12Il2CppStringPNS3_8FileStatEPi
Hjb:__ZN9GfxDevice33InsertCustomMarkerCallbackAndDataEPFviPvEiS0_j
NZb:__ZNK9ShaderLab9IntShader6GetTagE11ShaderTagIDb
q3b:__Z25CalculateShadowCasterCullbPK5PlaneRK10Matrix4x4fRK8Vector3fff9LightTypeS7_R16ShadowCasterCullPKb
cqa:__ZN9Scripting11UnityEngine8EnumInfo12CleanupProxyEv
Rdd:__ZN2UI14CanvasRenderer11SetMaterialEP8Materiali
Hrg:_String__ctor_m229724522
S1d:__ZL54AssemblyName_t270931938_CustomAttributesCacheGeneratorP21CustomAttributesCache
PJa:__ZNK13RenderTexture37IsBoundMultisampledOnSecondaryTextureEv
hdk:_GC_freehblk
P4i:_X509ExtensionCollection__ctor_m551870633
Isc:__ZZL31RegisterRectTransformPropertiesR22GenericPropertyBindingEN32Wrapper_RectTransformAnchorMinx013GetFloatValueEPv
JUe:_MethodBuilder_MakeGenericMethod_m2175748754
L$b:__Z28RenderSceneShaderReplacementRK13dynamic_arrayI16RenderObjectDataLj0EERK19SharedRendererSceneP6ShaderRKN4core12basic_stringIcNS9_20StringStorageDefaultIcEEEER17ShaderPassContext
Taj:_QuickSearch_Search_m3063517397
v9e:_Enumerator_Reset_m2443320674_gshared
s7c:_ft_var_get_value_pointer
Ed:_glClearColor
GCc:__ZN9Scripting35DestroyObjectFromScriptingImmediateEP6Objectb
vCg:_AsyncCallback_Invoke_m3156993048
i7b:__ZNK6Camera48AreVRStereoViewMatricesWithinSingleCullToleranceEv
Bz:__ZN7mecanim5human25HumanPoseAddAdditiveLayerERNS0_9HumanPoseERKS1_fRKNS_6bitsetILj83EEE
cyk:_glGetRenderbufferParameteriv__wrapper
Nrh:_SymmetricTransform_FinalDecrypt_m1677319445
cSg:_Int32_Equals_m3996243976_AdjustorThunk
phc:__ZN24GenerateTypeTreeTransfer8TransferINSt3__26vectorIN9ShaderLab20SerializedSubProgram12UAVParameterENS1_9allocatorIS5_EEEEEEvRT_PKc17TransferMetaFlags
nc:invoke_iiiiiiiiiiiiiii
Q7j:__ZN6il2cpp2os6Thread33UnregisterCurrentThreadForCleanupEv
EAk:_emscripten_glIsRenderbuffer__wrapper
T2c:_otv_Coverage_get_first
dbd:__ZN2UI11CanvasGroup8TransferI19StreamedBinaryWriteILb0EEEEvRT_
mVg:_DirectoryInfo__ctor_m1000259829
GAa:__ZNK20IntermediateRenderer8GetLayerEv
QLg:_CultureInfo_ConstructInvariant_m3774343375
RXb:__ZN10Instancing10SetKeywordER16ShaderKeywordSetNS_7KeywordE
wTa:__ZN15QualitySettings8TransferI14SafeBinaryReadEEvRT_
vBg:_Array_ClearInternal_m532048538
G2i:_RIPEMD160Managed_HashCore_m2350629432
K0g:_DateTime__ctor_m12900168
Uai:_IndexedSet_1_Insert_m1432638049_gshared
mXf:_ScrollRect_CalculateOffset_m927043599
jKi:_Array_FindLast_TisRuntimeObject_m1088586648_gshared
ISf:_Mask_GetModifiedMaterial_m2692272647
uid:__ZN9Scripting11UnityEngine14RemoteSettings12CleanupProxyEv
aEc:__Z44Register_UnityEngine_RenderTexture_get_widthv
ovf:_CullingGroup_t2096318768_marshal_pinvoke_back
r2j:__ZNSt3__26vectorIN6il2cpp2vm5Image20EmbeddedResourceDataENS_9allocatorIS4_EEE21__push_back_slow_pathIS4_EEvOT_
sik:__ZN6il2cpp2os9FastMutexD2Ev
Yrk:dynCall_viiiiiif
eij:_GUIUtility_EndGUIFromException_m3524906492
Y6:__ZN14SerializedFile10ReadObjectEx18ObjectCreationModebPPK8TypeTreePbR6Object
Zcj:_Expression_GetFixedWidth_m945658
gTi:_List_1_RemoveAll_m818254423_gshared
Edj:_Literal_Compile_m2228022079
QJb:__ZN14dynamic_bitset6resizeEjb
C7c:_tt_property_get
jch:_Array_InternalArray__ICollection_Contains_TisSlot_t3975888750_m58971838_gshared
lZ:__ZN11UnityEngine15CloudWebService10RestClientINS0_23WebRequestRestHeaderMapEE7SetDataEPKhj
gE:__ZN7mecanim8skeleton16SkeletonPoseCopyIN4math4trsXES3_EEvPKNS0_13SkeletonPoseTIT_EEPNS4_IT0_EE
zBj:__ZN14dense_hash_mapI10KeyWrapperIPK11Il2CppClassEPKcN6il2cpp5utils11PointerHashIS1_EENS4_14EqualsComparerINSt3__28equal_toIS3_EEEENSC_9allocatorINSC_4pairIKS4_S6_EEEEE15set_deleted_keyERSI_
chb:__ZN9GfxDevice34SetStencilRefWhenStencilWasSkippedEi
j4f:_X509Certificate2_Reset_m3988214799
mc:invoke_fi
ihk:__ZN6il2cpp6icalls8mscorlib6System10Reflection4Emit11TypeBuilder20create_runtime_classEP27Il2CppReflectionTypeBuilderS7_
e2:__ZL21InternalAssertConsolePKcz
kc:invoke_ff
erh:_RSAManaged_add_KeyGenerated_m3688329863
_9e:_Enumerator_get_CurrentKey_m3735262888_gshared
wqf:_HashAlgorithm_TransformFinalBlock_m3005451348
aQg:_Guid_NewGuid_m923091018
xd:_emscripten_glVertexAttrib3f
YOj:__ZN30dense_hashtable_const_iteratorINSt3__24pairIK10KeyWrapperINS1_IPK11Il2CppImageP11Il2CppClassEEEjEES9_17ReflectionMapHashIS8_EN14dense_hash_mapIS9_jSD_NS9_14EqualsComparerINS0_8equal_toIS8_EEEENS0_9allocatorISB_EEE9SelectKeyESI_SK_EppEv
Ybk:__ZThn8_N6il2cpp2vm13CachedCCWBaseINS0_13ManagedObjectEE7DestroyEv
ylg:_RSAPKCS1SignatureDeformatter_SetKey_m614724234
fJh:_UnicodeEncoding_GetByteCount_m3498858619
YLh:_Thread_GetSerializedCurrentUICulture_m3681656498
jbh:_Enum_ToObject_m26687919
_9h:_UnityEvent_1_FindMethod_Impl_m555893253_gshared
NXc:__ZN20TextRenderingPrivate8TextMesh11ApplyToMeshEv
pdh:_Array_InternalArray__ICollection_Remove_TisSlot_t384495010_m635565498_gshared
Wtk:_emscripten_glDrawRangeElements__wrapper
tza:__Z28scripting_class_is_valuetype17ScriptingClassPtr
vna:__ZN9Scripting11UnityEngine9Rendering13CommandBuffer9InitProxyEv
Ucc:__ZNSt3__25dequeI10InputEventNS_9allocatorIS1_EEE19__add_back_capacityEv
B0a:__ZN14BlendShapeDataD2Ev
jQb:__ZL18ProgramUniform3uivPK7ApiGLESjiihPKv
x2i:_RijndaelTransform_Encrypt128_m1940909042
SKe:_MonoEnumInfo_get_Cache_m752167006
Ldd:__Z47CanvasRenderer_Set_Custom_PropHasPopInstructionP12Il2CppObjecth
hBf:_Mesh_get_uv3_m3614955461
uSa:__ZN5Image8SetImageEii13TextureFormatb
u8:__ZN17MessageIdentifier21GetRegisteredMessagesEv
X5j:__ZN6il2cpp2vm5Array3NewEP11Il2CppClassj
S_e:_InternalEnumerator_1_get_Current_m3900374024_gshared
_8i:_DelegatePInvokeWrapper_CostDelegate_t1722821004
cIg:_SynchronizedArrayListWrapper_CopyTo_m2886332653
S_f:_HybridDictionary_Remove_m2295600623
e1j:__GLOBAL__sub_I_Image_cpp
zmg:_SHA512Managed__ctor_m330347986
ENa:__ZNSt3__27__sort5IRPFbRKNS_4pairIN9ShaderLab16FastPropertyNameEfEES6_EPS4_EEjT0_SB_SB_SB_SB_T_
$E:__ZN11UnityEngine9Animation23SetMotionXProperyValuesERKNS0_30AnimatorGenericBindingConstantERKN7mecanim9animation14AvatarConstantERKNS5_12AvatarOutputE15TransformAccessy
sw:__ZN7mecanim9animation17GetClipCurveCountERKNS0_18ClipMuscleConstantE
Zik:__ZNSt3__26vectorINS_12basic_stringIDsNS_11char_traitsIDsEENS_9allocatorIDsEEEENS4_IS6_EEE8__appendEj
Nnh:_Kernel_LeftShift_m3302851050
n9j:__ZN14dense_hash_mapI10KeyWrapperIPK19Il2CppGenericMethodEP10MethodInfoN6il2cpp8metadata23Il2CppGenericMethodHashENS4_14EqualsComparerINS8_26Il2CppGenericMethodCompareEEENSt3__29allocatorINSD_4pairIKS4_S6_EEEEE15set_deleted_keyERSG_
Frb:__Z29Transfer_Blittable_ArrayFieldI14SafeBinaryRead4AABBEvRT_R9ArrayInfoRK23StaticTransferFieldInfo
IRc:__ZN8JSONRead21TransferSTLStyleArrayI13dynamic_arrayI8Vector4fLj0EEEEvRT_17TransferMetaFlags
vhd:__ZN14UnityAnalytics15SendCustomEventEPN11UnityEngine9Analytics15UserCustomEventE
hjg:_RecordProtocol_SendRecord_m515492272
iRd:_ConfigHandler_ReadProvider_m3620509535
ayj:_UnityAnalyticsHandler_Internal_Destroy_m2102025341
uye:__ZL56g_UnityEngine_UI_Assembly_CustomAttributesCacheGeneratorP21CustomAttributesCache
NOe:_Random__ctor_m4122933043
koc:__Z46Register_UnityEngine_RectOffset_get_horizontalv
lOa:__ZN18DelayedCallManager8ClearAllEv
Qei:__Z180RuntimeInvoker_RuntimeObject_RuntimeObject_Int32_t2950945753_RuntimeObject_Int32U26_t1369213839_BooleanU26_t4125257963_BooleanU26_t4125257963_Int32U26_t1369213839_SByte_t1669577662PFvvEPK10MethodInfoPvPS4_
uFc:__Z22Mesh_CUSTOM_HasChannelP12Il2CppObject30InternalScriptingShaderChannel
hbg:_ASN1Convert_ToInt32_m2228176117
dvj:_CanvasGroup_get_interactable_m1362547832
L4b:__ZNK25RenderPrePassObjectSorterclERK16RenderObjectDataS2_
jOd:_ResourceSet_Dispose_m1823973062
L5e:_InternalEnumerator_1_System_Collections_IEnumerator_get_Current_m3537550566_AdjustorThunk
Kzb:__Z22TransferField_NonArrayI18StreamedBinaryReadILb1EE27Converter_SimpleNativeClassI8GUIStyleEEvRK23StaticTransferFieldInfoR31RuntimeSerializationCommandInfoRT0_
le:_Mix_LoadWAV_RW
Dcg:_EncryptedPrivateKeyInfo__ctor_m25839594
bje:__ZL81Mesh_t3648964284_CustomAttributesCacheGenerator_Mesh_get_subMeshCount_m3992802841P21CustomAttributesCache
Ox:__ZN7mecanim6memory16MecanimAllocator8AllocateEjj
FRb:__Z13IsFloatFormat14GraphicsFormat
YBe:__ZL84GraphicRaycaster_t2999697109_CustomAttributesCacheGenerator_m_IgnoreReversedGraphicsP21CustomAttributesCache
zUe:_MethodBuilder_Invoke_m3837446660
rC:__ZNSt3__27__sort4IRNS_6__lessIN11UnityEngine9Animation13CachedBindingES4_EEPS4_EEjT0_S8_S8_S8_T_
P0h:_ReadOnlyCollection_1_System_Collections_IList_Clear_m12445504_gshared
Y3j:__ZN6il2cpp2gcL12alloc_handleEPNS0_10HandleDataEP12Il2CppObjectb
zKf:_Transform_get_worldToLocalMatrix_m399704877
j9i:_Enumerator_MoveNext_m55255603
Ole:__ZL57SpaceAttribute_t3956583069_CustomAttributesCacheGeneratorP21CustomAttributesCache
x2f:_WebRequest_AddDynamicPrefix_m4246631209
Qih:_Array_InternalArray__ICollection_Add_TisRefEmitPermissionSet_t484390987_m1720891963_gshared
w9:__ZL16ReadTypeTreeImplILb1EEbR8TypeTreeRK16TypeTreeIteratorRPKhS6_i
$hk:__ZN6il2cpp6icalls8mscorlib6System11Diagnostics10StackTrace9get_traceEP15Il2CppExceptionib
KVe:_Action_3_Invoke_m1376317295_gshared
uhf:_Dictionary_2_set_Item_m3327106492_gshared
De:_glBlendEquationSeparate
sm:_emscripten_glDeleteVertexArrays
_Mb:__ZN13GfxDeviceGLES17SetComputeUniformE12ObjectHandleI18ComputeProgram_TagPvER18ComputeShaderParamjPKv
nAk:b95
Obj:_Parser_IsNameChar_m698176442
FNi:_List_1_RemoveAt_m3459335427_gshared
Tzk:_emscripten_glValidateProgram__wrapper
aBc:__ZN13MeshScripting27PrintErrorCantAccessChannelEPK4Mesh30InternalScriptingShaderChannel
SLf:_Vector3_get_sqrMagnitude_m1474274574_AdjustorThunk
_5i:_GeneralNames_ToString_m489778282
Ke:_emscripten_glUniform3fv
Uch:_Array_InternalArray__ICollection_Contains_TisRaycastHit2D_t2279581989_m2733133723_gshared
E$g:_Convert_ToByte_m1442000130
Zkg:_RSACryptoServiceProvider_get_KeySize_m2654153358
K_j:__ZN6il2cpp2vm9Exception20GetArgumentExceptionEPKcS3_
tSc:__Z29Transfer_Blittable_ArrayFieldI8JSONReadiEvRT_R9ArrayInfoRK23StaticTransferFieldInfo
mFh:_Enumerator_MoveNext_m625797905_AdjustorThunk
gHi:_Array_Resize_TisCustomAttributeTypedArgument_t2723150157_m3021884250_gshared
byk:_glDrawArrays__wrapper
XV:__ZN9AudioClip27IsFormatSupportedByPlatformERKN4core12basic_stringIcNS0_20StringStorageDefaultIcEEEE
Xlb:__ZN16GeometryJobTasks20ScheduleGeometryJobsER9GfxDevicePFvP15GeometryJobDataEPK22GeometryJobInstructionjb
chc:__ZN9ShaderLab26SerializedShaderDependency8TransferI24GenerateTypeTreeTransferEEvRT_
f8h:_InvokableCall_3_Invoke_m3141788616_gshared
yaj:_PatternCompiler_EmitUntil_m3644194775
T3c:_UNITY_FT_Match_Size
jy:__ZN7mecanim20CreateValueArrayMaskEPKNS_18ValueArrayConstantERNS_6memory9AllocatorE
tqh:_KeyPairPersistence_ToXml_m812591779
pLe:_MonoType_GetFields_internal_m776921855
Pjd:__ZN11UnityEngine7Connect14AppUpdateEventC2Ev
GNd:_ResourceReader_Dispose_m3597121875
aza:__ZN12ImageFilters17RemoveImageFilterERK11ImageFilter
atf:_BootConfigData__ctor_m4255151374
wEf:_PlayerConnectionInternal_UnityEngine_IPlayerEditorConnectionNative_RegisterInternal_m1817895617
PXe:_InternalEnumerator_1_get_Current_m3073360606_AdjustorThunk
Sbk:__ZThn4_N6il2cpp2vm13ManagedObject14QueryInterfaceERK10Il2CppGuidPPv
Ijb:__ZN9GfxDevice31InsertCustomBlitCallbackAndDataEPFviPvER33UnityRenderingExtCustomBlitParams
HUb:__Z32AddPathRemapsForBuiltinResourcesRKN4core12basic_stringIcNS_20StringStorageDefaultIcEEEE
OGa:__ZN14RenderSettings23VirtualRedirectTransferER24GenerateTypeTreeTransfer
Xsb:__ZL26Transfer_SimpleNativeClassI17RemapPPtrTransfer17AnimationCurveTplIfELb0EEvRK29SerializationCommandArgumentsR31RuntimeSerializationCommandInfo
ati:__Z82RuntimeInvoker_Single_t1397266774_RuntimeObject_TextGenerationSettings_t1351628751PFvvEPK10MethodInfoPvPS4_
zNf:_InputField_set_caretWidth_m707310868
um:_glDeleteTransformFeedbacks
h5h:_U3CCreateWhereIteratorU3Ec__Iterator1D_1_MoveNext_m612748497_gshared
pf:_JS_WebRequest_Send
ack:__ZN6il2cpp2os4Time31GetTicks100NanosecondsMonotonicEv
O8j:__ZNSt3__26__treeINS_12basic_stringIcNS_11char_traitsIcEENS_9allocatorIcEEEENS_4lessIS6_EENS4_IS6_EEE16__construct_nodeIJRKS6_EEENS_10unique_ptrINS_11__tree_nodeIS6_PvEENS_22__tree_node_destructorINS4_ISH_EEEEEEDpOT_
lVg:_MonoIO_GetFileSystemEntries_m37351365
h3g:_Convert_ToSByte_m516918950
Bwk:_emscripten_glGenRenderbuffers__wrapper
dCf:_MonoBehaviour_print_m330341231
sHf:_ReapplyDrivenProperties_Invoke_m1151937880
w2i:_RijndaelTransform_ECB_m670662322
KHj:__ZN6il2cpp2vm13MetadataCache21GetFieldInfoFromIndexEj
Que:__ZL62EventType_t3528516131_CustomAttributesCacheGenerator_mouseDragP21CustomAttributesCache
iDg:_Boolean_System_IConvertible_ToDouble_m2859188631_AdjustorThunk
hX:__ZN5physx14PxLightCpuTaskD2Ev
Oq:__ZNSt3__26vectorIN4core12basic_stringIcNS1_20StringStorageDefaultIcEEEENS_9allocatorIS5_EEE6assignINS_11__wrap_iterIPS5_EEEENS_9enable_ifIXaasr21__is_forward_iteratorIT_EE5valuesr16is_constructibleIS5_NS_15iterator_traitsISE_E9referenceEEE5valueEvE4typeESE_SE_
NHf:_Vector2_get_zero_m540426400
mUj:_il2cpp_init
Kji:__Z105RuntimeInvoker_RuntimeObject_RuntimeObject_StreamingContext_t3711869237_ISurrogateSelectorU26_t3801502798PFvvEPK10MethodInfoPvPS4_
Pad:__ZNSt3__26__treeIPN2UI14CanvasRendererENS_4lessIS3_EENS_9allocatorIS3_EEE7destroyEPNS_11__tree_nodeIS3_PvEE
J$b:__ZL25UpdateCameraDepthTexturesRK17RenderLoopContextP13RenderTextureS3_RK13dynamic_arrayI16RenderObjectDataLj0EEbbbR17ShaderPassContext
cMb:__ZN13GfxDeviceGLES22UploadTextureSubData2DE9TextureIDPKhiiiiii14GraphicsFormat
R6e:_DefaultComparer_Compare_m3648806637_gshared
RGc:__Z35Register_UnityEngine_Screen_get_dpiv
TVc:__ZN13SpeedTreeWind7AdvanceEbd
dZe:_InternalEnumerator_1_get_Current_m923139215_AdjustorThunk
XEj:__ZN15dense_hashtableINSt3__24pairIK10KeyWrapperIN6il2cpp5utils13dynamic_arrayIPK10Il2CppTypeLj4EEEEPFvvEEESA_NS3_8metadata19Il2CppSignatureHashEN14dense_hash_mapISA_SD_SG_NSA_14EqualsComparerINSF_22Il2CppSignatureCompareEEENS0_9allocatorISE_EEE9SelectKeyESK_SM_E12expand_arrayEjN21dense_hash_map_traits17integral_constantIbLb0EEE
Egh:_Array_FindLastIndex_TisRuntimeObject_m2929523835_gshared
Npc:__ZN9Transform16SetLocalPositionERK8Vector3f
Adc:__ZN10BootConfig4Data12InitFromFileEPPKcjS2_
OSc:__ZL62__ManagedRegistrationHelperFunction_ParticleSystemVertexStreamPv
AO:__ZN12SoundManagerC2Ev
B3c:_UNITY_tt_face_free_name
jH:__ZNSt3__26__sortIRNS_6__lessI4PPtrI13AnimationClipES4_EEPS4_EEvT0_S8_T_
I$c:_cff_random
FQb:__ZN14DataBufferGLES3MapEjjj
Co:FUNCTION_TABLE_fidi
CNa:__ZNSt3__26vectorINS_4pairIN9ShaderLab16FastPropertyNameEfEENS_9allocatorIS4_EEE21__push_back_slow_pathIS4_EEvOT_
Lja:__ZL77__ManagedRegistrationHelperFunction_NativeContainerIsAtomicWriteOnlyAttributePv
WWe:_ArrayReadOnlyList_1_Contains_m2459654648_gshared
Lxa:__ZNK6Camera33CalculateFarPlaneWorldSpaceLengthEv
gsd:_BaseInput_GetButtonDown_m3789908809
FSi:_List_1_System_Collections_IList_Insert_m2401407093_gshared
rSe:_EnumBuilder_get_BaseType_m1707640163
WOj:__ZNK15dense_hashtableINSt3__24pairIK10KeyWrapperINS1_IPK11Il2CppImageP11Il2CppClassEEEjEES9_17ReflectionMapHashIS8_EN14dense_hash_mapIS9_jSD_NS9_14EqualsComparerINS0_8equal_toIS8_EEEENS0_9allocatorISB_EEE9SelectKeyESI_SK_E5beginEv
u$c:_cf2_stack_setReal
HJ:__ZL60__ManagedRegistrationHelperFunction_MeshReconstructionConfigPv
v0:__GLOBAL__sub_I_Runtime_Graphics_3_cpp
JL:__ZN4FMOD3DSP8getInputEiPPS0_PPNS_13DSPConnectionE
KR:__ZN11SoundHandle8Instance13CreateChannelERS_b
RNe:_NumberFormatter_NumberToString_m2529982306
VS:__ZN13AudioListenerD2Ev
D9c:_UNITY_FT_Done_Library
lik:__ZN6il2cpp2os5MutexC2Eb
R6i:_PKCS12__cctor_m3271060407
m8e:_Comparer_1__cctor_m2282308543_gshared
lfd:__ZN2UI13CanvasManager17EmitDataForCameraEP6Camera
ybg:_ARC4Managed_CheckInput_m1562172012
fEh:_Enumerator_MoveNext_m4018122760_gshared
Wxj:_CustomEventData_Dispose_m4023815755
B4i:_TlsStream_ReadBytes_m2334803179
XFc:__Z44Register_UnityEngine_Material_GetTextureImplv
w2h:_ReadOnlyCollection_1_System_Collections_IList_Add_m2445024939_gshared
Hvf:_Debug_Log_m4051431634
syk:_glUniform3uiv__wrapper
tWg:_FileStream_EndRead_m3904255625
YGb:__ZL8MainLoopv
Zkc:__ZN17TransformInternal25CopyTransformSubhierarchyER18TransformHierarchyjS1_yyjb
Zse:__ZL59AnimatorStateInfo_t509032636_CustomAttributesCacheGeneratorP21CustomAttributesCache
LTd:_CallContextRemotingData_Clone_m14303327
wed:__Z47Register_UnityEngine_CanvasRenderer_SetMaterialv
GAk:_emscripten_glIsShader__wrapper
yTc:__ZN11UnityEngine9Analytics16StartupTimeEvent23SetAssembliesTimingInfoEyy
Nph:_DSAManaged_get_PublicOnly_m3575594967
mLa:__ZN9ShaderLabL15GetSizedTextureEPK6CameraRKNS_16FastPropertyNameEbbRb
aad:__Z26CleanupTextRenderingModulev
bT:__ZN13AudioListener23VirtualRedirectTransferER24GenerateTypeTreeTransfer
acb:__ZNK12HandlerChain9EnumerateEPKcP19dynamic_block_arrayI13FileEntryInfoLj32EEbPPv19FileEnumerationFlag
c1a:__ZThn32_N12MeshRendererD1Ev
vJa:__ZN13RenderTexture23VirtualRedirectTransferER19StreamedBinaryWriteILb0EE
Vak:__ZN6il2cpp2vm13ComObjectBase17GetMarshalSizeMaxERK10Il2CppGuidPvjS5_jPj
mok:_truncate
Rhc:__ZN9ShaderLab27SerializedShaderVectorValue8TransferI18StreamedBinaryReadILb0EEEEvRT_
vUa:__ZN8Renderer21RendererBecameVisibleEv
vnb:__ZN10Instancing11DrawAPIArgsD2Ev
o4:__ZN10MemoryPool16StaticInitializeEPv
Zfa:__ZN11TypeManager21CleanupGlobalInstanceEv
sbh:_Enum_ToString_m2240012010
N:Math_atan
xa:invoke_iifii
JN:__ZNK10SampleClip11GetResourceEv
zKd:_MonoEvent_get_Name_m3774595291
khb:__ZN9GfxDevice15GetStereoMatrixE21MonoOrStereoscopicEye24BuiltinShaderMatrixParamR10Matrix4x4f
Reb:__ZN4core12basic_stringIcNS_20StringStorageDefaultIcEEE6resizeEj
DIc:__Z43Register_UnityEngine_Event_set_displayIndexv
uUc:__GLOBAL__sub_I_CmEventProfiler_cpp
Asi:__Z128RuntimeInvoker_RuntimeObject_RuntimeObject_SByte_t1669577662_SByte_t1669577662_SByte_t1669577662_SByte_t1669577662_RuntimeObjectPFvvEPK10MethodInfoPvPS4_
pJh:_UnicodeEncoding_GetMaxByteCount_m3053620432
rTd:_ArgInfo__ctor_m1950205784
u5h:_Nullable_1_Equals_m4046255732_AdjustorThunk
Zva:__ZN17GlobalGameManager23VirtualRedirectTransferER24GenerateTypeTreeTransfer
dld:__ZN19UnityConnectServiceD0Ev
ylj:_ToggleGroup_ValidateToggleIsInGroup_m3201190739
mLj:__ZN6il2cpp2vm7Runtime17GetDelegateInvokeEP11Il2CppClass
SLd:_MonoProperty_get_PropertyType_m4138957578
I0:___cxx_global_var_init_123
Akd:__ZN11UnityEngine15PlatformWrapper21GetCopyTextureSupportEv
B5g:_DateTime_get_Month_m1566006993_AdjustorThunk
Rbh:_Array_get_swapper_TisRaycastResult_t3360306849_m1267000905_gshared
gkg:_SslClientStream__ctor_m3478574780
BV:__ZN11AudioModule27IsFormatSupportedByPlatformEPKc
wYc:_UNITY_FT_Render_Glyph
NRe:_DerivedType_GetFields_m3190137327
ltd:_EventSystem_OnDisable_m3820258344
OQa:__ZN9Texture2D5ResetEv
lSc:__Z19TransferField_ArrayI8JSONRead16Converter_StringEvRK23StaticTransferFieldInfoR31RuntimeSerializationCommandInfoRT0_
jrf:_MACTripleDES_Setup_m560957914
ivc:__ZZN10MeshFilter15InitializeClassEvEN31FunctorImpl_108kDidAddComponent4CallEPviR11MessageData
uFj:__ZN15dense_hashtableINSt3__24pairIK10KeyWrapperIPK19Il2CppGenericMethodEPK26Il2CppGenericMethodIndicesEES6_N6il2cpp8metadata23Il2CppGenericMethodHashEN14dense_hash_mapIS6_SA_SE_NS6_14EqualsComparerINSD_26Il2CppGenericMethodCompareEEENS0_9allocatorISB_EEE9SelectKeyESI_SK_E6insertERKSB_
U4b:__Z19SetupShadowCullDataRK27ScriptableCullingParametersRK17ShaderReplaceDataPK22SceneCullingParametersf16ShadowProjectionR14ShadowCullData
Qma:__ZN9Scripting11UnityEngine14UnityException12CleanupProxyEv
B_c:_cff_size_request
aLa:__ZN15DirectorManager14ConnectionPool12SwitchBucketEP14ConnectionList
gcd:__ZN2UI11CompareFuncEPNS_6CanvasES1_
nN:__ZN4FMOD7Channel11set3DSpreadEf
Hik:__ZN6il2cpp2os6Memory14AlignedReAllocEPvjj
Chf:_Dictionary_2_Resize_m1156965638_gshared
p8c:_pshinter_get_t1_funcs
OPa:__ZN24GenerateTypeTreeTransfer16TransferTypelessEPjPKc17TransferMetaFlags
Shh:_Array_InternalArray__IndexOf_TisPlayableBinding_t354260709_m3544096311_gshared
Kmg:_SHA512Managed_processLength_m2162821715
kQb:__ZL18ProgramUniform4uivPK7ApiGLESjiihPKv
qFf:_Vector3_get_normalized_m2454957984
zLh:_Mutex_CreateMutex_internal_m3763633491
sEe:__ZL74SpriteState_t1362986479_CustomAttributesCacheGenerator_m_HighlightedSpriteP21CustomAttributesCache
eHa:__ZN10builtintex21GetAttenuationTextureEv
Rm:FUNCTION_TABLE_viiiiiiiiiiiiiii
DAc:__ZNK4Mesh19CanAccessFromScriptEv
tsa:__ZN17PersistentManager43LocalSerializedObjectIdentifierToInstanceIDERK31LocalSerializedObjectIdentifierRiNS_9LockFlagsE
a4:__Z15GetGraphicsCapsv
VRb:__ZN7ApiGLES15BindVertexArrayEN2gl6HandleILNS0_10ObjectTypeE3EEE
msh:_Dictionary_2_System_Collections_IDictionary_Remove_m316877720_gshared
E_b:__Z20IntersectionAABBAABBRK10MinMaxAABBS1_PS_
Rsc:__ZZL31RegisterRectTransformPropertiesR22GenericPropertyBindingEN32Wrapper_RectTransformSizeDeltax013SetFloatValueEPvf
O3i:_SslStreamBase_get_SecurityProtocol_m596101988
TTj:__ZNSt3__212basic_stringIcNS_11char_traitsIcEENS_9allocatorIcEEE6__initIPKcEENS_9enable_ifIXsr21__is_forward_iteratorIT_EE5valueEvE4typeESA_SA_
Lni:__Z121RuntimeInvoker_Void_t1185182177_Int32_t2950945753_Int32_t2950945753_Int32_t2950945753_Int32_t2950945753_Int32_t2950945753PFvvEPK10MethodInfoPvPS4_
A7c:_ft_var_load_item_variation_store
vwg:_DeriveBytes_set_Salt_m441577179
uai:_UnityEvent_3_FindMethod_Impl_m1640458315_gshared
T0d:__ZL61ConstructorBuilder_t2813524108_CustomAttributesCacheGeneratorP21CustomAttributesCache
iob:__Z18Transfer_BlittableI14SafeBinaryReadLb1EhEvRK29SerializationCommandArgumentsR31RuntimeSerializationCommandInfo
f_f:_Text_get_verticalOverflow_m2420459396
Nga:__ZNSt3__224__buffered_inplace_mergeIRNS_4lessIN4core12basic_stringIcNS2_20StringStorageDefaultIcEEEEEENS_11__wrap_iterIPS6_EEEEvT0_SC_SC_T_NS_15iterator_traitsISC_E15difference_typeESG_PNSF_10value_typeE
q$d:__ZL51HashKeys_t1568156503_CustomAttributesCacheGeneratorP21CustomAttributesCache
q_b:__ZNK6Camera19GetStereoSeparationEv
n6:__Z22DestroyObjectHighLevelP6Objectb
mpf:_KeySizes__ctor_m3113946058
Y_b:__Z26BeginRenderQueueExtractionR15RenderNodeQueuePK16RendererCullDataRK13CullingOutputPK12LODDataArray15ExtractionFlagsP18JobBatchDispatcher
dYc:__ZNK13TextRendering4Font10GetTextureEv
nj:_emscripten_glVertexAttrib3fv
qTd:_LifetimeServices__cctor_m2128864873
pIf:_ScriptableObject_CreateScriptableObjectInstanceFromType_m2783367459
KQh:_UInt16_TryParse_m3193697465
pZj:__ZN6il2cpp6icalls8mscorlib6System9Threading6Thread16SetName_internalEP12Il2CppThreadP12Il2CppString
rj:_glBeginTransformFeedback
K8g:_Decimal_op_Division_m2407964042
hOf:_InputField_get_asteriskChar_m965956856
VHa:__ZN18JobBatchDispatcherC2E11JobPriorityi
rqf:_HashAlgorithm_Create_m644612360
GDf:_Playable_get_Null_m3556999077
onh:_BigInteger_TestBit_m1507066813
RIc:__ZN8GUIStyle14GetBuiltinFontEv
ijb:__ZN9GfxDevice13EndFrameStatsEv
Zvc:__Z7Empty2DP9Texture2DPhiiii
TFi:_Array_InternalArray__set_Item_TisRefEmitPermissionSet_t484390987_m3786305619_gshared
Bkk:_DisplayBuffer_GetAllDisplayLines_m956916978
EWj:__ZN6il2cpp2vm6Thread16RequestInterruptEP12Il2CppThread
MK:__ZL34StaticDestroyAudioCustomFilterRootPv
IWe:_ArrayReadOnlyList_1_GetEnumerator_m3931906247_gshared
Rna:__ZN9Scripting11UnityEngine9Profiling7Sampler9InitProxyEv
c9a:__ZN19ComputeShaderKernelD2Ev
e_a:__ZN10DynamicVBO9DrawChunkERK21DynamicVBOChunkHandleP17VertexDeclarationPKNS_10DrawParamsEi
Tzj:__ZN6il2cpp2vmL17SetupEventsLockedEP11Il2CppClassRKNS_2os12FastAutoLockE
kpc:__ZN10systeminfo21GetTemporaryCachePathEv
Rjj:_AnalyticsEventTracker_Start_m1087627554
$bk:__ZN6il2cpp2os4Time29GetTicksMillisecondsMonotonicEv
qFd:_GridLayoutGroup_CalculateLayoutInputVertical_m357562599
TKh:_CompressedStack_Capture_m3327262890
JIh:_StringBuilder_Replace_m1968561789
r9a:__ZN12ScriptMapper8TransferI14SafeBinaryReadEEvRT_
Cub:__Z18Transfer_BlittableI24GenerateTypeTreeTransferLb1E10Matrix4x4fEvRK29SerializationCommandArgumentsR31RuntimeSerializationCommandInfo
xwd:_StandaloneInputModule_get_repeatDelay_m1143359059
GKh:_UTF8Encoding_GetMaxByteCount_m420651053
Vse:__ZL73AnimationMotionXToDeltaPlayable_t272231551_CustomAttributesCacheGeneratorP21CustomAttributesCache
IOc:__ZN9JSONWrite8TransferI10Matrix4x4fEEvRT_PKc17TransferMetaFlags
e0c:_cf2_hintmap_map
U5g:_DateTime_Compare_m2855073242
ONi:_List_1_get_Item_m1651423686_gshared
KOh:_Type_get_IsExplicitLayout_m1182254884
qrb:__ZN15SerializeTraitsI5RectTIfEE8TransferI14SafeBinaryReadEEvRS1_RT_
cJh:_UnicodeEncoding__ctor_m3604373700
XDc:__Z41Register_UnityEngine_Texture_get_wrapModev
FZc:_UNITY_FT_Raccess_Get_DataOffsets
vzc:__ZN14PlayableOutputC2EjP13PlayableGraph
LUa:__ZThn32_NK8Renderer11GetMaterialEi
eAd:_ContentSizeFitter_get_rectTransform_m3297799590
uck:__ZN6il2cpp6icalls8mscorlib6System7Runtime15InteropServices8GCHandle15GetTargetHandleEP12Il2CppObjectii
iuf:_CameraCallback_Invoke_m3308824940
R1a:__ZN9InputAxis8TransferI18StreamedBinaryReadILb0EEEEvRT_
dog:_X509Certificate_Import_m3563119820
h1:__ZN13MemoryManager12GetAllocatorE10MemLabelId
z9f:_BigInteger_ToString_m3260066955
bhb:__ZN9GfxDevice29GetMinimumNodesPerGraphicsJobEv
phe:__ZL63RuntimePlatform_t4159857903_CustomAttributesCacheGenerator_NaClP21CustomAttributesCache
v4h:_Func_1_Invoke_m370346740_gshared
Src:__Z13RegisterClassI4MeshEvPKc
sqb:__ZN14SafeBinaryRead8TransferIyEEvRT_PKc17TransferMetaFlags
FYf:_Slider__ctor_m873361617
gIe:_SynchronizedWriter__ctor_m495278869
Zpc:__ZN2UI13RectTransform13GetWorldSpaceER8Vector3fR8Vector2f
$Od:_GCHandle__ctor_m2690474163_AdjustorThunk
ffa:__ZN15DirectorManager17OnSampleFixedTimeEv
x6b:__ZNK13RendererScene21GetDynamicObjectCountEv
O1g:_Double_Parse_m1135962389
Q4i:_X509Extension__ctor_m710637961
HMg:_CultureInfo_get_CurrentCulture_m1632690660
Hqh:_PKCS1_OS2IP_m65970018
W9f:_ModulusRing_BarrettReduction_m3024442734
G_h:_ReadOnlyCollection_1_System_Collections_IList_set_Item_m70952451_gshared
k4a:__ZNSt3__26vectorIN30RuntimeInitializeOnLoadManager9ClassInfoE13stl_allocatorIS2_L18MemLabelIdentifier13ELi16EEE8__appendEj
ivb:__ZN24GenerateTypeTreeTransfer32TransferSTLStyleArrayWithElementI23ManagedObjectTransfererEEvRT_17TransferMetaFlags
$8j:__ZN6il2cpp6icalls8mscorlib6System11Environment12get_PlatformEv
P0f:_HttpWebRequest__cctor_m1467954389
mfg:_CipherSuiteCollection_System_Collections_IList_Remove_m2463347416
zzf:_DefaultValueAttribute_GetHashCode_m3368187153
q$f:_DictionaryNodeEnumerator_get_Value_m1345533116
fTc:__ZN27PerformanceReportingManager19ConfigChangedStaticEPS_RKN4core12basic_stringIcNS1_20StringStorageDefaultIcEEEER8JSONReadb
omc:__Z42Register_UnityEngine_Behaviour_get_enabledv
w3i:_SslStreamBase_EndNegotiateHandshake_m1124299797
g3i:_SslStreamBase__ctor_m3009266308
_Sj:__ZN6il2cpp2vm14TypeNameParser23ParseNestedTypeOptionalERi
M5a:__ZN17PersistentManager22CheckInstanceIDsLoadedEPiiNS_9LockFlagsE
rik:__ZN6il2cpp2os13FastMutexImplC2Ev
GOd:_RuntimeHelpers_InitializeArray_m4077124945
h4a:__ZN30RuntimeInitializeOnLoadManager9ClassInfo8TransferI14SafeBinaryReadEEvRT_
H9f:_BigInteger_op_Equality_m1194739960
$Jh:_UTF7Encoding_GetCharCount_m2792854727
RJ:__ZN9Scripting11UnityEngine2XR5Tango24MeshReconstructionConfig9InitProxyEv
y2b:__ZL13RenderCastersiRK8Vector3fS1_RK13ShadowJobDataR17ShaderPassContextRKNSt3__26vectorI16ShadowCasterData13stl_allocatorIS9_L18MemLabelIdentifier2ELi16EEEERKNS8_I20ShadowCasterPartDataSA_ISG_LSB_2ELi16EEEERK15RenderNodeQueuebPKj
nl:_emscripten_glGetShaderInfoLog
e_f:_Text_get_horizontalOverflow_m4155575610
Hlf:_ObjectReader_RecordFixup_m4125245357
W3c:_UNITY_ft_glyphslot_set_bitmap
xJi:_Dictionary_2_Do_ICollectionCopyTo_TisRuntimeObject_m1362949338_gshared
Cl:_glUniform1i
POf:_InputField_Validate_m4147207871
kIa:__ZN6prcoreL11inner_clearILj3EEEvPhjjj
ALg:_CCGregorianCalendar_dmy_from_fixed_m494173177
MQi:_List_1_System_Collections_IList_IndexOf_m3211997095_gshared
qEg:_Byte_System_IConvertible_ToUInt64_m371883985_AdjustorThunk
i6c:_Read_CVT_Stretched
qKj:__ZN6il2cpp6icalls8mscorlib6System18CollectTypeMethodsINS_5utils10functional10TrueFilterEEEvP11Il2CppClassPKS7_jRKT_RNSt3__26vectorIPK10MethodInfoNSE_9allocatorISI_EEEERA65535_b
fHb:__Z14SetPlayerPause11PlayerPauseb
xka:__ZL48__ManagedRegistrationHelperFunction_CullingGroupPv
TIg:_CollectionBase_System_Collections_ICollection_CopyTo_m2850099809
MZh:_ReadOnlyCollection_1_System_Collections_IEnumerable_GetEnumerator_m3042843502_gshared
Lwd:_StandaloneInputModule_ActivateModule_m2232892298
hPd:_GCHandle_Free_m1457699368_AdjustorThunk
$Lh:_Thread_get_CurrentUICulture_m1397429997
U0c:_cff_done_blend
FEd:_Graphic_RegisterDirtyLayoutCallback_m1235519898
s5:__Z30scripting_stack_trace_info_for21ScriptingExceptionPtrR14StackTraceInfo
aqa:__ZN9Scripting11UnityEngine6Events14UnityEventBase12CleanupProxyEv
Wsk:_glCompressedTexSubImage3D__wrapper
xYf:_Selectable_Select_m1465131241
F0b:__ZN15SkyboxGenerator18GetSixFaceSkyboxVBEv
vPj:__ZN15dense_hashtableINSt3__24pairIK10KeyWrapperINS1_IPK12PropertyInfoP11Il2CppClassEEEjEES9_17ReflectionMapHashIS8_EN14dense_hash_mapIS9_jSD_NS9_14EqualsComparerINS0_8equal_toIS8_EEEENS0_9allocatorISB_EEE9SelectKeyESI_SK_EC2ERKSN_j
xM:__ZN15AudioReverbZone7CleanupEv
ETb:__ZN10BufferGLESD0Ev
NGb:__Z20scripting_gc_disablev
FCg:_Attribute_IsDefined_m1430686743
b9f:_IntervalCollection_Optimize_m161975983
wJj:__ZN6il2cpp2vm10ThreadPool5QueueEP14Il2CppDelegatePPvS3_P12Il2CppObject
rTh:_Version__ctor_m417728625
Dja:__ZN16memory_pool_implILi68EE15AutoPoolWrapper10InitializeEPv
J$g:_Convert_ToByte_m3567528984
r7h:_InvokableCall_1_Invoke_m3497872319_gshared
BFb:__ZN9Scripting35ErrorMessageForUnsupportedEnumFieldE17ScriptingFieldPtr
ilh:_Level2MapComparer__cctor_m1866197409
VAb:__Z29Transfer_Blittable_ArrayFieldI18StreamedBinaryReadILb1EEfEvRT_R9ArrayInfoRK23StaticTransferFieldInfo
oia:__ZN6prcoreL26RemapGenericIntegerToFloatI17TexFormatARGB888818TexFormatARGBFloatEEvPKNS_9InnerInfoE
J8e:_Enumerator_get_CurrentKey_m2230405065_AdjustorThunk
mIg:_BitArray__ctor_m2765908219
iug:_StringComparer_get_InvariantCultureIgnoreCase_m2404489191
ytj:_Font_get_material_m1471867149
dck:__ZN6il2cpp6icalls8mscorlib6System7Runtime16CompilerServices14RuntimeHelpers15InitializeArrayEP11Il2CppArrayi
fSd:_Context_Freeze_m2594571993
Ind:__ZZN18UnityConnectClient23RegisterGlobalCallbacksEvEN46EarlyUpdateUnityConnectClientUpdateRegistrator7ForwardEv
Fhd:__ZNSt3__26__treeINS_12__value_typeIjN4core12basic_stringIcNS2_20StringStorageDefaultIcEEEEEENS_19__map_value_compareIjS7_NS_4lessIjEELb1EEE13stl_allocatorIS7_L18MemLabelIdentifier6ELi16EEE25__emplace_unique_key_argsIjJNS_4pairIjS6_EEEEENSH_INS_15__tree_iteratorIS7_PNS_11__tree_nodeIS7_PvEEiEEbEERKT_DpOT0_
hab:__ZN12ImmediatePtrI9TransformE8TransferI18StreamedBinaryReadILb0EEEEvRT_
Ljh:_Array_InternalArray__ICollection_CopyTo_TisInt32_t2950945753_m3102754797_gshared
fFf:_Quaternion_ToString_m2203056442
ARe:_ModuleBuilder_GetTokenGenerator_m4177350090
NXa:__ZN10Matrix4x4f8TransferI18StreamedBinaryReadILb0EEEEvRT_
fMh:_Thread_Start_m2860771284
FVi:_List_1_AddEnumerable_m2295992518_gshared
c0g:_DateTime_YearMonthDayFormats_m827415370
QQ:__ZN4FMOD7Channel19getReverbPropertiesEP29FMOD_REVERB_CHANNELPROPERTIES
B5b:__ZL23NormalizeRobustInternalRK8Vector3fRfS2_f
JNf:_InputField_get_selectionColor_m2548343601
eih:_Array_LastIndexOf_TisRuntimeObject_m2701366436_gshared
gKj:__ZN6il2cpp6icalls8mscorlib6System8MonoType13GetInterfacesEP20Il2CppReflectionType
VZ:__ZN11UnityEngine15CloudWebService25WebRequestDownloadHandler7OnAbortEv
uXb:__ZN6Camera12CustomRenderER11CullResultsR17ShaderPassContextPK21CameraRenderingParamsNS_10RenderFlagEPNS_21PerformRenderFunctionEPFvvE
A3f:_PublicKey_GetUnsignedBigInteger_m3873409673
O7j:__ZN6il2cpp2os6Thread22SetNativeThreadCleanupEPFvPvE
rAh:_GenericEqualityComparer_1_Equals_m2669134646_gshared
$5e:_DefaultComparer_Compare_m1649892577_gshared
rnf:_RuntimeMethodHandle__ctor_m2867240657
Wtg:_DecoderFallback_get_StandardSafeFallback_m2130338133
E$a:__ZN14SafeBinaryRead21TransferSTLStyleArrayI13dynamic_arrayI10BlendShapeLj0EEEEvRT_17TransferMetaFlags
cn:FUNCTION_TABLE_vdd
hub:__Z18Transfer_BlittableI24GenerateTypeTreeTransferLb1E10ColorRGBAfEvRK29SerializationCommandArgumentsR31RuntimeSerializationCommandInfo
wha:__ZN6prcoreL17RemapGenericFloatI18TexFormatRGBAFloat16TexFormatRGFloatEEvPKNS_9InnerInfoE
HJj:__ZN6il2cpp6icalls8mscorlib6System8MonoType8get_NameEP20Il2CppReflectionType
Bmh:_SimpleCollator_LastIndexOf_m2130553617
Eqb:__ZNSt3__26vectorI10RectOffset13stl_allocatorIS1_L18MemLabelIdentifier1ELi16EEE8__appendEj
F6e:_DefaultComparer_Compare_m1920986590_gshared
dOh:_TimeSpan_op_Equality_m1999885032
Q3i:_SslStreamBase_get_ServerCertificates_m2154373069
P1j:__ZN6il2cpp2vmL29AddTypeToNametoClassHashTableEPK11Il2CppImagei
Po:FUNCTION_TABLE_ff
Ro:FUNCTION_TABLE_fi
GNe:_NumberFormatter_ZeroTrimEnd_m3065471008
Oja:__ZL93__ManagedRegistrationHelperFunction_NativeContainerSupportsDeallocateOnJobCompletionAttributePv
cxg:_X509Certificate_get_DSA_m1760272844
_Lh:_Thread_get_CurrentCulture_m349116646
TLh:_Thread_Thread_internal_m4184414727
Rrc:__Z13RegisterClassI12MeshRendererEvPKc
qd:_emscripten_glGetAttribLocation
JVb:__ZZ23InitPlayerLoopCallbacksvEN39PostLateUpdateResetInputAxisRegistrator7ForwardEv
PP:__ZN4FMOD12ChannelGroup14getParentGroupEPPS0_
ud:_emscripten_set_blur_callback
WZi:_Collection_1_IsValidItem_m1475436662_gshared
jSa:__ZNK14ImageReference9ClipImageEiiii
Ruc:__ZN4MeshC2E10MemLabelId18ObjectCreationMode
k3b:__ZN10Matrix4x4f30SetPositionAndOrthoNormalBasisERK8Vector3fS2_S2_S2_
bua:__ZN5RectTIfE8TransferI24GenerateTypeTreeTransferEEvRT_
Rzd:_ColorBlock_Equals_m518833916
M5j:__ZN6il2cpp6icalls8mscorlib6System4Enum8ToObjectEP20Il2CppReflectionTypeP12Il2CppObject
b5b:__ZL30FrustumCullReflectionProbesJobP26ReflectionProbeCullJobDataj
SGi:_Array_qsort_TisUIVertex_t4057497605_m4120916435_gshared
RYb:__ZN12FlareManager6UpdateEv
G$j:__ZN6il2cpp6icalls8mscorlib6System4Type29GetGenericTypeDefinition_implEP20Il2CppReflectionType
G4a:__ZN27GenericSlowGarbageCollector16ProcessReferenceEi
lna:__ZN9Scripting11UnityEngine10Resolution9InitProxyEv
Bsh:_Dictionary_2_get_Item_m1749337561_gshared
tRc:__ZN8JSONRead21TransferSTLStyleArrayI13dynamic_arrayI8BitFieldLj0EEEEvRT_17TransferMetaFlags
yma:__ZN35ScriptingManagedObjectProxyRegistry13RegisterProxyEPKcPFvvES3_
vRd:_LifetimeServices_set_SponsorshipTimeout_m2538334028
yHj:__ZN15dense_hashtableINSt3__24pairIK10KeyWrapperIP9FieldInfoEiEES5_N6il2cpp5utils11PointerHashIS3_EEN14dense_hash_mapIS5_iSB_NS5_14EqualsComparerINS0_8equal_toIS4_EEEENS0_9allocatorIS7_EEE9SelectKeyESG_SI_E4findERS6_
UHi:_Array_Sort_TisCustomAttributeTypedArgument_t2723150157_m3248988944_gshared
mla:__ZL43__ManagedRegistrationHelperFunction_Hash128Pv
cnk:_fopen
tmb:__ZN20GpuProgramParameters15AddTextureParamEPKciib16TextureDimensionP16PropertyNamesSet
j_c:__ZN20TextRenderingPrivate8FontImplD2Ev
_$:__ZN19CloudServiceHandler8SaveFileERKN4core12basic_stringIcNS0_20StringStorageDefaultIcEEEEPKvj
Rck:_GC_init
CLe:_MonoType_IsPointerImpl_m3340652279
uvk:_glFramebufferTexture2D__wrapper
Kjk:__ZN6il2cpp6icalls8mscorlib6System7Runtime8Remoting7Proxies9RealProxy27InternalGetTransparentProxyEP12Il2CppObjectP12Il2CppString
u8j:__ZN6il2cpp2vm6Method10IsInflatedEPK10MethodInfo
gck:__ZNK6il2cpp8metadata14Il2CppTypeLessclEPK10Il2CppTypeS4_
ldk:_GC_remove_header
sDa:__ZL17InstanceBufferJobIN10Instancing14RenderLoopArgsEEvP21InstanceBufferJobDataIT_E
$3a:__ZNSt3__26vectorIi13stl_allocatorIiL18MemLabelIdentifier13ELi16EEE8__appendEj
uqd:__GLOBAL__sub_I_artifacts_WebGL_legacybindings_VR_0_cpp
WVd:_ReturnMessage_get_OutArgs_m1641976511
bTd:_SynchronizationAttribute_IsContextOK_m324067792
Q3j:__ZN6il2cpp2vm6Object6IsInstEP12Il2CppObjectP11Il2CppClass
uVe:_Action_1_BeginInvoke_m1817882028_gshared
uxb:__Z19TransferField_ArrayI19StreamedBinaryWriteILb0EE27Converter_UnityEngineObjectEvRK23StaticTransferFieldInfoR31RuntimeSerializationCommandInfoRT0_
xGa:__Z16GetMSAALevelDesc9MSAALevel
Jbh:_Environment_GetMachineConfigPath_m43519138
_Ce:__ZL65Mask_t1803652131_CustomAttributesCacheGenerator_m_ShowMaskGraphicP21CustomAttributesCache
p0e:_InternalEnumerator_1_System_Collections_IEnumerator_get_Current_m4203917072_gshared
g8g:_Decimal_decimal2Int64_m2102545213
MXb:__ZN8Renderer27EnsureTransformInfoUpToDateEv
dAk:_emscripten_glFrontFace__wrapper
Ja:invoke_fiffi
q9:__ZN14SerializedFile14SerializedType8ReadTypeILb1EEEbibRPKhS3_Pi
_7h:_InvokableCall_1_Invoke_m1160628299_gshared
xsd:_ExecuteEvents_get_pointerEnterHandler_m1185301724
u3i:_InternalAsyncResult__ctor_m2194591319
yIa:__ZN8Playable7SetTimeEd
a5:__ZN13RuntimeStaticI12GraphicsCapsLb0EE16StaticInitializeEPv
HVg:_FileLoadException__ctor_m3879680456
VPc:__Z18Transfer_BlittableI8JSONReadLb1E8Vector4fEvRK29SerializationCommandArgumentsR31RuntimeSerializationCommandInfo
a5c:_tt_cmap2_validate
i1c:_cff_cmap_unicode_done
RPd:_ActivationServices_CreateProxyFromAttributes_m3864561181
Edc:__ZN9Scripting20SendScriptingMessageER10GameObjectPKc18ScriptingObjectPtr
Qsi:__Z67RuntimeInvoker_Void_t1185182177_Scene_t2348375561_Int32_t2950945753PFvvEPK10MethodInfoPvPS4_
bHb:__Z26IsSplashScreenFadeCompletev
hFc:__Z42Register_UnityEngine_Camera_get_clearFlagsv
uEb:__ZN13MonoBehaviour13AwakeFromLoadE17AwakeFromLoadMode
iKj:__ZNSt3__26__treeIP11Il2CppClassNS_4lessIS2_EENS_9allocatorIS2_EEED2Ev
sZf:_Slider_FindSelectableOnRight_m3576909722
kac:__ZN13RenderManager27UpdatePreviousFrameMatricesEv
Jyb:__Z35Transfer_Blittable_FixedBufferFieldI18StreamedBinaryReadILb1EExEvRK29SerializationCommandArgumentsR31RuntimeSerializationCommandInfo
nKi:_Array_InternalArray__get_Item_TisByte_t1134296376_m3566214066_gshared
xba:__Z22SetManagerPtrInContextiP6Object
K2a:__ZN14PlayerSettings8TransferI19StreamedBinaryWriteILb0EEEEvRT_
FPc:__Z18Transfer_BlittableI8JSONReadLb0E10ColorRGBAfEvRK29SerializationCommandArgumentsR31RuntimeSerializationCommandInfo
aMg:_NumberFormatInfo_set_NumberNegativePattern_m1999304795
BTi:_List_1_System_Collections_IList_Insert_m2238786360_gshared
kTe:_GenericTypeParameterBuilder_IsSubclassOf_m2266644074
Lrh:_SymmetricTransform_ThrowBadPaddingException_m2926778011
zMg:_CompareInfo_ToString_m2684143229
Pda:__ZN15DirectorManagerD2Ev
TYf:_Slider_get_maxValue_m414465787
lOj:__ZN15dense_hashtableINSt3__24pairIK10KeyWrapperINS1_IPK10MethodInfoP11Il2CppClassEEEjEES9_17ReflectionMapHashIS8_EN14dense_hash_mapIS9_jSD_NS9_14EqualsComparerINS0_8equal_toIS8_EEEENS0_9allocatorISB_EEE9SelectKeyESI_SK_E9copy_fromERKSN_j
H5f:_X509CertificateEnumerator_System_Collections_IEnumerator_get_Current_m4218613192
dkd:__ZN11UnityEngine15PlatformWrapper12GetInfoFlagsEv
mVf:_Scrollbar_set_direction_m473480640
xJh:_UTF32Encoding__ctor_m1635603592
rSh:_UInt64_Equals_m1879425698_AdjustorThunk
wej:_Uri_IsPredefinedScheme_m1188665625
S$j:__ZN6il2cpp6icalls8mscorlib6System13Globalization11CultureInfo45construct_internal_locale_from_current_localeEP17Il2CppCultureInfo
tkh:_Array_InternalArray__ICollection_CopyTo_TisUIVertex_t4057497605_m487823430_gshared
Y1f:_ServicePointManager_get_CheckCertificateRevocationList_m1645465614
nIj:_SessionStateChanged_Invoke_m1365949269
YSb:__ZN15TextureTFMethod16BindForRenderingEj
Vwe:__ZL49Canvas_t3310196443_CustomAttributesCacheGeneratorP21CustomAttributesCache
bIb:__ZN14GraphicsHelper20IsViewportFullscreenERK9GfxDevice
Vhf:_SoapMethodAttribute_SetReflectionObject_m503748123
YPg:_Guid_Equals_m3683678873_AdjustorThunk
Q1j:__ZN15dense_hashtableINSt3__24pairIK10KeyWrapperINS1_IPKcS4_EEEiEES6_24NamespaceAndNamePairHashN14dense_hash_mapIS6_iS9_NS6_14EqualsComparerI26NamespaceAndNamePairEqualsEENS0_9allocatorIS8_EEE9SelectKeyESD_SF_E4findERS7_
PTc:__ZN11UnityEngine9Analytics33PerformanceReportingRenderingInfoC2Ei
CXc:__ZN20TextRenderingPrivate8FontImpl13CharacterInfo8TransferI19StreamedBinaryWriteILb0EEEEvRT_
UHj:__ZN6il2cpp2os19SocketHandleWrapper7ReleaseEv
IAa:__ZNK20IntermediateRenderer11GetMaterialEi
nUc:__ZN9Scripting11UnityEngine11Collision2D12CleanupProxyEv
jsf:_BeforeRenderHelper_Invoke_m50072094
EUd:_MethodCall_get_MethodBase_m550047245
q3a:__ZNSt3__27__sort4IRNS_6__lessINS_4pairIPKN5Unity4TypeE7Hash128EES8_EEPS8_EEjT0_SC_SC_SC_T_
tua:__ZNK11NamedObject22GetTypeVirtualInternalEv
aWa:__ZN15SerializeTraitsI13dynamic_arrayI28EnlightenRendererInformationLj0EEE19ResizeSTLStyleArrayERS2_i
mej:_Uri_EscapeString_m2061933484
Qsf:_AttributeHelperEngine_GetDefaultExecutionOrderFor_m2255077112
cKc:__ZN5IMGUI16GetFocusedWindowER8GUIState
B1g:_Convert_ToDecimal_m3815908452
Iuf:_Color_op_Equality_m1112359053
yuf:_Color__ctor_m286683560_AdjustorThunk
cWc:__ZN9Scripting11UnityEngine13TreePrototype9InitProxyEv
SWg:_DelegatePInvokeWrapper_ReadDelegate_t714865915
gxg:_CollectionBase_Clear_m1509125218
aLc:__ZN11IMGUIModule21QueryGUIDisplayTargetE17ScriptingClassPtr
pEj:__ZNSt3__27__sort4IRN6il2cpp5utils11collections13ArrayValueMapIPK10Il2CppType17Il2CppInteropData26InteropDataToTypeConverterNS1_8metadata14Il2CppTypeLessENSA_26Il2CppTypeEqualityComparerEE12SortComparerEPS8_EEjT0_SH_SH_SH_T_
Eqk:dynCall_vidi
mqd:__GLOBAL__sub_I_artifacts_WebGL_codegenerator_0_cpp_7358
Rkd:__ZN11UnityEngine15PlatformWrapper14GetCloudUserIdEv
QYg:_StreamReader_ReadToEnd_m371831293
sAf:_Mathf_RoundToInt_m1874334613
AKe:_MonoCustomAttrs_GetCustomAttributes_m1775925192
Bpc:__Z42NoAllocHelpers_CUSTOM_ExtractArrayFromListP12Il2CppObject
Utk:_glVertexAttribPointer__wrapper
Pqf:_HMAC_Create_m2148924157
pqk:___udivdi3
TKg:_Exception__ctor_m1406832249
FDh:_Enumerator_System_Collections_IEnumerator_get_Current_m2339378585_gshared
qoc:__ZN11PlayerPrefs9SetStringERKN4core12basic_stringIcNS0_20StringStorageDefaultIcEEEES6_
mVc:__ZN9Scripting11UnityEngine7Physics9InitProxyEv
Xed:__Z13RegisterClassIN2UI11CanvasGroupEEvPKc
ggk:__ZN6il2cpp6icalls8mscorlib6System8Delegate18SetMulticastInvokeEP14Il2CppDelegate
r8e:_Enumerator_VerifyCurrent_m2197239943_gshared
FZ:__ZN11UnityEngine15CloudWebService20WebRequestRestClient5BeginEv
qnk:_fseek
WVc:__ZN16memory_pool_implILi40EE15AutoPoolWrapper10InitializeEPv
Etb:__Z22TransferField_NonArrayI17RemapPPtrTransfer27Converter_SimpleNativeClassI10RectOffsetEEvRK23StaticTransferFieldInfoR31RuntimeSerializationCommandInfoRT0_
zxg:_PKCS12_AddCertificate_m3618696508
UQ:__ZN20SoundChannelInstance11set3DSpreadEf
WSg:_Int64_System_IConvertible_ToUInt32_m109903525
qBh:_HashSet_1_Init_m2976925848_gshared
zC:__ZNSt3__26__sortIRN11UnityEngine9Animation11BindingSortEPNS_4pairINS2_14GenericBindingEPNS2_10BoundIndexEEEEEvT0_SB_T_
lma:__ZL50__ManagedRegistrationHelperFunction_UnityExceptionPv
Z3g:_Convert_ToUInt32_m2215525276
A2a:__ZN24GenerateTypeTreeTransfer32TransferSTLStyleArrayWithElementI16SplashScreenLogoEEvRT_17TransferMetaFlags
LMj:__ZN15dense_hashtableINSt3__24pairIK10KeyWrapperINS1_IPK9FieldInfoP11Il2CppClassEEEjEES9_17ReflectionMapHashIS8_EN14dense_hash_mapIS9_jSD_NS9_14EqualsComparerINS0_8equal_toIS8_EEEENS0_9allocatorISB_EEE9SelectKeyESI_SK_E6insertERKSB_
O$e:_InternalEnumerator_1_get_Current_m2680116177_gshared
WBj:__ZN14dense_hash_mapI10KeyWrapperIPKcEP11Il2CppClassN6il2cpp5utils11StringUtils12StringHasherIS2_EENS3_14EqualsComparerINS7_13VmStringUtils21CaseSensitiveComparerEEENSt3__29allocatorINSF_4pairIKS3_S5_EEEEEC2EjRKSA_RKSE_
tda:__Z37InitializeIntermediateRendererManagerPv
Isg:_String_IndexOfOrdinal_m962178384
MFj:__ZN6il2cpp2vm13MetadataCache34GetTypeInfoFromTypeDefinitionIndexEi
Qqf:_HMACMD5__ctor_m3129799368
Wma:__ZN9Scripting11UnityEngine9Texture2D12CleanupProxyEv
ZHd:_TypeBuilder_GetEvent_m2166527753
BEd:_Graphic_CrossFadeColor_m678806803
czb:__ZL26Transfer_SimpleNativeClassI18StreamedBinaryReadILb1EE8GradientLb1EEvRK29SerializationCommandArgumentsR31RuntimeSerializationCommandInfo
Yki:__Z102RuntimeInvoker_Int32_t2950945753_RuntimeObject_Int32_t2950945753_CharU26_t1697032762_SByte_t1669577662PFvvEPK10MethodInfoPvPS4_
ULe:_MonoType_get_Namespace_m2015358851
Vai:_IndexedSet_1_RemoveAt_m3002732320_gshared
BKg:_HashKeys_CopyTo_m4219627824
iNf:_InputField_GetLineStartPosition_m2947412579
oh:_glBlendEquation
y4g:_Convert_ToType_m2406080310
c1h:_ReadOnlyCollection_1_IndexOf_m2659941036_gshared
Xhd:__Z38CustomEventData_CUSTOM_Internal_CreateP12Il2CppObjectP12Il2CppString
v0h:_ReadOnlyCollection_1_System_Collections_IList_set_Item_m3570269385_gshared
KFh:_List_1_AddEnumerable_m2043754576_gshared
WBe:__ZL85Graphic_t1660335611_CustomAttributesCacheGenerator_Graphic_OnPopulateMesh_m2916877004P21CustomAttributesCache
uBd:_DefaultControls_CreateToggle_m1236643913
mph:_BitConverterLE_ToSingle_m1153793442
oik:__ZN6il2cpp2os5Mutex7TryLockEjb
sQg:_Int16_System_IConvertible_ToByte_m3161982419
V3:__Z20IsVectorBuiltinParamPKcPi
A2j:__ZN6il2cpp2vm5Field8GetFlagsEP9FieldInfo
zrf:_MD5CryptoServiceProvider_HashFinal_m2625727830
LGi:_Array_qsort_TisRaycastResult_t3360306849_m3861320071_gshared
brg:_Single_System_IConvertible_ToUInt32_m289030200
VYj:__ZN6il2cpp6icalls8mscorlib6System10ReflectionL16LoadResourceFileEP24Il2CppReflectionAssembly
S9g:_Double_System_IConvertible_ToDouble_m3692611612
EW:__Z83Register_UnityEngine_Experimental_Audio_AudioSampleProvider_InternalSetScriptingPtrv
U8:__Z13IsFileCreatedRKN4core12basic_stringIcNS_20StringStorageDefaultIcEEEE
q_f:_Text_OnPopulateMesh_m1525268284
cWg:_FileStream_FlushBuffer_m914568182
NVa:__ZN16LightmapSettings18TransferDeprecatedI14SafeBinaryReadEEvRT_
V_a:__ZN8Renderer11SetMaterialE4PPtrI8MaterialEi
UIh:_StringBuilder_AppendFormat_m921870684
f5j:__ZN15dense_hashtableINSt3__24pairIK10KeyWrapperIP12Il2CppObjectEN6il2cpp2gc9CachedCCWEEES5_NS7_5utils11PointerHashIS3_EEN14dense_hash_mapIS5_S9_SD_NS5_14EqualsComparerINS0_8equal_toIS4_EEEENS0_9allocatorISA_EEE9SelectKeyESI_SK_E5eraseE30dense_hashtable_const_iteratorISA_S5_SD_SM_SI_SK_E
HJg:_Hashtable__ctor_m1684344284
HA:__ZThn152_NK26AnimatorControllerPlayable41GetStateMachineBehaviourVectorDescriptionEv
mzg:_Activator_CheckAbstractType_m2015247896
hlg:_RSACryptoServiceProvider_ImportParameters_m614616705
f3i:_SslHandshakeHash_CreateSignature_m1634235041
rcf:_ShimEnumerator_get_Current_m3504536618_gshared
bra:__ZN9Scripting11UnityEngine21AttributeHelperEngine9InitProxyEv
_Rf:_LayoutRebuilder_U3CRebuildU3Em__3_m523803689
SR:__ZN11AudioSource8TransferI14SafeBinaryReadEEvRT_
OVg:_FileNotFoundException__ctor_m2477162036
Lwh:_EqualityComparer_1__cctor_m149356781_gshared
TYc:__ZNSt3__26__treeINS_12__value_typeIN20TextRenderingPrivate7FontRefEP11FT_FaceRec_EENS_19__map_value_compareIS3_S6_NS_4lessIS3_EELb1EEENS_9allocatorIS6_EEE25__emplace_unique_key_argsIS3_JRKNS_21piecewise_construct_tENS_5tupleIJRKS3_EEENSI_IJEEEEEENS_4pairINS_15__tree_iteratorIS6_PNS_11__tree_nodeIS6_PvEEiEEbEERKT_DpOT0_
Bx:__ZN7mecanim9animation23TransformDeltasFromClipEiiiRKNS0_18ClipMuscleConstantERKNS0_12ClipBindingsERKNS_14ValueArrayMaskERN4math4trsXESC_SC_
UBb:__Z18Transfer_BlittableI18StreamedBinaryReadILb0EELb0E12PropertyNameEvRK29SerializationCommandArgumentsR31RuntimeSerializationCommandInfo
vqk:___divdi3
yic:__ZN9ShaderLab9IntShader26CreateFromSerializedShaderERKNS_16SerializedShaderERNSt3__26vectorI4PPtrI6ShaderENS4_9allocatorIS8_EEEEbPS7_
z9i:_Match_get_Empty_m2060287462
pnb:__ZN19ShaderPropertySheet16SetComputeBufferEN9ShaderLab16FastPropertyNameE15ComputeBufferIDNS_8SetFlagsE
ZCf:_U3CInvokeMessageIdSubscribersU3Ec__AnonStorey0_U3CU3Em__0_m444206473
Psh:_Dictionary_2_ContainsValue_m256968015_gshared
x9j:__ZNK15dense_hashtableINSt3__24pairIK10KeyWrapperIPK19Il2CppGenericMethodEP10MethodInfoEES6_N6il2cpp8metadata23Il2CppGenericMethodHashEN14dense_hash_mapIS6_S9_SD_NS6_14EqualsComparerINSC_26Il2CppGenericMethodCompareEEENS0_9allocatorISA_EEE9SelectKeyESH_SJ_E5beginEv
AWe:_ArrayReadOnlyList_1_get_Item_m1974867852_gshared
wGd:_Image_AddQuad_m969836764
wlh:_MSCompatUnicodeTable_IsIgnorableNonSpacing_m47098938
iVh:_Collection_1_IsSynchronized_m2655903966_gshared
SRg:_Int32_System_IConvertible_ToSingle_m896140682_AdjustorThunk
x0:__GLOBAL__sub_I_Runtime_Graphics_7_cpp
Fx:__ZN7mecanim21CreateFloatValueArrayEPKNS_18ValueArrayConstantERNS_6memory9AllocatorE
P6b:__ZL12CullGroupJobP20CullingGroupsJobDataj
Jdk:_GC_remove_dangling_disappearing_links
w_:__ZN11UnityEngine15CloudWebService14RestDownloader9IsAbortedEv
QA:__ZN7mecanim12statemachine28DestroyStateMachineWorkspaceEPNS0_21StateMachineWorkspaceERNS_6memory9AllocatorE
IJc:__Z30GUIStyle_CUSTOM_SetDefaultFontP12Il2CppObject
ho:FUNCTION_TABLE_f
Uo:FUNCTION_TABLE_i
ycj:_AnchorInfo_get_Position_m1133366486
OYg:_StreamReader_FindNextEOL_m2574298119
cga:__ZN11TypeManager12RegisterTypeERK20TypeRegistrationDesc
JJ:__ZL44__ManagedRegistrationHelperFunction_PoseDataPv
xn:FUNCTION_TABLE_v
K$a:__ZNSt3__26vectorI17BlendShapeChannelNS_9allocatorIS1_EEE8__appendEj
PVb:__ZZ23InitPlayerLoopCallbacksvEN43PostLateUpdateUpdateAllRenderersRegistrator7ForwardEv
X6a:__ZN21LightProbeProxyVolume13GetRenderDataER27LightProbeProxyVolumeSample
KRd:_Context_get_ContextProperties_m3283598326
H$i:_Collection_1_System_Collections_IList_set_Item_m4249768453_gshared
plk:_Keyboard_PlayRandomSound_m629210842
t1a:__ZN11TimeManager8TransferI24GenerateTypeTreeTransferEEvRT_
bcf:_KeyCollection_System_Collections_ICollection_get_SyncRoot_m3900096134_gshared
mMc:__ZN8JSONRead8TransferItEEvRT_PKc17TransferMetaFlagsb
mC:__ZNK11UnityEngine9Animation28GenericAnimationBindingCache10BindCustomERKNS0_14GenericBindingER9TransformRNS0_10BoundCurveE
rTj:__ZN6il2cpp2vm17TypeNameParseInfoC2ERKS1_
Pld:__ZN18UnityConnectClient17InitConnectClientEv
Slk:_memcmp
Lmd:__ZN22UnityAnalyticsSettings5ResetEv
Dwe:__ZL57GUILayoutEntry_t3214611570_CustomAttributesCacheGeneratorP21CustomAttributesCache
Nkd:__ZN11UnityEngine7Connect18ConnectSessionInfo8TransferER9JSONWrite
HU:__Z74Register_UnityEngine_AudioListener_INTERNAL_CALL_ReadExtensionPropertyNamev
nGi:_Array_InternalArray__set_Item_TisHitInfo_t3229609740_m1576844560_gshared
__a:__ZN9Scripting32GetCachedPtrFromScriptingWrapperE18ScriptingObjectPtr
xkg:_SslClientStream_OnBeginNegotiateHandshake_m3734240069
Hfd:__ZN2UI29ScheduleUIJobsForInstructionsERNS_7BatchesEjPKNS_13UIInstructionEfjjPNS_13CanvasJobDataE
AP:__ZN5audio5mixer22CreateAudioMixerMemoryERKNS0_18AudioMixerConstantEPN4FMOD6SystemERN7mecanim6memory9AllocatorEib
$Ji:_LayoutGroup_SetProperty_TisInt32_t2950945753_m3911895589_gshared
Zkf:_BinaryFormatter__ctor_m971003555
ysk:dynCall_iiid
Cei:__Z121RuntimeInvoker_Void_t1185182177_Int32_t2950945753_Int32_t2950945753_Int32_t2950945753_SByte_t1669577662_SByte_t1669577662PFvvEPK10MethodInfoPvPS4_
zsk:dynCall_iiif
dmi:__Z52RuntimeInvoker_Single_t1397266774_Single_t1397266774PFvvEPK10MethodInfoPvPS4_
Lgh:_Array_IndexOf_TisRuntimeObject_m828474689_gshared
Ksc:__ZZL31RegisterRectTransformPropertiesR22GenericPropertyBindingEN32Wrapper_RectTransformAnchorMiny113GetFloatValueEPv
xHg:_FixedSizeArrayListWrapper_InsertRange_m1706982628
NSh:_UIntPtr_ToString_m984583492_AdjustorThunk
lJb:__ZL20ShaderWarmupFuncImplP6ShaderiPN9ShaderLab4PassERK16ShaderKeywordSetP10DynamicVBOPvR17ShaderPassContext
mKb:__ZN13GfxDeviceGLESC2E10MemLabelId
Rtj:_TextGenerationSettings_Equals_m3618607189
fEj:__ZN15dense_hashtableI10KeyWrapperIPK17Il2CppGenericInstES4_N6il2cpp8metadata21Il2CppGenericInstHashEN14dense_hash_setIS4_S7_NS4_14EqualsComparerINS6_24Il2CppGenericInstCompareEEENSt3__29allocatorIS4_EEE8IdentityESB_SE_E6insertERKS4_
aMj:__ZN15dense_hashtableINSt3__24pairIK10KeyWrapperINS1_IPK14Il2CppAssemblyP11Il2CppClassEEEjEES9_17ReflectionMapHashIS8_EN14dense_hash_mapIS9_jSD_NS9_14EqualsComparerINS0_8equal_toIS8_EEEENS0_9allocatorISB_EEE9SelectKeyESI_SK_E3endEv
RKe:_MonoEnumInfo_get_enum_info_m1661176095
Yfj:_GUIUtility_CheckOnGUI_m3924092168
mPb:__ZN14DataBufferGLES12RecordUpdateEv
QYc:__ZN20TextRenderingPrivate15DynamicFontData28GetFaceForFontRefFromOSFontsERKNS_7FontRefE
eEc:__Z34MonoBehaviour_CUSTOM_StopCoroutineP12Il2CppObjectP12Il2CppString
$sg:_String_Remove_m562998446
uFf:_Ray_GetPoint_m1852405345
h5j:__ZN6il2cpp2vm12GenericClass12SetupMethodsEP11Il2CppClass
aka:__ZL50__ManagedRegistrationHelperFunction_AnimationCurvePv
Lcb:__ZNK20LocalFileSystemPosix18GetApplicationPathEv
jVi:_List_1_set_Item_m658432263_gshared
pFb:__ZN9Scripting30IsSystemCollectionsGenericListE17ScriptingClassPtr
Yhd:__Z39CustomEventData_CUSTOM_Internal_DestroyPv
xCf:_PlayerEditorConnectionEvents_AddAndCreate_m3046878154
nrd:__ZN9Scripting11UnityEngine12Experimental2XR14PlaneAlignment9InitProxyEv
Gth:_Dictionary_2_Add_m1279427033_gshared
_Jc:__Z14GetDefaultSkini
rfd:__ZN2UI23InitializeCanvasManagerEv
mwa:__ZN10GameObject16CheckConsistencyEv
Mvd:_PointerInputModule_GetMousePointerEventData_m4273240034
nvc:__ZN14RenderSettings15InitializeClassEv
Ixd:_AspectRatioFitter_set_aspectMode_m4140288987
Inc:__Z46Register_UnityEngine_GameObject_get_activeSelfv
dPa:__ZL35stbir__resample_horizontal_upsampleP11stbir__infoPf
uEi:__Z82RuntimeInvoker_RuntimeObject_RaycastResult_t3360306849_RuntimeObject_RuntimeObjectPFvvEPK10MethodInfoPvPS4_
WWi:_Enumerator__ctor_m3419056812_AdjustorThunk
Z1e:_InternalEnumerator_1_System_Collections_IEnumerator_get_Current_m1299775605_gshared
HEg:_Byte_ToString_m2335342258
X_f:_DictionaryNodeEnumerator_Reset_m2226320064
Vqk:dynCall_iifii
sbd:__ZN2UI16GetCanvasManagerEv
Wmd:__ZN11UnityEngine9Analytics22EventLimitReachedEventD2Ev
cBc:__ZN15GUIEventManager8PopEventER10InputEvent
Rnc:__Z31RectOffset_Get_Custom_PropRightP12Il2CppObject
s9c:__Z54Register_UnityEngine_TextGenerator_GetVerticesInternalv
jhd:__ZNSt3__26__treeINS_12__value_typeIN4core12basic_stringIcNS2_20StringStorageDefaultIcEEEEN11UnityEngine9Analytics15UserCustomEvent11CustomValueEEENS_19__map_value_compareIS6_SB_NS_4lessIS6_EELb1EEE13stl_allocatorISB_L18MemLabelIdentifier6ELi16EEE25__emplace_unique_key_argsIS6_JRKNS_21piecewise_construct_tENS_5tupleIJOS6_EEENSO_IJEEEEEENS_4pairINS_15__tree_iteratorISB_PNS_11__tree_nodeISB_PvEEiEEbEERKT_DpOT0_
Jsg:__Z3BoxP11Il2CppClassPv
nzf:_Input_get_touchSupported_m1480684970
RR:__ZN20SoundChannelInstance9isPlayingEPb
UBf:_MonoBehaviour_StartCoroutine_m3411253000
bTb:__ZN21UniformBufferTFMethodD2Ev
_5a:__ZN18LoadSceneOperation21PostLoadSceneAdditiveEv
x1e:_InternalEnumerator_1_System_Collections_IEnumerator_get_Current_m1096730143_AdjustorThunk
L7b:__Z36CreateScriptingArrayFromUnityObjectsI13dynamic_arrayIP6CameraLj0EEE17ScriptingArrayPtrRKT_17ScriptingClassPtr
Omc:__ZL34GetComponentsImplementationRecurseILb1ELi1ELi2EEbR10GameObjectbRK17CompareParametersRK39GetComponentsImplementation_ReturnValue
Uia:__ZN6prcoreL12RemapGenericI15TexFormatRGB56515TexFormatRGB888EEvPKNS_9InnerInfoE
GOf:_InputField_MoveTextEnd_m2392516920
Dgk:__ZN6il2cpp5utils10MemoryPool9AddRegionEj
S3f:_X509Certificate2__ctor_m3336405942
qEd:_Graphic_get_workerMesh_m997382591
iJc:__ZN13dynamic_arrayI7GUIClipLj0EE9push_backERKS0_
MEc:__Z38PlayableHandle_CUSTOM_IsValid_InjectedP9HPlayable
MWj:__ZNSt3__214__split_bufferIP12Il2CppThreadRN6il2cpp2gc9AllocatorIS2_EEED2Ev
ygd:__ZN5Umbra16FileOutputStreamD0Ev
DAg:_Array_System_Collections_IList_RemoveAt_m41405158
aui:__Z64RuntimeInvoker_Boolean_t97287965_RuntimeObject_Int64_t3736567304PFvvEPK10MethodInfoPvPS4_
DGc:__Z52Register_UnityEngine_Object_FindObjectFromInstanceIDv
wdd:__Z41CanvasGroup_Get_Custom_PropBlocksRaycastsP12Il2CppObject
Abk:__ZN6il2cpp2os11Environment17GetProcessorCountEv
rec:__ZNSt3__26vectorIN9ShaderLab26SerializedShaderDependencyENS_9allocatorIS2_EEE8__appendEj
Naa:__ZN32TransformHierarchyChangeDispatch26DispatchSelfAndAllChildrenE15TransformAccessNS_12InterestTypeE
NU:__Z46Register_UnityEngine_AudioSource_get_isPlayingv
Mjd:__ZN11UnityEngine15PlatformWrapper21GetVRDeviceMirrorModeEv
ktd:_EventSystem_OnEnable_m3237278246
fca:__ZN13RuntimeStaticI22VirtualJoystickManagerLb0EE13StaticDestroyEPv
R7f:_Interpreter_Balance_m1978770534
lM:__ZN13AudioListener12ApplyFiltersEv
una:__ZN9Scripting11UnityEngine9Rendering8GPUFence12CleanupProxyEv
ord:__ZN9Scripting11UnityEngine12Experimental2XR14PlaneAlignment12CleanupProxyEv
rVi:_List_1_System_Collections_IList_Contains_m353431064_gshared
Mnj:_AudioConfigurationChangeHandler_BeginInvoke_m4104069447
kik:__ZN6il2cpp8metadata27Il2CppGenericContextCompare7CompareEPK20Il2CppGenericContextS4_
Brk:dynCall_viiii
joi:__Z243RuntimeInvoker_Void_t1185182177_Int16_t2552820387_RuntimeObject_Int32_t2950945753_Int32_t2950945753_Int32_t2950945753_SByte_t1669577662_SByte_t1669577662_SByte_t1669577662_SByte_t1669577662_Int16_t2552820387_SByte_t1669577662_SByte_t1669577662PFvvEPK10MethodInfoPvPS4_
vMg:_CompareInfo_IsPrefix_m796715920
Hzj:__ZNK15dense_hashtableINSt3__24pairIK10KeyWrapperIPK22Il2CppGenericParameterEP11Il2CppClassEES6_N6il2cpp5utils11PointerHashIS4_EEN14dense_hash_mapIS6_S9_SE_NS6_14EqualsComparerINS0_8equal_toIS5_EEEENS0_9allocatorISA_EEE9SelectKeyESJ_SL_E23find_position_with_hashERS7_j
Cag:_PrimalityTest_Invoke_m2948246884
$Xb:__Z11CopyTextureP7TextureiiS0_ii
Eye:__ZL65EventTrigger_t1076084509_CustomAttributesCacheGenerator_delegatesP21CustomAttributesCache
vTj:__ZNSt3__214__split_bufferIN6il2cpp2vm17TypeNameParseInfoERNS_9allocatorIS3_EEED2Ev
ANb:__ZThn10632_N13GfxDeviceGLES26EnableScissorRectsPlatformEv
vUi:_List_1_System_Collections_IList_Contains_m3717811284_gshared
uKd:_MonoEvent_get_Attributes_m3048829315
lfa:__ZN15DirectorManager14ConnectionPool16GrowEmptyBucketsEv
QIg:_CaseInsensitiveHashCodeProvider_AreEqual_m3534448780
y6:__ZN17PersistentManager32CopyToAwakeFromLoadQueueInternalER18AwakeFromLoadQueue
Yni:__Z104RuntimeInvoker_Boolean_t97287965_Int32_t2950945753_Int64U5BU5DU26_t194432655_StringU5BU5DU26_t2154486980PFvvEPK10MethodInfoPvPS4_
$mi:__Z106RuntimeInvoker_RuntimeObject_Int16_t2552820387_RuntimeObject_BooleanU26_t4125257963_BooleanU26_t4125257963PFvvEPK10MethodInfoPvPS4_
FXb:__ZNK6Camera16SetActiveVRUsageEv
gVf:_Scrollbar_set_handleRect_m1170237786
jQc:__ZL26Transfer_SimpleNativeClassI8JSONRead8GradientLb1EEvRK29SerializationCommandArgumentsR31RuntimeSerializationCommandInfo
tmk:_open
E8i:_X509CrlEntry_get_SerialNumber_m3627212772
d_j:__ZN6il2cpp6icalls8mscorlib6System5Array5CloneEP11Il2CppArray
qac:__Z30GetPlayerShouldRunInBackgroundv
BAf:_Mathf__cctor_m1175545152
BKd:_MonoEvent_IsDefined_m10931749
X$f:_NameValueCollection_AsSingleString_m3776180906
Oia:__ZN6prcoreL12RemapGenericI11TexFormatI815TexFormatRGB565EEvPKNS_9InnerInfoE
NRg:_Int32_System_IConvertible_ToInt64_m3520470966
_zc:__ZN16StreamedResource8TransferI19StreamedBinaryWriteILb0EEEEvRT_
IKb:__ZNK13TranslateGLES17FramebufferTargetEN2gl17FramebufferTargetE
G6j:__ZL11on_gc_event11GCEventType
r2e:_InternalEnumerator_1_System_Collections_IEnumerator_get_Current_m1612699335_gshared
rgg:_TlsServerHello__ctor_m3887266572
eed:__ZN13dynamic_arrayIN2UI8UIVertexELj0EEC2Ej10MemLabelId
Nvk:b62
Mvk:b61
Jvk:b60
axk:b67
$wk:b66
_wk:b65
fxk:b69
i9i:_Enumerator_get_Current_m359737019
Qza:__ZNSt3__26__treeINS_12__value_typeIi17ShadowCachingDataEENS_19__map_value_compareIiS3_NS_4lessIiEELb1EEE13stl_allocatorIS3_L18MemLabelIdentifier66ELi16EEE7destroyEPNS_11__tree_nodeIS3_PvEE
SCg:_BitConverter_ToInt64_m349022421
nBc:__Z9SetIIMGUIP6IIMGUI
KQi:_List_1_System_Collections_IList_Add_m1142950911_gshared
ywi:__Z68RuntimeInvoker_Boolean_t97287965_Double_t594665363_Double_t594665363PFvvEPK10MethodInfoPvPS4_
I4c:_tt_cmap10_get_info
LHb:__Z28SetupPixelCorrectCoordinatesi
Rkc:__ZNSt3__218__insertion_sort_3IRN10vector_mapIiiNS_4lessIiEE13stl_allocatorINS_4pairIiiEEL18MemLabelIdentifier1ELi16EEE13value_compareEPS6_EEvT0_SD_T_
QOb:__Z5SplitRKN4core12basic_stringIcNS_20StringStorageDefaultIcEEEEcRNSt3__26vectorIS3_NS6_9allocatorIS3_EEEEi
SDj:__ZN15dense_hashtableI10KeyWrapperIPK19Il2CppGenericMethodES4_N6il2cpp8metadata23Il2CppGenericMethodHashEN14dense_hash_setIS4_S7_NS4_14EqualsComparerINS6_26Il2CppGenericMethodCompareEEENSt3__29allocatorIS4_EEE8IdentityESB_SE_E9copy_fromERKSH_j
Mqh:_PKCS1_Sign_v15_m2719206817
_ij:_AesTransform__ctor_m3143546745
v8h:_UnityAction_1_Invoke_m2929687399_gshared
xdh:_Array_InternalArray__ICollection_Remove_TisRuntimeObject_m2110193223_gshared
Tue:__ZL64EventType_t3528516131_CustomAttributesCacheGenerator_scrollWheelP21CustomAttributesCache
dua:__ZN24GenerateTypeTreeTransfer10SetVersionEi
mBf:_Mesh_SetTangents_m1615111656
Hzc:__ZN13PlayableGraph16DestroyRecursiveEP8Playable
G_j:__ZN6il2cpp2vm9Exception20GetArgumentExceptionERKNS_5utils10StringViewIDsEES6_
VWa:__ZNSt3__26vectorI13dynamic_arrayI8Vector2fLj0EENS_9allocatorIS3_EEE7reserveEj
jCf:_PlayerEditorConnectionEvents__ctor_m3177489832
QUd:_MethodCallDictionary__cctor_m2213329406
SL:__ZN12AudioManagerD0Ev
BNf:_InputField_set_textComponent_m2547304131
X2a:__Z13ConvertPixelsPKh13TextureFormatPhS1_j
Bik:__ZN6il2cpp5utils35RegisterRuntimeInitializeAndCleanupC2EPFvvES3_i
$lh:_SortKeyBuffer_Initialize_m3786111493
SKi:_Array_InternalArray__get_Item_TisX509ChainStatus_t133602714_m2237651489_gshared
mGe:__ZL58IVertexModifier_t3404627876_CustomAttributesCacheGeneratorP21CustomAttributesCache
F3a:__ZNK22GenericPropertyBinding13SetFloatValueERKN11UnityEngine9Animation10BoundCurveEf
GKf:_Transform_GetEnumerator_m2717073726
Nvg:_Encoding__cctor_m1936558127
xSi:_List_1__ctor_m163821521_gshared
vEe:__ZL90StencilMaterial_t3850132571_CustomAttributesCacheGenerator_StencilMaterial_Add_m3183845017P21CustomAttributesCache
UEf:_QualitySettings_set_vSyncCount_m3131636076
aog:_X509Certificate_get_Subject_m2638144878
rZc:_raccess_guess_darwin_ufs_export
Lsf:_AsyncOperation_Finalize_m1841265672
iVb:__ZN11TypeManager18InitializeAllTypesEv
fqa:__ZN9Scripting11UnityEngine16DiagnosticSwitch9InitProxyEv
cNf:_InputField_MarkGeometryAsDirty_m817808086
xRf:_LayoutGroup_get_isRootLayoutGroup_m1082645254
mS:__ZN9AudioClipD0Ev
GUj:_il2cpp_class_from_name
gUf:_RectMask2D_OnDisable_m809267607
Yx:__ZN17AnimationPlayable16AllocateBindingsEPK35AnimationPlayableEvaluationConstant
MWi:_Queue_1__ctor_m1971992302_gshared
vz:__ZN27AnimationLayerMixerPlayable26ProcessAnimationLayerBeginEP35AnimationPlayableEvaluationConstantP32AnimationPlayableEvaluationInputP33AnimationPlayableEvaluationOutput
nLe:_MonoType_GetEvent_m28975240
MQb:__ZN14GfxContextGLES11MakeCurrentER7ApiGLESN2gl13ContextHandleE
zWg:_MonoIO_Write_m3999708352
Qsk:dynCall_viffffi
Tsc:__ZZL31RegisterRectTransformPropertiesR22GenericPropertyBindingEN32Wrapper_RectTransformSizeDeltay113SetFloatValueEPvf
xjh:_Array_InternalArray__ICollection_CopyTo_TisChar_t3634460470_m3599063464_gshared
aKh:_UTF7Encoding_InternalGetChars_m2722395139
o0g:_DateTime_get_Today_m2788644320
iJb:__ZN16GraphicsSettings22WarmupPreloadedShadersEv
Jcd:__Z34Canvas_Set_Custom_PropSortingOrderP12Il2CppObjecti
Ynf:_SByte_System_IConvertible_ToSingle_m1083054891
a9i:_CostDelegate_Invoke_m898648402
VJh:_UTF7Encoding_Equals_m227704363
owf:_DisplaysUpdatedDelegate_Invoke_m3203573844
Mic:__ZN9ShaderLab4Pass6RetainEv
dqh:_KeyPairPersistence_get_ContainerName_m4274536094
ky:__ZN7mecanim9animation22CopyAnimationNodeStateEPKNS0_18AnimationNodeStateEPS1_bbRKNS_6bitsetILj83EEE
Ya:invoke_iiiiiiffiiiiiiiiiffffiii
vGf:_Rect_op_Equality_m3986168348
apd:__ZN20UnityWebRequestProtoI24UnityWebRequestTransport16AtomicRefCounter14RedirectHelper14ResponseHelper15DownloadHandler13UploadHandler18CertificateHandler12HeaderHelper14AsyncOperationE25Job_RedirectTo_MainThreadEPS9_
khh:_Array_InternalArray__IndexOf_TisSlot_t384495010_m3224390719_gshared
B9e:_Enumerator_System_Collections_IDictionaryEnumerator_get_Key_m4039922590_AdjustorThunk
Ybd:__ZN2UI6Canvas8TransferI14SafeBinaryReadEEvRT_
JTc:__ZN11UnityEngine9Analytics18RenderingInfoEvent12ToJsonStringER9JSONWrite
mNj:__ZN6il2cpp2gc19AppendOnlyGCHashMapIPK10Il2CppTypeP20Il2CppReflectionTypeNS_8metadata14Il2CppTypeHashENS7_26Il2CppTypeEqualityComparerEE3AddERKS4_S6_
MX:__ZN11UnityEngine15CloudWebService17CloudJobScheduler11ScheduleJobEPFvPvES2_
NK:__ZN13RuntimeStaticINSt3__23mapIjP19AudioSampleProviderNS0_4lessIjEE13stl_allocatorINS0_4pairIKjS3_EEL18MemLabelIdentifier27ELi16EEEELb0EE13StaticDestroyEPv
JY:__ZN11UnityEngine15CloudWebService17CloudServiceEvent12ToJsonStringER9JSONWrite
Rfg:_TlsClientHello__ctor_m1986768336
aMd:_MonoProperty_GetCustomAttributes_m2723308902
Ica:__ZNK18VertexChannelsInfoltERKS_
wpi:__Z89RuntimeInvoker_Boolean_t97287965_Int32_t2950945753_Int32U26_t1369213839_Int32_t2950945753PFvvEPK10MethodInfoPvPS4_
tpc:__Z18SetTargetFrameRatei
NEg:_Char_System_IConvertible_ToType_m4138905176_AdjustorThunk
hMc:__ZN9JSONWrite8TransferIfEEvRT_PKc17TransferMetaFlags
j7g:_DBNull_System_IConvertible_ToUInt16_m643477279
hfb:__ZN10MemoryFileD0Ev
sUh:_Collection_1_SetItem_m774004841_gshared
xxj:_Analytics_GetUnityAnalyticsHandler_m2772482435
n8j:__ZN6il2cpp2os10ThreadImpl22SetNativeThreadCleanupEPFvPvE
C6g:_DateTimeOffset__cctor_m3610253033
sEg:_Byte_CompareTo_m4285128861_AdjustorThunk
rRd:_ConfigHandler_ExtractAssembly_m2143791058
B3j:__ZN6il2cpp8metadataL24RecursiveGenericDepthForEPK17Il2CppGenericInst
IKf:_Transform_GetChild_m1092972975
eqb:__ZN13GUIStyleState8TransferI14SafeBinaryReadEEvRT_
Ld:_glDrawArrays
qX:__ZN9Scripting11UnityEngine23ClothSphereColliderPair12CleanupProxyEv
Jnj:_AudioSource_get_clip_m1234340632
SNd:_ResourceCacheItem_t51292791_marshal_pinvoke_back
mmb:__ZNSt3__26vectorIN20GpuProgramParameters15StructParameterENS_9allocatorIS2_EEE21__push_back_slow_pathIS2_EEvOT_
ldd:__Z46Register_UnityEngine_Canvas_set_sortingLayerIDv
Tt:__ZN23AnimatedPropertyBuilder5BuildEP13AnimationClip18ScriptingObjectPtr
ePc:__ZN9JSONWrite8TransferI13dynamic_arrayI8Vector3fLj0EEEEvRT_PKc17TransferMetaFlags
_$a:__ZN14BlendShapeData8TransferI18StreamedBinaryReadILb0EEEEvRT_
p6c:_Round_To_Grid
YYc:_UNITY_FT_Stream_Close
Ctd:_EventTrigger_OnPointerClick_m1385968891
IRh:_UInt32_ToString_m4293943134_AdjustorThunk
SHf:_Renderer_get_sortingLayerID_m3902855301
X8f:_Interval_CompareTo_m3282557545_AdjustorThunk
c7e:_Comparer_1__cctor_m1018589532_gshared
o8c:_pshinter_get_globals_funcs
Fga:__ZL20FormatOrderedProcessPKcP17FormatOrderedDataPc
Xjh:_Array_InternalArray__ICollection_CopyTo_TisResourceCacheItem_t51292791_m766230259_gshared
Kug:_Decoder_set_Fallback_m3834517714
GDc:__Z35DebugLogHandler_CUSTOM_Internal_Log7LogTypeP12Il2CppStringP12Il2CppObject
Gvk:_emscripten_glShaderBinary__wrapper
nQb:__ZL17ProgramUniform3ivPK7ApiGLESjiihPKv
mGg:_ArrayList_Shift_m395607654
lib:__ZN9GfxDevice25GetBackBufferColorSurfaceEv
